
KalmanFilter.elf:     file format elf32-littlearm

Sections:
Idx Name          Size      VMA       LMA       File off  Algn
  0 .isr_vector   00000298  08000000  08000000  00010000  2**0
                  CONTENTS, ALLOC, LOAD, READONLY, DATA
  1 .text         00007414  080002a0  080002a0  000102a0  2**4
                  CONTENTS, ALLOC, LOAD, READONLY, CODE
  2 .rodata       000000f4  080076b4  080076b4  000176b4  2**2
                  CONTENTS, ALLOC, LOAD, READONLY, DATA
  3 .ARM          00000008  080077a8  080077a8  000177a8  2**2
                  CONTENTS, ALLOC, LOAD, READONLY, DATA
  4 .init_array   00000004  080077b0  080077b0  000177b0  2**2
                  CONTENTS, ALLOC, LOAD, DATA
  5 .fini_array   00000004  080077b4  080077b4  000177b4  2**2
                  CONTENTS, ALLOC, LOAD, DATA
  6 .data         00000018  24000000  080077b8  00020000  2**2
                  CONTENTS, ALLOC, LOAD, DATA
  7 .RxDecripSection 00000060  24000018  080077d0  00020018  2**2
                  CONTENTS, ALLOC, LOAD, DATA
  8 .TxDecripSection 00000060  24000078  08007830  00020078  2**2
                  CONTENTS, ALLOC, LOAD, DATA
  9 .bss          00005334  240000d8  08007890  000200d8  2**2
                  ALLOC
 10 ._user_heap_stack 00000604  2400540c  08007890  0002540c  2**0
                  ALLOC
 11 .ARM.attributes 0000002e  00000000  00000000  000200d8  2**0
                  CONTENTS, READONLY
 12 .comment      00000043  00000000  00000000  00020106  2**0
                  CONTENTS, READONLY
 13 .debug_frame  000000d4  00000000  00000000  0002014c  2**2
                  CONTENTS, READONLY, DEBUGGING, OCTETS

Disassembly of section .text:

080002a0 <__do_global_dtors_aux>:
 80002a0:	b510      	push	{r4, lr}
 80002a2:	4c05      	ldr	r4, [pc, #20]	; (80002b8 <__do_global_dtors_aux+0x18>)
 80002a4:	7823      	ldrb	r3, [r4, #0]
 80002a6:	b933      	cbnz	r3, 80002b6 <__do_global_dtors_aux+0x16>
 80002a8:	4b04      	ldr	r3, [pc, #16]	; (80002bc <__do_global_dtors_aux+0x1c>)
 80002aa:	b113      	cbz	r3, 80002b2 <__do_global_dtors_aux+0x12>
 80002ac:	4804      	ldr	r0, [pc, #16]	; (80002c0 <__do_global_dtors_aux+0x20>)
 80002ae:	f3af 8000 	nop.w
 80002b2:	2301      	movs	r3, #1
 80002b4:	7023      	strb	r3, [r4, #0]
 80002b6:	bd10      	pop	{r4, pc}
 80002b8:	240000d8 	.word	0x240000d8
 80002bc:	00000000 	.word	0x00000000
 80002c0:	0800769c 	.word	0x0800769c

080002c4 <frame_dummy>:
 80002c4:	b508      	push	{r3, lr}
 80002c6:	4b03      	ldr	r3, [pc, #12]	; (80002d4 <frame_dummy+0x10>)
 80002c8:	b11b      	cbz	r3, 80002d2 <frame_dummy+0xe>
 80002ca:	4903      	ldr	r1, [pc, #12]	; (80002d8 <frame_dummy+0x14>)
 80002cc:	4803      	ldr	r0, [pc, #12]	; (80002dc <frame_dummy+0x18>)
 80002ce:	f3af 8000 	nop.w
 80002d2:	bd08      	pop	{r3, pc}
 80002d4:	00000000 	.word	0x00000000
 80002d8:	240000dc 	.word	0x240000dc
 80002dc:	0800769c 	.word	0x0800769c

080002e0 <__aeabi_uldivmod>:
 80002e0:	b953      	cbnz	r3, 80002f8 <__aeabi_uldivmod+0x18>
 80002e2:	b94a      	cbnz	r2, 80002f8 <__aeabi_uldivmod+0x18>
 80002e4:	2900      	cmp	r1, #0
 80002e6:	bf08      	it	eq
 80002e8:	2800      	cmpeq	r0, #0
 80002ea:	bf1c      	itt	ne
 80002ec:	f04f 31ff 	movne.w	r1, #4294967295
 80002f0:	f04f 30ff 	movne.w	r0, #4294967295
 80002f4:	f000 b970 	b.w	80005d8 <__aeabi_idiv0>
 80002f8:	f1ad 0c08 	sub.w	ip, sp, #8
 80002fc:	e96d ce04 	strd	ip, lr, [sp, #-16]!
 8000300:	f000 f806 	bl	8000310 <__udivmoddi4>
 8000304:	f8dd e004 	ldr.w	lr, [sp, #4]
 8000308:	e9dd 2302 	ldrd	r2, r3, [sp, #8]
 800030c:	b004      	add	sp, #16
 800030e:	4770      	bx	lr

08000310 <__udivmoddi4>:
 8000310:	e92d 47f0 	stmdb	sp!, {r4, r5, r6, r7, r8, r9, sl, lr}
 8000314:	9e08      	ldr	r6, [sp, #32]
 8000316:	460d      	mov	r5, r1
 8000318:	4604      	mov	r4, r0
 800031a:	460f      	mov	r7, r1
 800031c:	2b00      	cmp	r3, #0
 800031e:	d14a      	bne.n	80003b6 <__udivmoddi4+0xa6>
 8000320:	428a      	cmp	r2, r1
 8000322:	4694      	mov	ip, r2
 8000324:	d965      	bls.n	80003f2 <__udivmoddi4+0xe2>
 8000326:	fab2 f382 	clz	r3, r2
 800032a:	b143      	cbz	r3, 800033e <__udivmoddi4+0x2e>
 800032c:	fa02 fc03 	lsl.w	ip, r2, r3
 8000330:	f1c3 0220 	rsb	r2, r3, #32
 8000334:	409f      	lsls	r7, r3
 8000336:	fa20 f202 	lsr.w	r2, r0, r2
 800033a:	4317      	orrs	r7, r2
 800033c:	409c      	lsls	r4, r3
 800033e:	ea4f 4e1c 	mov.w	lr, ip, lsr #16
 8000342:	fa1f f58c 	uxth.w	r5, ip
 8000346:	fbb7 f1fe 	udiv	r1, r7, lr
 800034a:	0c22      	lsrs	r2, r4, #16
 800034c:	fb0e 7711 	mls	r7, lr, r1, r7
 8000350:	ea42 4207 	orr.w	r2, r2, r7, lsl #16
 8000354:	fb01 f005 	mul.w	r0, r1, r5
 8000358:	4290      	cmp	r0, r2
 800035a:	d90a      	bls.n	8000372 <__udivmoddi4+0x62>
 800035c:	eb1c 0202 	adds.w	r2, ip, r2
 8000360:	f101 37ff 	add.w	r7, r1, #4294967295
 8000364:	f080 811c 	bcs.w	80005a0 <__udivmoddi4+0x290>
 8000368:	4290      	cmp	r0, r2
 800036a:	f240 8119 	bls.w	80005a0 <__udivmoddi4+0x290>
 800036e:	3902      	subs	r1, #2
 8000370:	4462      	add	r2, ip
 8000372:	1a12      	subs	r2, r2, r0
 8000374:	b2a4      	uxth	r4, r4
 8000376:	fbb2 f0fe 	udiv	r0, r2, lr
 800037a:	fb0e 2210 	mls	r2, lr, r0, r2
 800037e:	ea44 4402 	orr.w	r4, r4, r2, lsl #16
 8000382:	fb00 f505 	mul.w	r5, r0, r5
 8000386:	42a5      	cmp	r5, r4
 8000388:	d90a      	bls.n	80003a0 <__udivmoddi4+0x90>
 800038a:	eb1c 0404 	adds.w	r4, ip, r4
 800038e:	f100 32ff 	add.w	r2, r0, #4294967295
 8000392:	f080 8107 	bcs.w	80005a4 <__udivmoddi4+0x294>
 8000396:	42a5      	cmp	r5, r4
 8000398:	f240 8104 	bls.w	80005a4 <__udivmoddi4+0x294>
 800039c:	4464      	add	r4, ip
 800039e:	3802      	subs	r0, #2
 80003a0:	ea40 4001 	orr.w	r0, r0, r1, lsl #16
 80003a4:	1b64      	subs	r4, r4, r5
 80003a6:	2100      	movs	r1, #0
 80003a8:	b11e      	cbz	r6, 80003b2 <__udivmoddi4+0xa2>
 80003aa:	40dc      	lsrs	r4, r3
 80003ac:	2300      	movs	r3, #0
 80003ae:	e9c6 4300 	strd	r4, r3, [r6]
 80003b2:	e8bd 87f0 	ldmia.w	sp!, {r4, r5, r6, r7, r8, r9, sl, pc}
 80003b6:	428b      	cmp	r3, r1
 80003b8:	d908      	bls.n	80003cc <__udivmoddi4+0xbc>
 80003ba:	2e00      	cmp	r6, #0
 80003bc:	f000 80ed 	beq.w	800059a <__udivmoddi4+0x28a>
 80003c0:	2100      	movs	r1, #0
 80003c2:	e9c6 0500 	strd	r0, r5, [r6]
 80003c6:	4608      	mov	r0, r1
 80003c8:	e8bd 87f0 	ldmia.w	sp!, {r4, r5, r6, r7, r8, r9, sl, pc}
 80003cc:	fab3 f183 	clz	r1, r3
 80003d0:	2900      	cmp	r1, #0
 80003d2:	d149      	bne.n	8000468 <__udivmoddi4+0x158>
 80003d4:	42ab      	cmp	r3, r5
 80003d6:	d302      	bcc.n	80003de <__udivmoddi4+0xce>
 80003d8:	4282      	cmp	r2, r0
 80003da:	f200 80f8 	bhi.w	80005ce <__udivmoddi4+0x2be>
 80003de:	1a84      	subs	r4, r0, r2
 80003e0:	eb65 0203 	sbc.w	r2, r5, r3
 80003e4:	2001      	movs	r0, #1
 80003e6:	4617      	mov	r7, r2
 80003e8:	2e00      	cmp	r6, #0
 80003ea:	d0e2      	beq.n	80003b2 <__udivmoddi4+0xa2>
 80003ec:	e9c6 4700 	strd	r4, r7, [r6]
 80003f0:	e7df      	b.n	80003b2 <__udivmoddi4+0xa2>
 80003f2:	b902      	cbnz	r2, 80003f6 <__udivmoddi4+0xe6>
 80003f4:	deff      	udf	#255	; 0xff
 80003f6:	fab2 f382 	clz	r3, r2
 80003fa:	2b00      	cmp	r3, #0
 80003fc:	f040 8090 	bne.w	8000520 <__udivmoddi4+0x210>
 8000400:	1a8a      	subs	r2, r1, r2
 8000402:	ea4f 471c 	mov.w	r7, ip, lsr #16
 8000406:	fa1f fe8c 	uxth.w	lr, ip
 800040a:	2101      	movs	r1, #1
 800040c:	fbb2 f5f7 	udiv	r5, r2, r7
 8000410:	fb07 2015 	mls	r0, r7, r5, r2
 8000414:	0c22      	lsrs	r2, r4, #16
 8000416:	ea42 4200 	orr.w	r2, r2, r0, lsl #16
 800041a:	fb0e f005 	mul.w	r0, lr, r5
 800041e:	4290      	cmp	r0, r2
 8000420:	d908      	bls.n	8000434 <__udivmoddi4+0x124>
 8000422:	eb1c 0202 	adds.w	r2, ip, r2
 8000426:	f105 38ff 	add.w	r8, r5, #4294967295
 800042a:	d202      	bcs.n	8000432 <__udivmoddi4+0x122>
 800042c:	4290      	cmp	r0, r2
 800042e:	f200 80cb 	bhi.w	80005c8 <__udivmoddi4+0x2b8>
 8000432:	4645      	mov	r5, r8
 8000434:	1a12      	subs	r2, r2, r0
 8000436:	b2a4      	uxth	r4, r4
 8000438:	fbb2 f0f7 	udiv	r0, r2, r7
 800043c:	fb07 2210 	mls	r2, r7, r0, r2
 8000440:	ea44 4402 	orr.w	r4, r4, r2, lsl #16
 8000444:	fb0e fe00 	mul.w	lr, lr, r0
 8000448:	45a6      	cmp	lr, r4
 800044a:	d908      	bls.n	800045e <__udivmoddi4+0x14e>
 800044c:	eb1c 0404 	adds.w	r4, ip, r4
 8000450:	f100 32ff 	add.w	r2, r0, #4294967295
 8000454:	d202      	bcs.n	800045c <__udivmoddi4+0x14c>
 8000456:	45a6      	cmp	lr, r4
 8000458:	f200 80bb 	bhi.w	80005d2 <__udivmoddi4+0x2c2>
 800045c:	4610      	mov	r0, r2
 800045e:	eba4 040e 	sub.w	r4, r4, lr
 8000462:	ea40 4005 	orr.w	r0, r0, r5, lsl #16
 8000466:	e79f      	b.n	80003a8 <__udivmoddi4+0x98>
 8000468:	f1c1 0720 	rsb	r7, r1, #32
 800046c:	408b      	lsls	r3, r1
 800046e:	fa22 fc07 	lsr.w	ip, r2, r7
 8000472:	ea4c 0c03 	orr.w	ip, ip, r3
 8000476:	fa05 f401 	lsl.w	r4, r5, r1
 800047a:	fa20 f307 	lsr.w	r3, r0, r7
 800047e:	40fd      	lsrs	r5, r7
 8000480:	ea4f 491c 	mov.w	r9, ip, lsr #16
 8000484:	4323      	orrs	r3, r4
 8000486:	fbb5 f8f9 	udiv	r8, r5, r9
 800048a:	fa1f fe8c 	uxth.w	lr, ip
 800048e:	fb09 5518 	mls	r5, r9, r8, r5
 8000492:	0c1c      	lsrs	r4, r3, #16
 8000494:	ea44 4405 	orr.w	r4, r4, r5, lsl #16
 8000498:	fb08 f50e 	mul.w	r5, r8, lr
 800049c:	42a5      	cmp	r5, r4
 800049e:	fa02 f201 	lsl.w	r2, r2, r1
 80004a2:	fa00 f001 	lsl.w	r0, r0, r1
 80004a6:	d90b      	bls.n	80004c0 <__udivmoddi4+0x1b0>
 80004a8:	eb1c 0404 	adds.w	r4, ip, r4
 80004ac:	f108 3aff 	add.w	sl, r8, #4294967295
 80004b0:	f080 8088 	bcs.w	80005c4 <__udivmoddi4+0x2b4>
 80004b4:	42a5      	cmp	r5, r4
 80004b6:	f240 8085 	bls.w	80005c4 <__udivmoddi4+0x2b4>
 80004ba:	f1a8 0802 	sub.w	r8, r8, #2
 80004be:	4464      	add	r4, ip
 80004c0:	1b64      	subs	r4, r4, r5
 80004c2:	b29d      	uxth	r5, r3
 80004c4:	fbb4 f3f9 	udiv	r3, r4, r9
 80004c8:	fb09 4413 	mls	r4, r9, r3, r4
 80004cc:	ea45 4404 	orr.w	r4, r5, r4, lsl #16
 80004d0:	fb03 fe0e 	mul.w	lr, r3, lr
 80004d4:	45a6      	cmp	lr, r4
 80004d6:	d908      	bls.n	80004ea <__udivmoddi4+0x1da>
 80004d8:	eb1c 0404 	adds.w	r4, ip, r4
 80004dc:	f103 35ff 	add.w	r5, r3, #4294967295
 80004e0:	d26c      	bcs.n	80005bc <__udivmoddi4+0x2ac>
 80004e2:	45a6      	cmp	lr, r4
 80004e4:	d96a      	bls.n	80005bc <__udivmoddi4+0x2ac>
 80004e6:	3b02      	subs	r3, #2
 80004e8:	4464      	add	r4, ip
 80004ea:	ea43 4308 	orr.w	r3, r3, r8, lsl #16
 80004ee:	fba3 9502 	umull	r9, r5, r3, r2
 80004f2:	eba4 040e 	sub.w	r4, r4, lr
 80004f6:	42ac      	cmp	r4, r5
 80004f8:	46c8      	mov	r8, r9
 80004fa:	46ae      	mov	lr, r5
 80004fc:	d356      	bcc.n	80005ac <__udivmoddi4+0x29c>
 80004fe:	d053      	beq.n	80005a8 <__udivmoddi4+0x298>
 8000500:	b156      	cbz	r6, 8000518 <__udivmoddi4+0x208>
 8000502:	ebb0 0208 	subs.w	r2, r0, r8
 8000506:	eb64 040e 	sbc.w	r4, r4, lr
 800050a:	fa04 f707 	lsl.w	r7, r4, r7
 800050e:	40ca      	lsrs	r2, r1
 8000510:	40cc      	lsrs	r4, r1
 8000512:	4317      	orrs	r7, r2
 8000514:	e9c6 7400 	strd	r7, r4, [r6]
 8000518:	4618      	mov	r0, r3
 800051a:	2100      	movs	r1, #0
 800051c:	e8bd 87f0 	ldmia.w	sp!, {r4, r5, r6, r7, r8, r9, sl, pc}
 8000520:	f1c3 0120 	rsb	r1, r3, #32
 8000524:	fa02 fc03 	lsl.w	ip, r2, r3
 8000528:	fa20 f201 	lsr.w	r2, r0, r1
 800052c:	fa25 f101 	lsr.w	r1, r5, r1
 8000530:	409d      	lsls	r5, r3
 8000532:	432a      	orrs	r2, r5
 8000534:	ea4f 471c 	mov.w	r7, ip, lsr #16
 8000538:	fa1f fe8c 	uxth.w	lr, ip
 800053c:	fbb1 f0f7 	udiv	r0, r1, r7
 8000540:	fb07 1510 	mls	r5, r7, r0, r1
 8000544:	0c11      	lsrs	r1, r2, #16
 8000546:	ea41 4105 	orr.w	r1, r1, r5, lsl #16
 800054a:	fb00 f50e 	mul.w	r5, r0, lr
 800054e:	428d      	cmp	r5, r1
 8000550:	fa04 f403 	lsl.w	r4, r4, r3
 8000554:	d908      	bls.n	8000568 <__udivmoddi4+0x258>
 8000556:	eb1c 0101 	adds.w	r1, ip, r1
 800055a:	f100 38ff 	add.w	r8, r0, #4294967295
 800055e:	d22f      	bcs.n	80005c0 <__udivmoddi4+0x2b0>
 8000560:	428d      	cmp	r5, r1
 8000562:	d92d      	bls.n	80005c0 <__udivmoddi4+0x2b0>
 8000564:	3802      	subs	r0, #2
 8000566:	4461      	add	r1, ip
 8000568:	1b49      	subs	r1, r1, r5
 800056a:	b292      	uxth	r2, r2
 800056c:	fbb1 f5f7 	udiv	r5, r1, r7
 8000570:	fb07 1115 	mls	r1, r7, r5, r1
 8000574:	ea42 4201 	orr.w	r2, r2, r1, lsl #16
 8000578:	fb05 f10e 	mul.w	r1, r5, lr
 800057c:	4291      	cmp	r1, r2
 800057e:	d908      	bls.n	8000592 <__udivmoddi4+0x282>
 8000580:	eb1c 0202 	adds.w	r2, ip, r2
 8000584:	f105 38ff 	add.w	r8, r5, #4294967295
 8000588:	d216      	bcs.n	80005b8 <__udivmoddi4+0x2a8>
 800058a:	4291      	cmp	r1, r2
 800058c:	d914      	bls.n	80005b8 <__udivmoddi4+0x2a8>
 800058e:	3d02      	subs	r5, #2
 8000590:	4462      	add	r2, ip
 8000592:	1a52      	subs	r2, r2, r1
 8000594:	ea45 4100 	orr.w	r1, r5, r0, lsl #16
 8000598:	e738      	b.n	800040c <__udivmoddi4+0xfc>
 800059a:	4631      	mov	r1, r6
 800059c:	4630      	mov	r0, r6
 800059e:	e708      	b.n	80003b2 <__udivmoddi4+0xa2>
 80005a0:	4639      	mov	r1, r7
 80005a2:	e6e6      	b.n	8000372 <__udivmoddi4+0x62>
 80005a4:	4610      	mov	r0, r2
 80005a6:	e6fb      	b.n	80003a0 <__udivmoddi4+0x90>
 80005a8:	4548      	cmp	r0, r9
 80005aa:	d2a9      	bcs.n	8000500 <__udivmoddi4+0x1f0>
 80005ac:	ebb9 0802 	subs.w	r8, r9, r2
 80005b0:	eb65 0e0c 	sbc.w	lr, r5, ip
 80005b4:	3b01      	subs	r3, #1
 80005b6:	e7a3      	b.n	8000500 <__udivmoddi4+0x1f0>
 80005b8:	4645      	mov	r5, r8
 80005ba:	e7ea      	b.n	8000592 <__udivmoddi4+0x282>
 80005bc:	462b      	mov	r3, r5
 80005be:	e794      	b.n	80004ea <__udivmoddi4+0x1da>
 80005c0:	4640      	mov	r0, r8
 80005c2:	e7d1      	b.n	8000568 <__udivmoddi4+0x258>
 80005c4:	46d0      	mov	r8, sl
 80005c6:	e77b      	b.n	80004c0 <__udivmoddi4+0x1b0>
 80005c8:	3d02      	subs	r5, #2
 80005ca:	4462      	add	r2, ip
 80005cc:	e732      	b.n	8000434 <__udivmoddi4+0x124>
 80005ce:	4608      	mov	r0, r1
 80005d0:	e70a      	b.n	80003e8 <__udivmoddi4+0xd8>
 80005d2:	4464      	add	r4, ip
 80005d4:	3802      	subs	r0, #2
 80005d6:	e742      	b.n	800045e <__udivmoddi4+0x14e>

080005d8 <__aeabi_idiv0>:
 80005d8:	4770      	bx	lr
 80005da:	bf00      	nop

080005dc <MX_ETH_Init>:
 80005dc:	4814      	ldr	r0, [pc, #80]	; (8000630 <MX_ETH_Init+0x54>)
 80005de:	2180      	movs	r1, #128	; 0x80
 80005e0:	4b14      	ldr	r3, [pc, #80]	; (8000634 <MX_ETH_Init+0x58>)
 80005e2:	2200      	movs	r2, #0
 80005e4:	b510      	push	{r4, lr}
 80005e6:	6003      	str	r3, [r0, #0]
 80005e8:	4b13      	ldr	r3, [pc, #76]	; (8000638 <MX_ETH_Init+0x5c>)
 80005ea:	7059      	strb	r1, [r3, #1]
 80005ec:	21e1      	movs	r1, #225	; 0xe1
 80005ee:	701a      	strb	r2, [r3, #0]
 80005f0:	7099      	strb	r1, [r3, #2]
 80005f2:	70da      	strb	r2, [r3, #3]
 80005f4:	711a      	strb	r2, [r3, #4]
 80005f6:	715a      	strb	r2, [r3, #5]
 80005f8:	6043      	str	r3, [r0, #4]
 80005fa:	2301      	movs	r3, #1
 80005fc:	7203      	strb	r3, [r0, #8]
 80005fe:	4b0f      	ldr	r3, [pc, #60]	; (800063c <MX_ETH_Init+0x60>)
 8000600:	60c3      	str	r3, [r0, #12]
 8000602:	4b0f      	ldr	r3, [pc, #60]	; (8000640 <MX_ETH_Init+0x64>)
 8000604:	6103      	str	r3, [r0, #16]
 8000606:	f240 53f4 	movw	r3, #1524	; 0x5f4
 800060a:	6143      	str	r3, [r0, #20]
 800060c:	f000 fe74 	bl	80012f8 <HAL_ETH_Init>
 8000610:	b108      	cbz	r0, 8000616 <MX_ETH_Init+0x3a>
 8000612:	f000 fa8d 	bl	8000b30 <Error_Handler>
 8000616:	4c0b      	ldr	r4, [pc, #44]	; (8000644 <MX_ETH_Init+0x68>)
 8000618:	2234      	movs	r2, #52	; 0x34
 800061a:	2100      	movs	r1, #0
 800061c:	1d20      	adds	r0, r4, #4
 800061e:	f007 f803 	bl	8007628 <memset>
 8000622:	2321      	movs	r3, #33	; 0x21
 8000624:	6023      	str	r3, [r4, #0]
 8000626:	f44f 3340 	mov.w	r3, #196608	; 0x30000
 800062a:	6163      	str	r3, [r4, #20]
 800062c:	bd10      	pop	{r4, pc}
 800062e:	bf00      	nop
 8000630:	24000134 	.word	0x24000134
 8000634:	40028000 	.word	0x40028000
 8000638:	240000f4 	.word	0x240000f4
 800063c:	24000078 	.word	0x24000078
 8000640:	24000018 	.word	0x24000018
 8000644:	240000fc 	.word	0x240000fc

08000648 <HAL_ETH_MspInit>:
 8000648:	b570      	push	{r4, r5, r6, lr}
 800064a:	b08c      	sub	sp, #48	; 0x30
 800064c:	4604      	mov	r4, r0
 800064e:	2214      	movs	r2, #20
 8000650:	2100      	movs	r1, #0
 8000652:	a807      	add	r0, sp, #28
 8000654:	f006 ffe8 	bl	8007628 <memset>
 8000658:	6822      	ldr	r2, [r4, #0]
 800065a:	4b42      	ldr	r3, [pc, #264]	; (8000764 <HAL_ETH_MspInit+0x11c>)
 800065c:	429a      	cmp	r2, r3
 800065e:	d17f      	bne.n	8000760 <HAL_ETH_MspInit+0x118>
 8000660:	4b41      	ldr	r3, [pc, #260]	; (8000768 <HAL_ETH_MspInit+0x120>)
 8000662:	2602      	movs	r6, #2
 8000664:	250b      	movs	r5, #11
 8000666:	a907      	add	r1, sp, #28
 8000668:	f8d3 20d8 	ldr.w	r2, [r3, #216]	; 0xd8
 800066c:	2400      	movs	r4, #0
 800066e:	483f      	ldr	r0, [pc, #252]	; (800076c <HAL_ETH_MspInit+0x124>)
 8000670:	f442 4200 	orr.w	r2, r2, #32768	; 0x8000
 8000674:	f8c3 20d8 	str.w	r2, [r3, #216]	; 0xd8
 8000678:	f8d3 20d8 	ldr.w	r2, [r3, #216]	; 0xd8
 800067c:	f402 4200 	and.w	r2, r2, #32768	; 0x8000
 8000680:	9200      	str	r2, [sp, #0]
 8000682:	9a00      	ldr	r2, [sp, #0]
 8000684:	f8d3 20d8 	ldr.w	r2, [r3, #216]	; 0xd8
 8000688:	f442 3280 	orr.w	r2, r2, #65536	; 0x10000
 800068c:	f8c3 20d8 	str.w	r2, [r3, #216]	; 0xd8
 8000690:	f8d3 20d8 	ldr.w	r2, [r3, #216]	; 0xd8
 8000694:	f402 3280 	and.w	r2, r2, #65536	; 0x10000
 8000698:	9201      	str	r2, [sp, #4]
 800069a:	9a01      	ldr	r2, [sp, #4]
 800069c:	f8d3 20d8 	ldr.w	r2, [r3, #216]	; 0xd8
 80006a0:	f442 3200 	orr.w	r2, r2, #131072	; 0x20000
 80006a4:	f8c3 20d8 	str.w	r2, [r3, #216]	; 0xd8
 80006a8:	f8d3 20d8 	ldr.w	r2, [r3, #216]	; 0xd8
 80006ac:	f402 3200 	and.w	r2, r2, #131072	; 0x20000
 80006b0:	9202      	str	r2, [sp, #8]
 80006b2:	9a02      	ldr	r2, [sp, #8]
 80006b4:	f8d3 20e0 	ldr.w	r2, [r3, #224]	; 0xe0
 80006b8:	f042 0204 	orr.w	r2, r2, #4
 80006bc:	f8c3 20e0 	str.w	r2, [r3, #224]	; 0xe0
 80006c0:	f8d3 20e0 	ldr.w	r2, [r3, #224]	; 0xe0
 80006c4:	f002 0204 	and.w	r2, r2, #4
 80006c8:	9203      	str	r2, [sp, #12]
 80006ca:	9a03      	ldr	r2, [sp, #12]
 80006cc:	f8d3 20e0 	ldr.w	r2, [r3, #224]	; 0xe0
 80006d0:	f042 0201 	orr.w	r2, r2, #1
 80006d4:	f8c3 20e0 	str.w	r2, [r3, #224]	; 0xe0
 80006d8:	f8d3 20e0 	ldr.w	r2, [r3, #224]	; 0xe0
 80006dc:	f002 0201 	and.w	r2, r2, #1
 80006e0:	9204      	str	r2, [sp, #16]
 80006e2:	9a04      	ldr	r2, [sp, #16]
 80006e4:	f8d3 20e0 	ldr.w	r2, [r3, #224]	; 0xe0
 80006e8:	f042 0202 	orr.w	r2, r2, #2
 80006ec:	f8c3 20e0 	str.w	r2, [r3, #224]	; 0xe0
 80006f0:	f8d3 20e0 	ldr.w	r2, [r3, #224]	; 0xe0
 80006f4:	f002 0202 	and.w	r2, r2, #2
 80006f8:	9205      	str	r2, [sp, #20]
 80006fa:	9a05      	ldr	r2, [sp, #20]
 80006fc:	f8d3 20e0 	ldr.w	r2, [r3, #224]	; 0xe0
 8000700:	f042 0240 	orr.w	r2, r2, #64	; 0x40
 8000704:	f8c3 20e0 	str.w	r2, [r3, #224]	; 0xe0
 8000708:	f8d3 30e0 	ldr.w	r3, [r3, #224]	; 0xe0
 800070c:	950b      	str	r5, [sp, #44]	; 0x2c
 800070e:	f003 0340 	and.w	r3, r3, #64	; 0x40
 8000712:	9306      	str	r3, [sp, #24]
 8000714:	9b06      	ldr	r3, [sp, #24]
 8000716:	2332      	movs	r3, #50	; 0x32
 8000718:	e9cd 3607 	strd	r3, r6, [sp, #28]
 800071c:	f000 fefa 	bl	8001514 <HAL_GPIO_Init>
 8000720:	2386      	movs	r3, #134	; 0x86
 8000722:	a907      	add	r1, sp, #28
 8000724:	4812      	ldr	r0, [pc, #72]	; (8000770 <HAL_ETH_MspInit+0x128>)
 8000726:	950b      	str	r5, [sp, #44]	; 0x2c
 8000728:	e9cd 3607 	strd	r3, r6, [sp, #28]
 800072c:	e9cd 4409 	strd	r4, r4, [sp, #36]	; 0x24
 8000730:	f000 fef0 	bl	8001514 <HAL_GPIO_Init>
 8000734:	f44f 5300 	mov.w	r3, #8192	; 0x2000
 8000738:	a907      	add	r1, sp, #28
 800073a:	480e      	ldr	r0, [pc, #56]	; (8000774 <HAL_ETH_MspInit+0x12c>)
 800073c:	950b      	str	r5, [sp, #44]	; 0x2c
 800073e:	e9cd 3607 	strd	r3, r6, [sp, #28]
 8000742:	e9cd 4409 	strd	r4, r4, [sp, #36]	; 0x24
 8000746:	f000 fee5 	bl	8001514 <HAL_GPIO_Init>
 800074a:	f44f 5320 	mov.w	r3, #10240	; 0x2800
 800074e:	a907      	add	r1, sp, #28
 8000750:	4809      	ldr	r0, [pc, #36]	; (8000778 <HAL_ETH_MspInit+0x130>)
 8000752:	950b      	str	r5, [sp, #44]	; 0x2c
 8000754:	e9cd 3607 	strd	r3, r6, [sp, #28]
 8000758:	e9cd 4409 	strd	r4, r4, [sp, #36]	; 0x24
 800075c:	f000 feda 	bl	8001514 <HAL_GPIO_Init>
 8000760:	b00c      	add	sp, #48	; 0x30
 8000762:	bd70      	pop	{r4, r5, r6, pc}
 8000764:	40028000 	.word	0x40028000
 8000768:	58024400 	.word	0x58024400
 800076c:	58020800 	.word	0x58020800
 8000770:	58020000 	.word	0x58020000
 8000774:	58020400 	.word	0x58020400
 8000778:	58021800 	.word	0x58021800

0800077c <StartDefaultTask>:
 800077c:	b508      	push	{r3, lr}
 800077e:	2001      	movs	r0, #1
 8000780:	f003 ff8d 	bl	800469e <osDelay>
 8000784:	e7fb      	b.n	800077e <StartDefaultTask+0x2>
	...

08000788 <StartAccMeassureTask>:
 8000788:	b570      	push	{r4, r5, r6, lr}
 800078a:	4e12      	ldr	r6, [pc, #72]	; (80007d4 <StartAccMeassureTask+0x4c>)
 800078c:	b086      	sub	sp, #24
 800078e:	4d12      	ldr	r5, [pc, #72]	; (80007d8 <StartAccMeassureTask+0x50>)
 8000790:	466c      	mov	r4, sp
 8000792:	cd0f      	ldmia	r5!, {r0, r1, r2, r3}
 8000794:	c40f      	stmia	r4!, {r0, r1, r2, r3}
 8000796:	682b      	ldr	r3, [r5, #0]
 8000798:	6023      	str	r3, [r4, #0]
 800079a:	e896 000f 	ldmia.w	r6, {r0, r1, r2, r3}
 800079e:	f006 fe95 	bl	80074cc <BMI160_init>
 80007a2:	2801      	cmp	r0, #1
 80007a4:	d0f3      	beq.n	800078e <StartAccMeassureTask+0x6>
 80007a6:	f996 3020 	ldrsb.w	r3, [r6, #32]
 80007aa:	2b01      	cmp	r3, #1
 80007ac:	d004      	beq.n	80007b8 <StartAccMeassureTask+0x30>
 80007ae:	2201      	movs	r2, #1
 80007b0:	2180      	movs	r1, #128	; 0x80
 80007b2:	480a      	ldr	r0, [pc, #40]	; (80007dc <StartAccMeassureTask+0x54>)
 80007b4:	f000 ff98 	bl	80016e8 <HAL_GPIO_WritePin>
 80007b8:	4d08      	ldr	r5, [pc, #32]	; (80007dc <StartAccMeassureTask+0x54>)
 80007ba:	4c06      	ldr	r4, [pc, #24]	; (80007d4 <StartAccMeassureTask+0x4c>)
 80007bc:	f44f 4180 	mov.w	r1, #16384	; 0x4000
 80007c0:	4628      	mov	r0, r5
 80007c2:	f000 ff96 	bl	80016f2 <HAL_GPIO_TogglePin>
 80007c6:	4620      	mov	r0, r4
 80007c8:	f006 fd9c 	bl	8007304 <bmi160ReadAccelGyro>
 80007cc:	2005      	movs	r0, #5
 80007ce:	f003 ff66 	bl	800469e <osDelay>
 80007d2:	e7f3      	b.n	80007bc <StartAccMeassureTask+0x34>
 80007d4:	240001ec 	.word	0x240001ec
 80007d8:	240001fc 	.word	0x240001fc
 80007dc:	58020400 	.word	0x58020400

080007e0 <MX_FREERTOS_Init>:
 80007e0:	b508      	push	{r3, lr}
 80007e2:	4a07      	ldr	r2, [pc, #28]	; (8000800 <MX_FREERTOS_Init+0x20>)
 80007e4:	2100      	movs	r1, #0
 80007e6:	4807      	ldr	r0, [pc, #28]	; (8000804 <MX_FREERTOS_Init+0x24>)
 80007e8:	f003 ff12 	bl	8004610 <osThreadNew>
 80007ec:	4b06      	ldr	r3, [pc, #24]	; (8000808 <MX_FREERTOS_Init+0x28>)
 80007ee:	4a07      	ldr	r2, [pc, #28]	; (800080c <MX_FREERTOS_Init+0x2c>)
 80007f0:	2100      	movs	r1, #0
 80007f2:	6018      	str	r0, [r3, #0]
 80007f4:	4806      	ldr	r0, [pc, #24]	; (8000810 <MX_FREERTOS_Init+0x30>)
 80007f6:	f003 ff0b 	bl	8004610 <osThreadNew>
 80007fa:	4b06      	ldr	r3, [pc, #24]	; (8000814 <MX_FREERTOS_Init+0x34>)
 80007fc:	6018      	str	r0, [r3, #0]
 80007fe:	bd08      	pop	{r3, pc}
 8000800:	080076f4 	.word	0x080076f4
 8000804:	0800077d 	.word	0x0800077d
 8000808:	240001e8 	.word	0x240001e8
 800080c:	080076d0 	.word	0x080076d0
 8000810:	08000789 	.word	0x08000789
 8000814:	240001e4 	.word	0x240001e4

08000818 <MX_GPIO_Init>:
 8000818:	b5f0      	push	{r4, r5, r6, r7, lr}
 800081a:	b08d      	sub	sp, #52	; 0x34
 800081c:	2214      	movs	r2, #20
 800081e:	2100      	movs	r1, #0
 8000820:	4f47      	ldr	r7, [pc, #284]	; (8000940 <MX_GPIO_Init+0x128>)
 8000822:	a807      	add	r0, sp, #28
 8000824:	4d47      	ldr	r5, [pc, #284]	; (8000944 <MX_GPIO_Init+0x12c>)
 8000826:	f006 feff 	bl	8007628 <memset>
 800082a:	4b47      	ldr	r3, [pc, #284]	; (8000948 <MX_GPIO_Init+0x130>)
 800082c:	4638      	mov	r0, r7
 800082e:	f44f 4181 	mov.w	r1, #16512	; 0x4080
 8000832:	f8d3 20e0 	ldr.w	r2, [r3, #224]	; 0xe0
 8000836:	2400      	movs	r4, #0
 8000838:	2601      	movs	r6, #1
 800083a:	f042 0204 	orr.w	r2, r2, #4
 800083e:	f8c3 20e0 	str.w	r2, [r3, #224]	; 0xe0
 8000842:	f8d3 20e0 	ldr.w	r2, [r3, #224]	; 0xe0
 8000846:	f002 0204 	and.w	r2, r2, #4
 800084a:	9200      	str	r2, [sp, #0]
 800084c:	9a00      	ldr	r2, [sp, #0]
 800084e:	f8d3 20e0 	ldr.w	r2, [r3, #224]	; 0xe0
 8000852:	f042 0220 	orr.w	r2, r2, #32
 8000856:	f8c3 20e0 	str.w	r2, [r3, #224]	; 0xe0
 800085a:	f8d3 20e0 	ldr.w	r2, [r3, #224]	; 0xe0
 800085e:	f002 0220 	and.w	r2, r2, #32
 8000862:	9201      	str	r2, [sp, #4]
 8000864:	9a01      	ldr	r2, [sp, #4]
 8000866:	f8d3 20e0 	ldr.w	r2, [r3, #224]	; 0xe0
 800086a:	f042 0280 	orr.w	r2, r2, #128	; 0x80
 800086e:	f8c3 20e0 	str.w	r2, [r3, #224]	; 0xe0
 8000872:	f8d3 20e0 	ldr.w	r2, [r3, #224]	; 0xe0
 8000876:	f002 0280 	and.w	r2, r2, #128	; 0x80
 800087a:	9202      	str	r2, [sp, #8]
 800087c:	9a02      	ldr	r2, [sp, #8]
 800087e:	f8d3 20e0 	ldr.w	r2, [r3, #224]	; 0xe0
 8000882:	f042 0201 	orr.w	r2, r2, #1
 8000886:	f8c3 20e0 	str.w	r2, [r3, #224]	; 0xe0
 800088a:	f8d3 20e0 	ldr.w	r2, [r3, #224]	; 0xe0
 800088e:	f002 0201 	and.w	r2, r2, #1
 8000892:	9203      	str	r2, [sp, #12]
 8000894:	9a03      	ldr	r2, [sp, #12]
 8000896:	f8d3 20e0 	ldr.w	r2, [r3, #224]	; 0xe0
 800089a:	f042 0202 	orr.w	r2, r2, #2
 800089e:	f8c3 20e0 	str.w	r2, [r3, #224]	; 0xe0
 80008a2:	f8d3 20e0 	ldr.w	r2, [r3, #224]	; 0xe0
 80008a6:	f002 0202 	and.w	r2, r2, #2
 80008aa:	9204      	str	r2, [sp, #16]
 80008ac:	9a04      	ldr	r2, [sp, #16]
 80008ae:	f8d3 20e0 	ldr.w	r2, [r3, #224]	; 0xe0
 80008b2:	f042 0208 	orr.w	r2, r2, #8
 80008b6:	f8c3 20e0 	str.w	r2, [r3, #224]	; 0xe0
 80008ba:	f8d3 20e0 	ldr.w	r2, [r3, #224]	; 0xe0
 80008be:	f002 0208 	and.w	r2, r2, #8
 80008c2:	9205      	str	r2, [sp, #20]
 80008c4:	9a05      	ldr	r2, [sp, #20]
 80008c6:	f8d3 20e0 	ldr.w	r2, [r3, #224]	; 0xe0
 80008ca:	f042 0240 	orr.w	r2, r2, #64	; 0x40
 80008ce:	f8c3 20e0 	str.w	r2, [r3, #224]	; 0xe0
 80008d2:	2200      	movs	r2, #0
 80008d4:	f8d3 30e0 	ldr.w	r3, [r3, #224]	; 0xe0
 80008d8:	f003 0340 	and.w	r3, r3, #64	; 0x40
 80008dc:	9306      	str	r3, [sp, #24]
 80008de:	9b06      	ldr	r3, [sp, #24]
 80008e0:	f000 ff02 	bl	80016e8 <HAL_GPIO_WritePin>
 80008e4:	4628      	mov	r0, r5
 80008e6:	2200      	movs	r2, #0
 80008e8:	2140      	movs	r1, #64	; 0x40
 80008ea:	f000 fefd 	bl	80016e8 <HAL_GPIO_WritePin>
 80008ee:	f44f 5200 	mov.w	r2, #8192	; 0x2000
 80008f2:	f44f 1388 	mov.w	r3, #1114112	; 0x110000
 80008f6:	a907      	add	r1, sp, #28
 80008f8:	4814      	ldr	r0, [pc, #80]	; (800094c <MX_GPIO_Init+0x134>)
 80008fa:	9409      	str	r4, [sp, #36]	; 0x24
 80008fc:	e9cd 2307 	strd	r2, r3, [sp, #28]
 8000900:	f000 fe08 	bl	8001514 <HAL_GPIO_Init>
 8000904:	f44f 4381 	mov.w	r3, #16512	; 0x4080
 8000908:	a907      	add	r1, sp, #28
 800090a:	4638      	mov	r0, r7
 800090c:	e9cd 3607 	strd	r3, r6, [sp, #28]
 8000910:	e9cd 4409 	strd	r4, r4, [sp, #36]	; 0x24
 8000914:	f000 fdfe 	bl	8001514 <HAL_GPIO_Init>
 8000918:	2340      	movs	r3, #64	; 0x40
 800091a:	a907      	add	r1, sp, #28
 800091c:	4628      	mov	r0, r5
 800091e:	e9cd 3607 	strd	r3, r6, [sp, #28]
 8000922:	e9cd 4409 	strd	r4, r4, [sp, #36]	; 0x24
 8000926:	f000 fdf5 	bl	8001514 <HAL_GPIO_Init>
 800092a:	2380      	movs	r3, #128	; 0x80
 800092c:	a907      	add	r1, sp, #28
 800092e:	4628      	mov	r0, r5
 8000930:	9409      	str	r4, [sp, #36]	; 0x24
 8000932:	e9cd 3407 	strd	r3, r4, [sp, #28]
 8000936:	f000 fded 	bl	8001514 <HAL_GPIO_Init>
 800093a:	b00d      	add	sp, #52	; 0x34
 800093c:	bdf0      	pop	{r4, r5, r6, r7, pc}
 800093e:	bf00      	nop
 8000940:	58020400 	.word	0x58020400
 8000944:	58021800 	.word	0x58021800
 8000948:	58024400 	.word	0x58024400
 800094c:	58020800 	.word	0x58020800

08000950 <MX_I2C2_Init>:
 8000950:	b508      	push	{r3, lr}
 8000952:	4813      	ldr	r0, [pc, #76]	; (80009a0 <MX_I2C2_Init+0x50>)
 8000954:	4a13      	ldr	r2, [pc, #76]	; (80009a4 <MX_I2C2_Init+0x54>)
 8000956:	4b14      	ldr	r3, [pc, #80]	; (80009a8 <MX_I2C2_Init+0x58>)
 8000958:	e9c0 2300 	strd	r2, r3, [r0]
 800095c:	2300      	movs	r3, #0
 800095e:	2201      	movs	r2, #1
 8000960:	e9c0 3304 	strd	r3, r3, [r0, #16]
 8000964:	e9c0 3202 	strd	r3, r2, [r0, #8]
 8000968:	e9c0 3306 	strd	r3, r3, [r0, #24]
 800096c:	6203      	str	r3, [r0, #32]
 800096e:	f001 f83e 	bl	80019ee <HAL_I2C_Init>
 8000972:	b108      	cbz	r0, 8000978 <MX_I2C2_Init+0x28>
 8000974:	f000 f8dc 	bl	8000b30 <Error_Handler>
 8000978:	2100      	movs	r1, #0
 800097a:	4809      	ldr	r0, [pc, #36]	; (80009a0 <MX_I2C2_Init+0x50>)
 800097c:	f001 f9b6 	bl	8001cec <HAL_I2CEx_ConfigAnalogFilter>
 8000980:	b108      	cbz	r0, 8000986 <MX_I2C2_Init+0x36>
 8000982:	f000 f8d5 	bl	8000b30 <Error_Handler>
 8000986:	2100      	movs	r1, #0
 8000988:	4805      	ldr	r0, [pc, #20]	; (80009a0 <MX_I2C2_Init+0x50>)
 800098a:	f001 f9d5 	bl	8001d38 <HAL_I2CEx_ConfigDigitalFilter>
 800098e:	b108      	cbz	r0, 8000994 <MX_I2C2_Init+0x44>
 8000990:	f000 f8ce 	bl	8000b30 <Error_Handler>
 8000994:	2002      	movs	r0, #2
 8000996:	e8bd 4008 	ldmia.w	sp!, {r3, lr}
 800099a:	f001 b9f3 	b.w	8001d84 <HAL_I2CEx_EnableFastModePlus>
 800099e:	bf00      	nop
 80009a0:	24000210 	.word	0x24000210
 80009a4:	40005800 	.word	0x40005800
 80009a8:	0040163a 	.word	0x0040163a

080009ac <HAL_I2C_MspInit>:
 80009ac:	b510      	push	{r4, lr}
 80009ae:	b0b8      	sub	sp, #224	; 0xe0
 80009b0:	4604      	mov	r4, r0
 80009b2:	2214      	movs	r2, #20
 80009b4:	2100      	movs	r1, #0
 80009b6:	a803      	add	r0, sp, #12
 80009b8:	f006 fe36 	bl	8007628 <memset>
 80009bc:	22c0      	movs	r2, #192	; 0xc0
 80009be:	2100      	movs	r1, #0
 80009c0:	a808      	add	r0, sp, #32
 80009c2:	f006 fe31 	bl	8007628 <memset>
 80009c6:	6822      	ldr	r2, [r4, #0]
 80009c8:	4b1a      	ldr	r3, [pc, #104]	; (8000a34 <HAL_I2C_MspInit+0x88>)
 80009ca:	429a      	cmp	r2, r3
 80009cc:	d12f      	bne.n	8000a2e <HAL_I2C_MspInit+0x82>
 80009ce:	2208      	movs	r2, #8
 80009d0:	2300      	movs	r3, #0
 80009d2:	a808      	add	r0, sp, #32
 80009d4:	e9cd 2308 	strd	r2, r3, [sp, #32]
 80009d8:	f002 f888 	bl	8002aec <HAL_RCCEx_PeriphCLKConfig>
 80009dc:	b108      	cbz	r0, 80009e2 <HAL_I2C_MspInit+0x36>
 80009de:	f000 f8a7 	bl	8000b30 <Error_Handler>
 80009e2:	4c15      	ldr	r4, [pc, #84]	; (8000a38 <HAL_I2C_MspInit+0x8c>)
 80009e4:	2203      	movs	r2, #3
 80009e6:	a903      	add	r1, sp, #12
 80009e8:	4814      	ldr	r0, [pc, #80]	; (8000a3c <HAL_I2C_MspInit+0x90>)
 80009ea:	f8d4 30e0 	ldr.w	r3, [r4, #224]	; 0xe0
 80009ee:	f043 0320 	orr.w	r3, r3, #32
 80009f2:	f8c4 30e0 	str.w	r3, [r4, #224]	; 0xe0
 80009f6:	f8d4 30e0 	ldr.w	r3, [r4, #224]	; 0xe0
 80009fa:	f003 0320 	and.w	r3, r3, #32
 80009fe:	9301      	str	r3, [sp, #4]
 8000a00:	9b01      	ldr	r3, [sp, #4]
 8000a02:	2312      	movs	r3, #18
 8000a04:	e9cd 2303 	strd	r2, r3, [sp, #12]
 8000a08:	2300      	movs	r3, #0
 8000a0a:	e9cd 3305 	strd	r3, r3, [sp, #20]
 8000a0e:	2304      	movs	r3, #4
 8000a10:	9307      	str	r3, [sp, #28]
 8000a12:	f000 fd7f 	bl	8001514 <HAL_GPIO_Init>
 8000a16:	f8d4 30e8 	ldr.w	r3, [r4, #232]	; 0xe8
 8000a1a:	f443 0380 	orr.w	r3, r3, #4194304	; 0x400000
 8000a1e:	f8c4 30e8 	str.w	r3, [r4, #232]	; 0xe8
 8000a22:	f8d4 30e8 	ldr.w	r3, [r4, #232]	; 0xe8
 8000a26:	f403 0380 	and.w	r3, r3, #4194304	; 0x400000
 8000a2a:	9302      	str	r3, [sp, #8]
 8000a2c:	9b02      	ldr	r3, [sp, #8]
 8000a2e:	b038      	add	sp, #224	; 0xe0
 8000a30:	bd10      	pop	{r4, pc}
 8000a32:	bf00      	nop
 8000a34:	40005800 	.word	0x40005800
 8000a38:	58024400 	.word	0x58024400
 8000a3c:	58021400 	.word	0x58021400

08000a40 <SystemClock_Config>:
 8000a40:	b510      	push	{r4, lr}
 8000a42:	b09c      	sub	sp, #112	; 0x70
 8000a44:	224c      	movs	r2, #76	; 0x4c
 8000a46:	2100      	movs	r1, #0
 8000a48:	a809      	add	r0, sp, #36	; 0x24
 8000a4a:	f006 fded 	bl	8007628 <memset>
 8000a4e:	2220      	movs	r2, #32
 8000a50:	2100      	movs	r1, #0
 8000a52:	a801      	add	r0, sp, #4
 8000a54:	f006 fde8 	bl	8007628 <memset>
 8000a58:	2002      	movs	r0, #2
 8000a5a:	f001 fa47 	bl	8001eec <HAL_PWREx_ConfigSupply>
 8000a5e:	2300      	movs	r3, #0
 8000a60:	9300      	str	r3, [sp, #0]
 8000a62:	4b21      	ldr	r3, [pc, #132]	; (8000ae8 <SystemClock_Config+0xa8>)
 8000a64:	6ada      	ldr	r2, [r3, #44]	; 0x2c
 8000a66:	f022 0201 	bic.w	r2, r2, #1
 8000a6a:	62da      	str	r2, [r3, #44]	; 0x2c
 8000a6c:	6adb      	ldr	r3, [r3, #44]	; 0x2c
 8000a6e:	f003 0301 	and.w	r3, r3, #1
 8000a72:	9300      	str	r3, [sp, #0]
 8000a74:	4b1d      	ldr	r3, [pc, #116]	; (8000aec <SystemClock_Config+0xac>)
 8000a76:	699a      	ldr	r2, [r3, #24]
 8000a78:	f442 4240 	orr.w	r2, r2, #49152	; 0xc000
 8000a7c:	619a      	str	r2, [r3, #24]
 8000a7e:	699a      	ldr	r2, [r3, #24]
 8000a80:	f402 4240 	and.w	r2, r2, #49152	; 0xc000
 8000a84:	9200      	str	r2, [sp, #0]
 8000a86:	9a00      	ldr	r2, [sp, #0]
 8000a88:	699a      	ldr	r2, [r3, #24]
 8000a8a:	0490      	lsls	r0, r2, #18
 8000a8c:	d5fc      	bpl.n	8000a88 <SystemClock_Config+0x48>
 8000a8e:	2401      	movs	r4, #1
 8000a90:	f44f 23a0 	mov.w	r3, #327680	; 0x50000
 8000a94:	2218      	movs	r2, #24
 8000a96:	210c      	movs	r1, #12
 8000a98:	a809      	add	r0, sp, #36	; 0x24
 8000a9a:	9414      	str	r4, [sp, #80]	; 0x50
 8000a9c:	e9cd 4309 	strd	r4, r3, [sp, #36]	; 0x24
 8000aa0:	2302      	movs	r3, #2
 8000aa2:	e9cd 2315 	strd	r2, r3, [sp, #84]	; 0x54
 8000aa6:	2204      	movs	r2, #4
 8000aa8:	e9cd 3312 	strd	r3, r3, [sp, #72]	; 0x48
 8000aac:	e9cd 2317 	strd	r2, r3, [sp, #92]	; 0x5c
 8000ab0:	2300      	movs	r3, #0
 8000ab2:	e9cd 1319 	strd	r1, r3, [sp, #100]	; 0x64
 8000ab6:	931b      	str	r3, [sp, #108]	; 0x6c
 8000ab8:	f001 fa44 	bl	8001f44 <HAL_RCC_OscConfig>
 8000abc:	b108      	cbz	r0, 8000ac2 <SystemClock_Config+0x82>
 8000abe:	b672      	cpsid	i
 8000ac0:	e7fe      	b.n	8000ac0 <SystemClock_Config+0x80>
 8000ac2:	223f      	movs	r2, #63	; 0x3f
 8000ac4:	2303      	movs	r3, #3
 8000ac6:	4621      	mov	r1, r4
 8000ac8:	e9cd 0003 	strd	r0, r0, [sp, #12]
 8000acc:	e9cd 0005 	strd	r0, r0, [sp, #20]
 8000ad0:	e9cd 0007 	strd	r0, r0, [sp, #28]
 8000ad4:	a801      	add	r0, sp, #4
 8000ad6:	e9cd 2301 	strd	r2, r3, [sp, #4]
 8000ada:	f001 fd81 	bl	80025e0 <HAL_RCC_ClockConfig>
 8000ade:	b108      	cbz	r0, 8000ae4 <SystemClock_Config+0xa4>
 8000ae0:	b672      	cpsid	i
 8000ae2:	e7fe      	b.n	8000ae2 <SystemClock_Config+0xa2>
 8000ae4:	b01c      	add	sp, #112	; 0x70
 8000ae6:	bd10      	pop	{r4, pc}
 8000ae8:	58000400 	.word	0x58000400
 8000aec:	58024800 	.word	0x58024800

08000af0 <main>:
 8000af0:	b508      	push	{r3, lr}
 8000af2:	f000 fa09 	bl	8000f08 <HAL_Init>
 8000af6:	f7ff ffa3 	bl	8000a40 <SystemClock_Config>
 8000afa:	f7ff fe8d 	bl	8000818 <MX_GPIO_Init>
 8000afe:	f7ff fd6d 	bl	80005dc <MX_ETH_Init>
 8000b02:	f000 f8e1 	bl	8000cc8 <MX_USART3_UART_Init>
 8000b06:	f000 f95d 	bl	8000dc4 <MX_USB_OTG_FS_PCD_Init>
 8000b0a:	f7ff ff21 	bl	8000950 <MX_I2C2_Init>
 8000b0e:	f003 fd53 	bl	80045b8 <osKernelInitialize>
 8000b12:	f7ff fe65 	bl	80007e0 <MX_FREERTOS_Init>
 8000b16:	f003 fd61 	bl	80045dc <osKernelStart>
 8000b1a:	e7fe      	b.n	8000b1a <main+0x2a>

08000b1c <HAL_TIM_PeriodElapsedCallback>:
 8000b1c:	6802      	ldr	r2, [r0, #0]
 8000b1e:	4b03      	ldr	r3, [pc, #12]	; (8000b2c <HAL_TIM_PeriodElapsedCallback+0x10>)
 8000b20:	429a      	cmp	r2, r3
 8000b22:	d101      	bne.n	8000b28 <HAL_TIM_PeriodElapsedCallback+0xc>
 8000b24:	f000 ba1e 	b.w	8000f64 <HAL_IncTick>
 8000b28:	4770      	bx	lr
 8000b2a:	bf00      	nop
 8000b2c:	40014800 	.word	0x40014800

08000b30 <Error_Handler>:
 8000b30:	b672      	cpsid	i
 8000b32:	e7fe      	b.n	8000b32 <Error_Handler+0x2>

08000b34 <HAL_MspInit>:
 8000b34:	4b0a      	ldr	r3, [pc, #40]	; (8000b60 <HAL_MspInit+0x2c>)
 8000b36:	b082      	sub	sp, #8
 8000b38:	210f      	movs	r1, #15
 8000b3a:	f06f 0001 	mvn.w	r0, #1
 8000b3e:	f8d3 20f4 	ldr.w	r2, [r3, #244]	; 0xf4
 8000b42:	f042 0202 	orr.w	r2, r2, #2
 8000b46:	f8c3 20f4 	str.w	r2, [r3, #244]	; 0xf4
 8000b4a:	2200      	movs	r2, #0
 8000b4c:	f8d3 30f4 	ldr.w	r3, [r3, #244]	; 0xf4
 8000b50:	f003 0302 	and.w	r3, r3, #2
 8000b54:	9301      	str	r3, [sp, #4]
 8000b56:	9b01      	ldr	r3, [sp, #4]
 8000b58:	b002      	add	sp, #8
 8000b5a:	f000 ba49 	b.w	8000ff0 <HAL_NVIC_SetPriority>
 8000b5e:	bf00      	nop
 8000b60:	58024400 	.word	0x58024400

08000b64 <HAL_InitTick>:
 8000b64:	280f      	cmp	r0, #15
 8000b66:	b510      	push	{r4, lr}
 8000b68:	4604      	mov	r4, r0
 8000b6a:	b08a      	sub	sp, #40	; 0x28
 8000b6c:	d902      	bls.n	8000b74 <HAL_InitTick+0x10>
 8000b6e:	2001      	movs	r0, #1
 8000b70:	b00a      	add	sp, #40	; 0x28
 8000b72:	bd10      	pop	{r4, pc}
 8000b74:	4601      	mov	r1, r0
 8000b76:	2200      	movs	r2, #0
 8000b78:	2076      	movs	r0, #118	; 0x76
 8000b7a:	f000 fa39 	bl	8000ff0 <HAL_NVIC_SetPriority>
 8000b7e:	2076      	movs	r0, #118	; 0x76
 8000b80:	f000 fa68 	bl	8001054 <HAL_NVIC_EnableIRQ>
 8000b84:	4b15      	ldr	r3, [pc, #84]	; (8000bdc <HAL_InitTick+0x78>)
 8000b86:	4669      	mov	r1, sp
 8000b88:	a802      	add	r0, sp, #8
 8000b8a:	601c      	str	r4, [r3, #0]
 8000b8c:	4b14      	ldr	r3, [pc, #80]	; (8000be0 <HAL_InitTick+0x7c>)
 8000b8e:	4c15      	ldr	r4, [pc, #84]	; (8000be4 <HAL_InitTick+0x80>)
 8000b90:	f8d3 20f0 	ldr.w	r2, [r3, #240]	; 0xf0
 8000b94:	f442 2280 	orr.w	r2, r2, #262144	; 0x40000
 8000b98:	f8c3 20f0 	str.w	r2, [r3, #240]	; 0xf0
 8000b9c:	f8d3 30f0 	ldr.w	r3, [r3, #240]	; 0xf0
 8000ba0:	f403 2380 	and.w	r3, r3, #262144	; 0x40000
 8000ba4:	9301      	str	r3, [sp, #4]
 8000ba6:	9b01      	ldr	r3, [sp, #4]
 8000ba8:	f001 fe86 	bl	80028b8 <HAL_RCC_GetClockConfig>
 8000bac:	f001 fe72 	bl	8002894 <HAL_RCC_GetPCLK2Freq>
 8000bb0:	4b0d      	ldr	r3, [pc, #52]	; (8000be8 <HAL_InitTick+0x84>)
 8000bb2:	6023      	str	r3, [r4, #0]
 8000bb4:	f240 33e7 	movw	r3, #999	; 0x3e7
 8000bb8:	60e3      	str	r3, [r4, #12]
 8000bba:	4b0c      	ldr	r3, [pc, #48]	; (8000bec <HAL_InitTick+0x88>)
 8000bbc:	fbb0 f0f3 	udiv	r0, r0, r3
 8000bc0:	3801      	subs	r0, #1
 8000bc2:	2300      	movs	r3, #0
 8000bc4:	6060      	str	r0, [r4, #4]
 8000bc6:	4620      	mov	r0, r4
 8000bc8:	6123      	str	r3, [r4, #16]
 8000bca:	60a3      	str	r3, [r4, #8]
 8000bcc:	f002 ff62 	bl	8003a94 <HAL_TIM_Base_Init>
 8000bd0:	2800      	cmp	r0, #0
 8000bd2:	d1cc      	bne.n	8000b6e <HAL_InitTick+0xa>
 8000bd4:	4620      	mov	r0, r4
 8000bd6:	f002 fe05 	bl	80037e4 <HAL_TIM_Base_Start_IT>
 8000bda:	e7c9      	b.n	8000b70 <HAL_InitTick+0xc>
 8000bdc:	2400000c 	.word	0x2400000c
 8000be0:	58024400 	.word	0x58024400
 8000be4:	24000264 	.word	0x24000264
 8000be8:	40014800 	.word	0x40014800
 8000bec:	000f4240 	.word	0x000f4240

08000bf0 <NMI_Handler>:
 8000bf0:	e7fe      	b.n	8000bf0 <NMI_Handler>

08000bf2 <HardFault_Handler>:
 8000bf2:	e7fe      	b.n	8000bf2 <HardFault_Handler>

08000bf4 <MemManage_Handler>:
 8000bf4:	e7fe      	b.n	8000bf4 <MemManage_Handler>

08000bf6 <BusFault_Handler>:
 8000bf6:	e7fe      	b.n	8000bf6 <BusFault_Handler>

08000bf8 <UsageFault_Handler>:
 8000bf8:	e7fe      	b.n	8000bf8 <UsageFault_Handler>

08000bfa <DebugMon_Handler>:
 8000bfa:	4770      	bx	lr

08000bfc <TIM17_IRQHandler>:
 8000bfc:	4801      	ldr	r0, [pc, #4]	; (8000c04 <TIM17_IRQHandler+0x8>)
 8000bfe:	f002 be33 	b.w	8003868 <HAL_TIM_IRQHandler>
 8000c02:	bf00      	nop
 8000c04:	24000264 	.word	0x24000264

08000c08 <SystemInit>:
 8000c08:	4a25      	ldr	r2, [pc, #148]	; (8000ca0 <SystemInit+0x98>)
 8000c0a:	f8d2 3088 	ldr.w	r3, [r2, #136]	; 0x88
 8000c0e:	f443 0370 	orr.w	r3, r3, #15728640	; 0xf00000
 8000c12:	f8c2 3088 	str.w	r3, [r2, #136]	; 0x88
 8000c16:	4a23      	ldr	r2, [pc, #140]	; (8000ca4 <SystemInit+0x9c>)
 8000c18:	6813      	ldr	r3, [r2, #0]
 8000c1a:	f003 030f 	and.w	r3, r3, #15
 8000c1e:	2b06      	cmp	r3, #6
 8000c20:	d805      	bhi.n	8000c2e <SystemInit+0x26>
 8000c22:	6813      	ldr	r3, [r2, #0]
 8000c24:	f023 030f 	bic.w	r3, r3, #15
 8000c28:	f043 0307 	orr.w	r3, r3, #7
 8000c2c:	6013      	str	r3, [r2, #0]
 8000c2e:	4b1e      	ldr	r3, [pc, #120]	; (8000ca8 <SystemInit+0xa0>)
 8000c30:	681a      	ldr	r2, [r3, #0]
 8000c32:	f042 0201 	orr.w	r2, r2, #1
 8000c36:	601a      	str	r2, [r3, #0]
 8000c38:	2200      	movs	r2, #0
 8000c3a:	611a      	str	r2, [r3, #16]
 8000c3c:	4a1b      	ldr	r2, [pc, #108]	; (8000cac <SystemInit+0xa4>)
 8000c3e:	6819      	ldr	r1, [r3, #0]
 8000c40:	400a      	ands	r2, r1
 8000c42:	4918      	ldr	r1, [pc, #96]	; (8000ca4 <SystemInit+0x9c>)
 8000c44:	601a      	str	r2, [r3, #0]
 8000c46:	680a      	ldr	r2, [r1, #0]
 8000c48:	0712      	lsls	r2, r2, #28
 8000c4a:	d505      	bpl.n	8000c58 <SystemInit+0x50>
 8000c4c:	680a      	ldr	r2, [r1, #0]
 8000c4e:	f022 020f 	bic.w	r2, r2, #15
 8000c52:	f042 0207 	orr.w	r2, r2, #7
 8000c56:	600a      	str	r2, [r1, #0]
 8000c58:	2200      	movs	r2, #0
 8000c5a:	4915      	ldr	r1, [pc, #84]	; (8000cb0 <SystemInit+0xa8>)
 8000c5c:	619a      	str	r2, [r3, #24]
 8000c5e:	61da      	str	r2, [r3, #28]
 8000c60:	621a      	str	r2, [r3, #32]
 8000c62:	6299      	str	r1, [r3, #40]	; 0x28
 8000c64:	4913      	ldr	r1, [pc, #76]	; (8000cb4 <SystemInit+0xac>)
 8000c66:	62d9      	str	r1, [r3, #44]	; 0x2c
 8000c68:	4913      	ldr	r1, [pc, #76]	; (8000cb8 <SystemInit+0xb0>)
 8000c6a:	6319      	str	r1, [r3, #48]	; 0x30
 8000c6c:	635a      	str	r2, [r3, #52]	; 0x34
 8000c6e:	6399      	str	r1, [r3, #56]	; 0x38
 8000c70:	63da      	str	r2, [r3, #60]	; 0x3c
 8000c72:	6419      	str	r1, [r3, #64]	; 0x40
 8000c74:	645a      	str	r2, [r3, #68]	; 0x44
 8000c76:	6819      	ldr	r1, [r3, #0]
 8000c78:	f421 2180 	bic.w	r1, r1, #262144	; 0x40000
 8000c7c:	6019      	str	r1, [r3, #0]
 8000c7e:	661a      	str	r2, [r3, #96]	; 0x60
 8000c80:	4b0e      	ldr	r3, [pc, #56]	; (8000cbc <SystemInit+0xb4>)
 8000c82:	681b      	ldr	r3, [r3, #0]
 8000c84:	0c1b      	lsrs	r3, r3, #16
 8000c86:	041b      	lsls	r3, r3, #16
 8000c88:	f1b3 5f00 	cmp.w	r3, #536870912	; 0x20000000
 8000c8c:	d203      	bcs.n	8000c96 <SystemInit+0x8e>
 8000c8e:	4b0c      	ldr	r3, [pc, #48]	; (8000cc0 <SystemInit+0xb8>)
 8000c90:	2201      	movs	r2, #1
 8000c92:	f8c3 2108 	str.w	r2, [r3, #264]	; 0x108
 8000c96:	4b0b      	ldr	r3, [pc, #44]	; (8000cc4 <SystemInit+0xbc>)
 8000c98:	f243 02d2 	movw	r2, #12498	; 0x30d2
 8000c9c:	601a      	str	r2, [r3, #0]
 8000c9e:	4770      	bx	lr
 8000ca0:	e000ed00 	.word	0xe000ed00
 8000ca4:	52002000 	.word	0x52002000
 8000ca8:	58024400 	.word	0x58024400
 8000cac:	eaf6ed7f 	.word	0xeaf6ed7f
 8000cb0:	02020200 	.word	0x02020200
 8000cb4:	01ff0000 	.word	0x01ff0000
 8000cb8:	01010280 	.word	0x01010280
 8000cbc:	5c001000 	.word	0x5c001000
 8000cc0:	51008000 	.word	0x51008000
 8000cc4:	52004000 	.word	0x52004000

08000cc8 <MX_USART3_UART_Init>:
 8000cc8:	b508      	push	{r3, lr}
 8000cca:	4817      	ldr	r0, [pc, #92]	; (8000d28 <MX_USART3_UART_Init+0x60>)
 8000ccc:	f44f 3361 	mov.w	r3, #230400	; 0x38400
 8000cd0:	4a16      	ldr	r2, [pc, #88]	; (8000d2c <MX_USART3_UART_Init+0x64>)
 8000cd2:	f04f 5180 	mov.w	r1, #268435456	; 0x10000000
 8000cd6:	e9c0 2300 	strd	r2, r3, [r0]
 8000cda:	2300      	movs	r3, #0
 8000cdc:	220c      	movs	r2, #12
 8000cde:	e9c0 1302 	strd	r1, r3, [r0, #8]
 8000ce2:	6103      	str	r3, [r0, #16]
 8000ce4:	e9c0 2305 	strd	r2, r3, [r0, #20]
 8000ce8:	e9c0 3307 	strd	r3, r3, [r0, #28]
 8000cec:	e9c0 3309 	strd	r3, r3, [r0, #36]	; 0x24
 8000cf0:	f003 f9eb 	bl	80040ca <HAL_UART_Init>
 8000cf4:	b108      	cbz	r0, 8000cfa <MX_USART3_UART_Init+0x32>
 8000cf6:	f7ff ff1b 	bl	8000b30 <Error_Handler>
 8000cfa:	2100      	movs	r1, #0
 8000cfc:	480a      	ldr	r0, [pc, #40]	; (8000d28 <MX_USART3_UART_Init+0x60>)
 8000cfe:	f003 fa52 	bl	80041a6 <HAL_UARTEx_SetTxFifoThreshold>
 8000d02:	b108      	cbz	r0, 8000d08 <MX_USART3_UART_Init+0x40>
 8000d04:	f7ff ff14 	bl	8000b30 <Error_Handler>
 8000d08:	2100      	movs	r1, #0
 8000d0a:	4807      	ldr	r0, [pc, #28]	; (8000d28 <MX_USART3_UART_Init+0x60>)
 8000d0c:	f003 fa6b 	bl	80041e6 <HAL_UARTEx_SetRxFifoThreshold>
 8000d10:	b108      	cbz	r0, 8000d16 <MX_USART3_UART_Init+0x4e>
 8000d12:	f7ff ff0d 	bl	8000b30 <Error_Handler>
 8000d16:	4804      	ldr	r0, [pc, #16]	; (8000d28 <MX_USART3_UART_Init+0x60>)
 8000d18:	f003 fa2a 	bl	8004170 <HAL_UARTEx_DisableFifoMode>
 8000d1c:	b118      	cbz	r0, 8000d26 <MX_USART3_UART_Init+0x5e>
 8000d1e:	e8bd 4008 	ldmia.w	sp!, {r3, lr}
 8000d22:	f7ff bf05 	b.w	8000b30 <Error_Handler>
 8000d26:	bd08      	pop	{r3, pc}
 8000d28:	240002b0 	.word	0x240002b0
 8000d2c:	40004800 	.word	0x40004800

08000d30 <HAL_UART_MspInit>:
 8000d30:	b510      	push	{r4, lr}
 8000d32:	b0b8      	sub	sp, #224	; 0xe0
 8000d34:	4604      	mov	r4, r0
 8000d36:	2214      	movs	r2, #20
 8000d38:	2100      	movs	r1, #0
 8000d3a:	a803      	add	r0, sp, #12
 8000d3c:	f006 fc74 	bl	8007628 <memset>
 8000d40:	22c0      	movs	r2, #192	; 0xc0
 8000d42:	2100      	movs	r1, #0
 8000d44:	a808      	add	r0, sp, #32
 8000d46:	f006 fc6f 	bl	8007628 <memset>
 8000d4a:	6822      	ldr	r2, [r4, #0]
 8000d4c:	4b1a      	ldr	r3, [pc, #104]	; (8000db8 <HAL_UART_MspInit+0x88>)
 8000d4e:	429a      	cmp	r2, r3
 8000d50:	d130      	bne.n	8000db4 <HAL_UART_MspInit+0x84>
 8000d52:	2202      	movs	r2, #2
 8000d54:	2300      	movs	r3, #0
 8000d56:	a808      	add	r0, sp, #32
 8000d58:	e9cd 2308 	strd	r2, r3, [sp, #32]
 8000d5c:	f001 fec6 	bl	8002aec <HAL_RCCEx_PeriphCLKConfig>
 8000d60:	b108      	cbz	r0, 8000d66 <HAL_UART_MspInit+0x36>
 8000d62:	f7ff fee5 	bl	8000b30 <Error_Handler>
 8000d66:	4b15      	ldr	r3, [pc, #84]	; (8000dbc <HAL_UART_MspInit+0x8c>)
 8000d68:	a903      	add	r1, sp, #12
 8000d6a:	4815      	ldr	r0, [pc, #84]	; (8000dc0 <HAL_UART_MspInit+0x90>)
 8000d6c:	f8d3 20e8 	ldr.w	r2, [r3, #232]	; 0xe8
 8000d70:	f442 2280 	orr.w	r2, r2, #262144	; 0x40000
 8000d74:	f8c3 20e8 	str.w	r2, [r3, #232]	; 0xe8
 8000d78:	f8d3 20e8 	ldr.w	r2, [r3, #232]	; 0xe8
 8000d7c:	f402 2280 	and.w	r2, r2, #262144	; 0x40000
 8000d80:	9201      	str	r2, [sp, #4]
 8000d82:	9a01      	ldr	r2, [sp, #4]
 8000d84:	f8d3 20e0 	ldr.w	r2, [r3, #224]	; 0xe0
 8000d88:	f042 0208 	orr.w	r2, r2, #8
 8000d8c:	f8c3 20e0 	str.w	r2, [r3, #224]	; 0xe0
 8000d90:	f44f 7240 	mov.w	r2, #768	; 0x300
 8000d94:	f8d3 30e0 	ldr.w	r3, [r3, #224]	; 0xe0
 8000d98:	f003 0308 	and.w	r3, r3, #8
 8000d9c:	9302      	str	r3, [sp, #8]
 8000d9e:	9b02      	ldr	r3, [sp, #8]
 8000da0:	2302      	movs	r3, #2
 8000da2:	e9cd 2303 	strd	r2, r3, [sp, #12]
 8000da6:	2300      	movs	r3, #0
 8000da8:	e9cd 3305 	strd	r3, r3, [sp, #20]
 8000dac:	2307      	movs	r3, #7
 8000dae:	9307      	str	r3, [sp, #28]
 8000db0:	f000 fbb0 	bl	8001514 <HAL_GPIO_Init>
 8000db4:	b038      	add	sp, #224	; 0xe0
 8000db6:	bd10      	pop	{r4, pc}
 8000db8:	40004800 	.word	0x40004800
 8000dbc:	58024400 	.word	0x58024400
 8000dc0:	58020c00 	.word	0x58020c00

08000dc4 <MX_USB_OTG_FS_PCD_Init>:
 8000dc4:	b508      	push	{r3, lr}
 8000dc6:	480c      	ldr	r0, [pc, #48]	; (8000df8 <MX_USB_OTG_FS_PCD_Init+0x34>)
 8000dc8:	2309      	movs	r3, #9
 8000dca:	4a0c      	ldr	r2, [pc, #48]	; (8000dfc <MX_USB_OTG_FS_PCD_Init+0x38>)
 8000dcc:	e9c0 2300 	strd	r2, r3, [r0]
 8000dd0:	2300      	movs	r3, #0
 8000dd2:	2202      	movs	r2, #2
 8000dd4:	e9c0 3203 	strd	r3, r2, [r0, #12]
 8000dd8:	6182      	str	r2, [r0, #24]
 8000dda:	2201      	movs	r2, #1
 8000ddc:	e9c0 2307 	strd	r2, r3, [r0, #28]
 8000de0:	e9c0 3209 	strd	r3, r2, [r0, #36]	; 0x24
 8000de4:	e9c0 230b 	strd	r2, r3, [r0, #44]	; 0x2c
 8000de8:	f000 ffe4 	bl	8001db4 <HAL_PCD_Init>
 8000dec:	b118      	cbz	r0, 8000df6 <MX_USB_OTG_FS_PCD_Init+0x32>
 8000dee:	e8bd 4008 	ldmia.w	sp!, {r3, lr}
 8000df2:	f7ff be9d 	b.w	8000b30 <Error_Handler>
 8000df6:	bd08      	pop	{r3, pc}
 8000df8:	24000344 	.word	0x24000344
 8000dfc:	40080000 	.word	0x40080000

08000e00 <HAL_PCD_MspInit>:
 8000e00:	b530      	push	{r4, r5, lr}
 8000e02:	b0b9      	sub	sp, #228	; 0xe4
 8000e04:	4604      	mov	r4, r0
 8000e06:	2214      	movs	r2, #20
 8000e08:	2100      	movs	r1, #0
 8000e0a:	a803      	add	r0, sp, #12
 8000e0c:	f006 fc0c 	bl	8007628 <memset>
 8000e10:	22c0      	movs	r2, #192	; 0xc0
 8000e12:	2100      	movs	r1, #0
 8000e14:	a808      	add	r0, sp, #32
 8000e16:	f006 fc07 	bl	8007628 <memset>
 8000e1a:	6822      	ldr	r2, [r4, #0]
 8000e1c:	4b22      	ldr	r3, [pc, #136]	; (8000ea8 <HAL_PCD_MspInit+0xa8>)
 8000e1e:	429a      	cmp	r2, r3
 8000e20:	d13f      	bne.n	8000ea2 <HAL_PCD_MspInit+0xa2>
 8000e22:	2300      	movs	r3, #0
 8000e24:	f44f 2280 	mov.w	r2, #262144	; 0x40000
 8000e28:	a808      	add	r0, sp, #32
 8000e2a:	e9cd 2308 	strd	r2, r3, [sp, #32]
 8000e2e:	f44f 1380 	mov.w	r3, #1048576	; 0x100000
 8000e32:	932a      	str	r3, [sp, #168]	; 0xa8
 8000e34:	f001 fe5a 	bl	8002aec <HAL_RCCEx_PeriphCLKConfig>
 8000e38:	b108      	cbz	r0, 8000e3e <HAL_PCD_MspInit+0x3e>
 8000e3a:	f7ff fe79 	bl	8000b30 <Error_Handler>
 8000e3e:	4c1b      	ldr	r4, [pc, #108]	; (8000eac <HAL_PCD_MspInit+0xac>)
 8000e40:	f001 f878 	bl	8001f34 <HAL_PWREx_EnableUSBVoltageDetector>
 8000e44:	f44f 52e8 	mov.w	r2, #7424	; 0x1d00
 8000e48:	2500      	movs	r5, #0
 8000e4a:	f8d4 30e0 	ldr.w	r3, [r4, #224]	; 0xe0
 8000e4e:	a903      	add	r1, sp, #12
 8000e50:	4817      	ldr	r0, [pc, #92]	; (8000eb0 <HAL_PCD_MspInit+0xb0>)
 8000e52:	f043 0301 	orr.w	r3, r3, #1
 8000e56:	f8c4 30e0 	str.w	r3, [r4, #224]	; 0xe0
 8000e5a:	f8d4 30e0 	ldr.w	r3, [r4, #224]	; 0xe0
 8000e5e:	f003 0301 	and.w	r3, r3, #1
 8000e62:	9301      	str	r3, [sp, #4]
 8000e64:	9b01      	ldr	r3, [sp, #4]
 8000e66:	2302      	movs	r3, #2
 8000e68:	e9cd 2303 	strd	r2, r3, [sp, #12]
 8000e6c:	230a      	movs	r3, #10
 8000e6e:	e9cd 5505 	strd	r5, r5, [sp, #20]
 8000e72:	9307      	str	r3, [sp, #28]
 8000e74:	f000 fb4e 	bl	8001514 <HAL_GPIO_Init>
 8000e78:	f44f 7300 	mov.w	r3, #512	; 0x200
 8000e7c:	a903      	add	r1, sp, #12
 8000e7e:	480c      	ldr	r0, [pc, #48]	; (8000eb0 <HAL_PCD_MspInit+0xb0>)
 8000e80:	9505      	str	r5, [sp, #20]
 8000e82:	e9cd 3503 	strd	r3, r5, [sp, #12]
 8000e86:	f000 fb45 	bl	8001514 <HAL_GPIO_Init>
 8000e8a:	f8d4 30d8 	ldr.w	r3, [r4, #216]	; 0xd8
 8000e8e:	f043 6300 	orr.w	r3, r3, #134217728	; 0x8000000
 8000e92:	f8c4 30d8 	str.w	r3, [r4, #216]	; 0xd8
 8000e96:	f8d4 30d8 	ldr.w	r3, [r4, #216]	; 0xd8
 8000e9a:	f003 6300 	and.w	r3, r3, #134217728	; 0x8000000
 8000e9e:	9302      	str	r3, [sp, #8]
 8000ea0:	9b02      	ldr	r3, [sp, #8]
 8000ea2:	b039      	add	sp, #228	; 0xe4
 8000ea4:	bd30      	pop	{r4, r5, pc}
 8000ea6:	bf00      	nop
 8000ea8:	40080000 	.word	0x40080000
 8000eac:	58024400 	.word	0x58024400
 8000eb0:	58020000 	.word	0x58020000

08000eb4 <Reset_Handler>:
 8000eb4:	f8df d034 	ldr.w	sp, [pc, #52]	; 8000eec <LoopFillZerobss+0xe>
 8000eb8:	f7ff fea6 	bl	8000c08 <SystemInit>
 8000ebc:	480c      	ldr	r0, [pc, #48]	; (8000ef0 <LoopFillZerobss+0x12>)
 8000ebe:	490d      	ldr	r1, [pc, #52]	; (8000ef4 <LoopFillZerobss+0x16>)
 8000ec0:	4a0d      	ldr	r2, [pc, #52]	; (8000ef8 <LoopFillZerobss+0x1a>)
 8000ec2:	2300      	movs	r3, #0
 8000ec4:	e002      	b.n	8000ecc <LoopCopyDataInit>

08000ec6 <CopyDataInit>:
 8000ec6:	58d4      	ldr	r4, [r2, r3]
 8000ec8:	50c4      	str	r4, [r0, r3]
 8000eca:	3304      	adds	r3, #4

08000ecc <LoopCopyDataInit>:
 8000ecc:	18c4      	adds	r4, r0, r3
 8000ece:	428c      	cmp	r4, r1
 8000ed0:	d3f9      	bcc.n	8000ec6 <CopyDataInit>
 8000ed2:	4a0a      	ldr	r2, [pc, #40]	; (8000efc <LoopFillZerobss+0x1e>)
 8000ed4:	4c0a      	ldr	r4, [pc, #40]	; (8000f00 <LoopFillZerobss+0x22>)
 8000ed6:	2300      	movs	r3, #0
 8000ed8:	e001      	b.n	8000ede <LoopFillZerobss>

08000eda <FillZerobss>:
 8000eda:	6013      	str	r3, [r2, #0]
 8000edc:	3204      	adds	r2, #4

08000ede <LoopFillZerobss>:
 8000ede:	42a2      	cmp	r2, r4
 8000ee0:	d3fb      	bcc.n	8000eda <FillZerobss>
 8000ee2:	f006 fba9 	bl	8007638 <__libc_init_array>
 8000ee6:	f7ff fe03 	bl	8000af0 <main>
 8000eea:	4770      	bx	lr
 8000eec:	24080000 	.word	0x24080000
 8000ef0:	24000000 	.word	0x24000000
 8000ef4:	24000018 	.word	0x24000018
 8000ef8:	080077b8 	.word	0x080077b8
 8000efc:	240000d8 	.word	0x240000d8
 8000f00:	2400540c 	.word	0x2400540c

08000f04 <ADC3_IRQHandler>:
 8000f04:	e7fe      	b.n	8000f04 <ADC3_IRQHandler>
	...

08000f08 <HAL_Init>:
 8000f08:	b510      	push	{r4, lr}
 8000f0a:	2003      	movs	r0, #3
 8000f0c:	f000 f85e 	bl	8000fcc <HAL_NVIC_SetPriorityGrouping>
 8000f10:	f001 fac4 	bl	800249c <HAL_RCC_GetSysClockFreq>
 8000f14:	490f      	ldr	r1, [pc, #60]	; (8000f54 <HAL_Init+0x4c>)
 8000f16:	4a10      	ldr	r2, [pc, #64]	; (8000f58 <HAL_Init+0x50>)
 8000f18:	698b      	ldr	r3, [r1, #24]
 8000f1a:	f3c3 2303 	ubfx	r3, r3, #8, #4
 8000f1e:	5cd3      	ldrb	r3, [r2, r3]
 8000f20:	f003 031f 	and.w	r3, r3, #31
 8000f24:	40d8      	lsrs	r0, r3
 8000f26:	698b      	ldr	r3, [r1, #24]
 8000f28:	f003 030f 	and.w	r3, r3, #15
 8000f2c:	5cd3      	ldrb	r3, [r2, r3]
 8000f2e:	4a0b      	ldr	r2, [pc, #44]	; (8000f5c <HAL_Init+0x54>)
 8000f30:	f003 031f 	and.w	r3, r3, #31
 8000f34:	fa20 f303 	lsr.w	r3, r0, r3
 8000f38:	6013      	str	r3, [r2, #0]
 8000f3a:	4b09      	ldr	r3, [pc, #36]	; (8000f60 <HAL_Init+0x58>)
 8000f3c:	6018      	str	r0, [r3, #0]
 8000f3e:	200f      	movs	r0, #15
 8000f40:	f7ff fe10 	bl	8000b64 <HAL_InitTick>
 8000f44:	4604      	mov	r4, r0
 8000f46:	b918      	cbnz	r0, 8000f50 <HAL_Init+0x48>
 8000f48:	f7ff fdf4 	bl	8000b34 <HAL_MspInit>
 8000f4c:	4620      	mov	r0, r4
 8000f4e:	bd10      	pop	{r4, pc}
 8000f50:	2401      	movs	r4, #1
 8000f52:	e7fb      	b.n	8000f4c <HAL_Init+0x44>
 8000f54:	58024400 	.word	0x58024400
 8000f58:	08007718 	.word	0x08007718
 8000f5c:	24000004 	.word	0x24000004
 8000f60:	24000000 	.word	0x24000000

08000f64 <HAL_IncTick>:
 8000f64:	4a03      	ldr	r2, [pc, #12]	; (8000f74 <HAL_IncTick+0x10>)
 8000f66:	4b04      	ldr	r3, [pc, #16]	; (8000f78 <HAL_IncTick+0x14>)
 8000f68:	6811      	ldr	r1, [r2, #0]
 8000f6a:	781b      	ldrb	r3, [r3, #0]
 8000f6c:	440b      	add	r3, r1
 8000f6e:	6013      	str	r3, [r2, #0]
 8000f70:	4770      	bx	lr
 8000f72:	bf00      	nop
 8000f74:	24000850 	.word	0x24000850
 8000f78:	24000008 	.word	0x24000008

08000f7c <HAL_GetTick>:
 8000f7c:	4b01      	ldr	r3, [pc, #4]	; (8000f84 <HAL_GetTick+0x8>)
 8000f7e:	6818      	ldr	r0, [r3, #0]
 8000f80:	4770      	bx	lr
 8000f82:	bf00      	nop
 8000f84:	24000850 	.word	0x24000850

08000f88 <HAL_Delay>:
 8000f88:	b538      	push	{r3, r4, r5, lr}
 8000f8a:	4604      	mov	r4, r0
 8000f8c:	f7ff fff6 	bl	8000f7c <HAL_GetTick>
 8000f90:	4605      	mov	r5, r0
 8000f92:	1c63      	adds	r3, r4, #1
 8000f94:	bf1e      	ittt	ne
 8000f96:	4b04      	ldrne	r3, [pc, #16]	; (8000fa8 <HAL_Delay+0x20>)
 8000f98:	781b      	ldrbne	r3, [r3, #0]
 8000f9a:	18e4      	addne	r4, r4, r3
 8000f9c:	f7ff ffee 	bl	8000f7c <HAL_GetTick>
 8000fa0:	1b43      	subs	r3, r0, r5
 8000fa2:	42a3      	cmp	r3, r4
 8000fa4:	d3fa      	bcc.n	8000f9c <HAL_Delay+0x14>
 8000fa6:	bd38      	pop	{r3, r4, r5, pc}
 8000fa8:	24000008 	.word	0x24000008

08000fac <HAL_GetREVID>:
 8000fac:	4b01      	ldr	r3, [pc, #4]	; (8000fb4 <HAL_GetREVID+0x8>)
 8000fae:	6818      	ldr	r0, [r3, #0]
 8000fb0:	0c00      	lsrs	r0, r0, #16
 8000fb2:	4770      	bx	lr
 8000fb4:	5c001000 	.word	0x5c001000

08000fb8 <HAL_SYSCFG_ETHInterfaceSelect>:
 8000fb8:	4a03      	ldr	r2, [pc, #12]	; (8000fc8 <HAL_SYSCFG_ETHInterfaceSelect+0x10>)
 8000fba:	6853      	ldr	r3, [r2, #4]
 8000fbc:	f423 0360 	bic.w	r3, r3, #14680064	; 0xe00000
 8000fc0:	4318      	orrs	r0, r3
 8000fc2:	6050      	str	r0, [r2, #4]
 8000fc4:	4770      	bx	lr
 8000fc6:	bf00      	nop
 8000fc8:	58000400 	.word	0x58000400

08000fcc <HAL_NVIC_SetPriorityGrouping>:
 8000fcc:	4907      	ldr	r1, [pc, #28]	; (8000fec <HAL_NVIC_SetPriorityGrouping+0x20>)
 8000fce:	0203      	lsls	r3, r0, #8
 8000fd0:	68ca      	ldr	r2, [r1, #12]
 8000fd2:	f403 63e0 	and.w	r3, r3, #1792	; 0x700
 8000fd6:	f422 62e0 	bic.w	r2, r2, #1792	; 0x700
 8000fda:	0412      	lsls	r2, r2, #16
 8000fdc:	0c12      	lsrs	r2, r2, #16
 8000fde:	4313      	orrs	r3, r2
 8000fe0:	f043 63bf 	orr.w	r3, r3, #100139008	; 0x5f80000
 8000fe4:	f443 3300 	orr.w	r3, r3, #131072	; 0x20000
 8000fe8:	60cb      	str	r3, [r1, #12]
 8000fea:	4770      	bx	lr
 8000fec:	e000ed00 	.word	0xe000ed00

08000ff0 <HAL_NVIC_SetPriority>:
 8000ff0:	4b16      	ldr	r3, [pc, #88]	; (800104c <HAL_NVIC_SetPriority+0x5c>)
 8000ff2:	b530      	push	{r4, r5, lr}
 8000ff4:	68dc      	ldr	r4, [r3, #12]
 8000ff6:	f3c4 2402 	ubfx	r4, r4, #8, #3
 8000ffa:	f1c4 0307 	rsb	r3, r4, #7
 8000ffe:	1d25      	adds	r5, r4, #4
 8001000:	2b04      	cmp	r3, #4
 8001002:	bf28      	it	cs
 8001004:	2304      	movcs	r3, #4
 8001006:	2d06      	cmp	r5, #6
 8001008:	f04f 35ff 	mov.w	r5, #4294967295
 800100c:	bf8c      	ite	hi
 800100e:	3c03      	subhi	r4, #3
 8001010:	2400      	movls	r4, #0
 8001012:	fa05 f303 	lsl.w	r3, r5, r3
 8001016:	2800      	cmp	r0, #0
 8001018:	fa05 f504 	lsl.w	r5, r5, r4
 800101c:	ea21 0303 	bic.w	r3, r1, r3
 8001020:	ea22 0205 	bic.w	r2, r2, r5
 8001024:	fa03 f304 	lsl.w	r3, r3, r4
 8001028:	ea43 0302 	orr.w	r3, r3, r2
 800102c:	ea4f 1303 	mov.w	r3, r3, lsl #4
 8001030:	b2db      	uxtb	r3, r3
 8001032:	db06      	blt.n	8001042 <HAL_NVIC_SetPriority+0x52>
 8001034:	f100 4060 	add.w	r0, r0, #3758096384	; 0xe0000000
 8001038:	f500 4061 	add.w	r0, r0, #57600	; 0xe100
 800103c:	f880 3300 	strb.w	r3, [r0, #768]	; 0x300
 8001040:	bd30      	pop	{r4, r5, pc}
 8001042:	f000 000f 	and.w	r0, r0, #15
 8001046:	4a02      	ldr	r2, [pc, #8]	; (8001050 <HAL_NVIC_SetPriority+0x60>)
 8001048:	5413      	strb	r3, [r2, r0]
 800104a:	e7f9      	b.n	8001040 <HAL_NVIC_SetPriority+0x50>
 800104c:	e000ed00 	.word	0xe000ed00
 8001050:	e000ed14 	.word	0xe000ed14

08001054 <HAL_NVIC_EnableIRQ>:
 8001054:	2800      	cmp	r0, #0
 8001056:	db07      	blt.n	8001068 <HAL_NVIC_EnableIRQ+0x14>
 8001058:	2301      	movs	r3, #1
 800105a:	0941      	lsrs	r1, r0, #5
 800105c:	f000 001f 	and.w	r0, r0, #31
 8001060:	4a02      	ldr	r2, [pc, #8]	; (800106c <HAL_NVIC_EnableIRQ+0x18>)
 8001062:	4083      	lsls	r3, r0
 8001064:	f842 3021 	str.w	r3, [r2, r1, lsl #2]
 8001068:	4770      	bx	lr
 800106a:	bf00      	nop
 800106c:	e000e100 	.word	0xe000e100

08001070 <ETH_SetMACConfig>:
 8001070:	b510      	push	{r4, lr}
 8001072:	6802      	ldr	r2, [r0, #0]
 8001074:	680c      	ldr	r4, [r1, #0]
 8001076:	688b      	ldr	r3, [r1, #8]
 8001078:	6810      	ldr	r0, [r2, #0]
 800107a:	4323      	orrs	r3, r4
 800107c:	694c      	ldr	r4, [r1, #20]
 800107e:	f020 407f 	bic.w	r0, r0, #4278190080	; 0xff000000
 8001082:	4323      	orrs	r3, r4
 8001084:	698c      	ldr	r4, [r1, #24]
 8001086:	f420 007b 	bic.w	r0, r0, #16449536	; 0xfb0000
 800108a:	4323      	orrs	r3, r4
 800108c:	6a4c      	ldr	r4, [r1, #36]	; 0x24
 800108e:	f420 40fe 	bic.w	r0, r0, #32512	; 0x7f00
 8001092:	4323      	orrs	r3, r4
 8001094:	6acc      	ldr	r4, [r1, #44]	; 0x2c
 8001096:	f020 007c 	bic.w	r0, r0, #124	; 0x7c
 800109a:	4323      	orrs	r3, r4
 800109c:	4303      	orrs	r3, r0
 800109e:	7908      	ldrb	r0, [r1, #4]
 80010a0:	ea43 63c0 	orr.w	r3, r3, r0, lsl #27
 80010a4:	7b08      	ldrb	r0, [r1, #12]
 80010a6:	ea43 53c0 	orr.w	r3, r3, r0, lsl #23
 80010aa:	7b48      	ldrb	r0, [r1, #13]
 80010ac:	ea43 5380 	orr.w	r3, r3, r0, lsl #22
 80010b0:	7b88      	ldrb	r0, [r1, #14]
 80010b2:	ea43 5340 	orr.w	r3, r3, r0, lsl #21
 80010b6:	7bc8      	ldrb	r0, [r1, #15]
 80010b8:	ea43 5300 	orr.w	r3, r3, r0, lsl #20
 80010bc:	7c88      	ldrb	r0, [r1, #18]
 80010be:	ea43 4300 	orr.w	r3, r3, r0, lsl #16
 80010c2:	7f08      	ldrb	r0, [r1, #28]
 80010c4:	ea43 3300 	orr.w	r3, r3, r0, lsl #12
 80010c8:	7f48      	ldrb	r0, [r1, #29]
 80010ca:	ea43 23c0 	orr.w	r3, r3, r0, lsl #11
 80010ce:	7fc8      	ldrb	r0, [r1, #31]
 80010d0:	ea43 2340 	orr.w	r3, r3, r0, lsl #9
 80010d4:	f891 0028 	ldrb.w	r0, [r1, #40]	; 0x28
 80010d8:	ea43 1300 	orr.w	r3, r3, r0, lsl #4
 80010dc:	7c08      	ldrb	r0, [r1, #16]
 80010de:	fab0 f080 	clz	r0, r0
 80010e2:	0940      	lsrs	r0, r0, #5
 80010e4:	ea43 43c0 	orr.w	r3, r3, r0, lsl #19
 80010e8:	7c48      	ldrb	r0, [r1, #17]
 80010ea:	fab0 f080 	clz	r0, r0
 80010ee:	0940      	lsrs	r0, r0, #5
 80010f0:	ea43 4340 	orr.w	r3, r3, r0, lsl #17
 80010f4:	7f88      	ldrb	r0, [r1, #30]
 80010f6:	fab0 f080 	clz	r0, r0
 80010fa:	0940      	lsrs	r0, r0, #5
 80010fc:	ea43 2380 	orr.w	r3, r3, r0, lsl #10
 8001100:	f891 0020 	ldrb.w	r0, [r1, #32]
 8001104:	fab0 f080 	clz	r0, r0
 8001108:	0940      	lsrs	r0, r0, #5
 800110a:	ea43 2300 	orr.w	r3, r3, r0, lsl #8
 800110e:	6bc8      	ldr	r0, [r1, #60]	; 0x3c
 8001110:	6013      	str	r3, [r2, #0]
 8001112:	6853      	ldr	r3, [r2, #4]
 8001114:	f023 537c 	bic.w	r3, r3, #1056964608	; 0x3f000000
 8001118:	f423 23ef 	bic.w	r3, r3, #489472	; 0x77800
 800111c:	f423 63ff 	bic.w	r3, r3, #2040	; 0x7f8
 8001120:	f023 0307 	bic.w	r3, r3, #7
 8001124:	ea43 6340 	orr.w	r3, r3, r0, lsl #25
 8001128:	6b48      	ldr	r0, [r1, #52]	; 0x34
 800112a:	4303      	orrs	r3, r0
 800112c:	f891 0038 	ldrb.w	r0, [r1, #56]	; 0x38
 8001130:	ea43 6300 	orr.w	r3, r3, r0, lsl #24
 8001134:	f891 0030 	ldrb.w	r0, [r1, #48]	; 0x30
 8001138:	ea43 4380 	orr.w	r3, r3, r0, lsl #18
 800113c:	f891 0031 	ldrb.w	r0, [r1, #49]	; 0x31
 8001140:	ea43 4340 	orr.w	r3, r3, r0, lsl #17
 8001144:	f891 0032 	ldrb.w	r0, [r1, #50]	; 0x32
 8001148:	fab0 f080 	clz	r0, r0
 800114c:	0940      	lsrs	r0, r0, #5
 800114e:	ea43 4300 	orr.w	r3, r3, r0, lsl #16
 8001152:	6053      	str	r3, [r2, #4]
 8001154:	68d3      	ldr	r3, [r2, #12]
 8001156:	6c48      	ldr	r0, [r1, #68]	; 0x44
 8001158:	f423 7387 	bic.w	r3, r3, #270	; 0x10e
 800115c:	f023 0301 	bic.w	r3, r3, #1
 8001160:	4303      	orrs	r3, r0
 8001162:	f891 0040 	ldrb.w	r0, [r1, #64]	; 0x40
 8001166:	ea43 2300 	orr.w	r3, r3, r0, lsl #8
 800116a:	6c88      	ldr	r0, [r1, #72]	; 0x48
 800116c:	60d3      	str	r3, [r2, #12]
 800116e:	6f13      	ldr	r3, [r2, #112]	; 0x70
 8001170:	f023 03f2 	bic.w	r3, r3, #242	; 0xf2
 8001174:	041b      	lsls	r3, r3, #16
 8001176:	0c1b      	lsrs	r3, r3, #16
 8001178:	ea43 4300 	orr.w	r3, r3, r0, lsl #16
 800117c:	6d08      	ldr	r0, [r1, #80]	; 0x50
 800117e:	4303      	orrs	r3, r0
 8001180:	f891 0054 	ldrb.w	r0, [r1, #84]	; 0x54
 8001184:	ea43 0340 	orr.w	r3, r3, r0, lsl #1
 8001188:	f891 004c 	ldrb.w	r0, [r1, #76]	; 0x4c
 800118c:	fab0 f080 	clz	r0, r0
 8001190:	0940      	lsrs	r0, r0, #5
 8001192:	ea43 13c0 	orr.w	r3, r3, r0, lsl #7
 8001196:	6713      	str	r3, [r2, #112]	; 0x70
 8001198:	f8d2 0090 	ldr.w	r0, [r2, #144]	; 0x90
 800119c:	f891 3056 	ldrb.w	r3, [r1, #86]	; 0x56
 80011a0:	f020 0003 	bic.w	r0, r0, #3
 80011a4:	4303      	orrs	r3, r0
 80011a6:	f891 0055 	ldrb.w	r0, [r1, #85]	; 0x55
 80011aa:	ea43 0340 	orr.w	r3, r3, r0, lsl #1
 80011ae:	6d88      	ldr	r0, [r1, #88]	; 0x58
 80011b0:	f8c2 3090 	str.w	r3, [r2, #144]	; 0x90
 80011b4:	f8d2 3d00 	ldr.w	r3, [r2, #3328]	; 0xd00
 80011b8:	f023 0372 	bic.w	r3, r3, #114	; 0x72
 80011bc:	4303      	orrs	r3, r0
 80011be:	6dc8      	ldr	r0, [r1, #92]	; 0x5c
 80011c0:	f8c2 3d00 	str.w	r3, [r2, #3328]	; 0xd00
 80011c4:	f8d2 3d30 	ldr.w	r3, [r2, #3376]	; 0xd30
 80011c8:	f023 037b 	bic.w	r3, r3, #123	; 0x7b
 80011cc:	4303      	orrs	r3, r0
 80011ce:	f891 0061 	ldrb.w	r0, [r1, #97]	; 0x61
 80011d2:	ea43 1300 	orr.w	r3, r3, r0, lsl #4
 80011d6:	f891 0062 	ldrb.w	r0, [r1, #98]	; 0x62
 80011da:	f891 1060 	ldrb.w	r1, [r1, #96]	; 0x60
 80011de:	ea43 03c0 	orr.w	r3, r3, r0, lsl #3
 80011e2:	fab1 f181 	clz	r1, r1
 80011e6:	0949      	lsrs	r1, r1, #5
 80011e8:	ea43 1381 	orr.w	r3, r3, r1, lsl #6
 80011ec:	f8c2 3d30 	str.w	r3, [r2, #3376]	; 0xd30
 80011f0:	bd10      	pop	{r4, pc}
	...

080011f4 <ETH_SetDMAConfig>:
 80011f4:	6803      	ldr	r3, [r0, #0]
 80011f6:	6808      	ldr	r0, [r1, #0]
 80011f8:	f503 5380 	add.w	r3, r3, #4096	; 0x1000
 80011fc:	681a      	ldr	r2, [r3, #0]
 80011fe:	f422 42f0 	bic.w	r2, r2, #30720	; 0x7800
 8001202:	f022 0202 	bic.w	r2, r2, #2
 8001206:	4302      	orrs	r2, r0
 8001208:	b510      	push	{r4, lr}
 800120a:	601a      	str	r2, [r3, #0]
 800120c:	7b0a      	ldrb	r2, [r1, #12]
 800120e:	6858      	ldr	r0, [r3, #4]
 8001210:	790c      	ldrb	r4, [r1, #4]
 8001212:	03d2      	lsls	r2, r2, #15
 8001214:	f420 4050 	bic.w	r0, r0, #53248	; 0xd000
 8001218:	ea42 3204 	orr.w	r2, r2, r4, lsl #12
 800121c:	688c      	ldr	r4, [r1, #8]
 800121e:	f020 0001 	bic.w	r0, r0, #1
 8001222:	4322      	orrs	r2, r4
 8001224:	4302      	orrs	r2, r0
 8001226:	605a      	str	r2, [r3, #4]
 8001228:	6a0a      	ldr	r2, [r1, #32]
 800122a:	7b48      	ldrb	r0, [r1, #13]
 800122c:	f8d3 4100 	ldr.w	r4, [r3, #256]	; 0x100
 8001230:	ea42 4200 	orr.w	r2, r2, r0, lsl #16
 8001234:	4810      	ldr	r0, [pc, #64]	; (8001278 <ETH_SetDMAConfig+0x84>)
 8001236:	4020      	ands	r0, r4
 8001238:	4302      	orrs	r2, r0
 800123a:	f8c3 2100 	str.w	r2, [r3, #256]	; 0x100
 800123e:	7f4a      	ldrb	r2, [r1, #29]
 8001240:	7d08      	ldrb	r0, [r1, #20]
 8001242:	0312      	lsls	r2, r2, #12
 8001244:	f8d3 4104 	ldr.w	r4, [r3, #260]	; 0x104
 8001248:	ea42 1200 	orr.w	r2, r2, r0, lsl #4
 800124c:	6908      	ldr	r0, [r1, #16]
 800124e:	4302      	orrs	r2, r0
 8001250:	480a      	ldr	r0, [pc, #40]	; (800127c <ETH_SetDMAConfig+0x88>)
 8001252:	4020      	ands	r0, r4
 8001254:	4302      	orrs	r2, r0
 8001256:	f8c3 2104 	str.w	r2, [r3, #260]	; 0x104
 800125a:	f8d3 0108 	ldr.w	r0, [r3, #264]	; 0x108
 800125e:	7f0c      	ldrb	r4, [r1, #28]
 8001260:	698a      	ldr	r2, [r1, #24]
 8001262:	f020 4100 	bic.w	r1, r0, #2147483648	; 0x80000000
 8001266:	ea42 72c4 	orr.w	r2, r2, r4, lsl #31
 800126a:	f421 117c 	bic.w	r1, r1, #4128768	; 0x3f0000
 800126e:	430a      	orrs	r2, r1
 8001270:	f8c3 2108 	str.w	r2, [r3, #264]	; 0x108
 8001274:	bd10      	pop	{r4, pc}
 8001276:	bf00      	nop
 8001278:	fffec000 	.word	0xfffec000
 800127c:	ffc0efef 	.word	0xffc0efef

08001280 <HAL_ETH_SetMDIOClockRange>:
 8001280:	b538      	push	{r3, r4, r5, lr}
 8001282:	6803      	ldr	r3, [r0, #0]
 8001284:	4605      	mov	r5, r0
 8001286:	f8d3 4200 	ldr.w	r4, [r3, #512]	; 0x200
 800128a:	f001 facf 	bl	800282c <HAL_RCC_GetHCLKFreq>
 800128e:	4b12      	ldr	r3, [pc, #72]	; (80012d8 <HAL_ETH_SetMDIOClockRange+0x58>)
 8001290:	4a12      	ldr	r2, [pc, #72]	; (80012dc <HAL_ETH_SetMDIOClockRange+0x5c>)
 8001292:	f424 6470 	bic.w	r4, r4, #3840	; 0xf00
 8001296:	4403      	add	r3, r0
 8001298:	4293      	cmp	r3, r2
 800129a:	d205      	bcs.n	80012a8 <HAL_ETH_SetMDIOClockRange+0x28>
 800129c:	f444 7400 	orr.w	r4, r4, #512	; 0x200
 80012a0:	682b      	ldr	r3, [r5, #0]
 80012a2:	f8c3 4200 	str.w	r4, [r3, #512]	; 0x200
 80012a6:	bd38      	pop	{r3, r4, r5, pc}
 80012a8:	4b0d      	ldr	r3, [pc, #52]	; (80012e0 <HAL_ETH_SetMDIOClockRange+0x60>)
 80012aa:	4a0e      	ldr	r2, [pc, #56]	; (80012e4 <HAL_ETH_SetMDIOClockRange+0x64>)
 80012ac:	4403      	add	r3, r0
 80012ae:	4293      	cmp	r3, r2
 80012b0:	d802      	bhi.n	80012b8 <HAL_ETH_SetMDIOClockRange+0x38>
 80012b2:	f444 7440 	orr.w	r4, r4, #768	; 0x300
 80012b6:	e7f3      	b.n	80012a0 <HAL_ETH_SetMDIOClockRange+0x20>
 80012b8:	4b0b      	ldr	r3, [pc, #44]	; (80012e8 <HAL_ETH_SetMDIOClockRange+0x68>)
 80012ba:	4a0c      	ldr	r2, [pc, #48]	; (80012ec <HAL_ETH_SetMDIOClockRange+0x6c>)
 80012bc:	4403      	add	r3, r0
 80012be:	4293      	cmp	r3, r2
 80012c0:	d3ee      	bcc.n	80012a0 <HAL_ETH_SetMDIOClockRange+0x20>
 80012c2:	4b0b      	ldr	r3, [pc, #44]	; (80012f0 <HAL_ETH_SetMDIOClockRange+0x70>)
 80012c4:	4a0b      	ldr	r2, [pc, #44]	; (80012f4 <HAL_ETH_SetMDIOClockRange+0x74>)
 80012c6:	4403      	add	r3, r0
 80012c8:	4293      	cmp	r3, r2
 80012ca:	bf94      	ite	ls
 80012cc:	f444 7480 	orrls.w	r4, r4, #256	; 0x100
 80012d0:	f444 6480 	orrhi.w	r4, r4, #1024	; 0x400
 80012d4:	e7e4      	b.n	80012a0 <HAL_ETH_SetMDIOClockRange+0x20>
 80012d6:	bf00      	nop
 80012d8:	feced300 	.word	0xfeced300
 80012dc:	00e4e1c0 	.word	0x00e4e1c0
 80012e0:	fde9f140 	.word	0xfde9f140
 80012e4:	017d783f 	.word	0x017d783f
 80012e8:	fc6c7900 	.word	0xfc6c7900
 80012ec:	02625a00 	.word	0x02625a00
 80012f0:	fa0a1f00 	.word	0xfa0a1f00
 80012f4:	02faf07f 	.word	0x02faf07f

080012f8 <HAL_ETH_Init>:
 80012f8:	b5f0      	push	{r4, r5, r6, r7, lr}
 80012fa:	4604      	mov	r4, r0
 80012fc:	b0a5      	sub	sp, #148	; 0x94
 80012fe:	2800      	cmp	r0, #0
 8001300:	f000 80af 	beq.w	8001462 <HAL_ETH_Init+0x16a>
 8001304:	f8d0 3084 	ldr.w	r3, [r0, #132]	; 0x84
 8001308:	b923      	cbnz	r3, 8001314 <HAL_ETH_Init+0x1c>
 800130a:	2323      	movs	r3, #35	; 0x23
 800130c:	f8c0 3084 	str.w	r3, [r0, #132]	; 0x84
 8001310:	f7ff f99a 	bl	8000648 <HAL_ETH_MspInit>
 8001314:	4b7b      	ldr	r3, [pc, #492]	; (8001504 <HAL_ETH_Init+0x20c>)
 8001316:	f8d3 20f4 	ldr.w	r2, [r3, #244]	; 0xf4
 800131a:	f042 0202 	orr.w	r2, r2, #2
 800131e:	f8c3 20f4 	str.w	r2, [r3, #244]	; 0xf4
 8001322:	f8d3 30f4 	ldr.w	r3, [r3, #244]	; 0xf4
 8001326:	7a20      	ldrb	r0, [r4, #8]
 8001328:	f003 0302 	and.w	r3, r3, #2
 800132c:	9301      	str	r3, [sp, #4]
 800132e:	9b01      	ldr	r3, [sp, #4]
 8001330:	2800      	cmp	r0, #0
 8001332:	f040 8086 	bne.w	8001442 <HAL_ETH_Init+0x14a>
 8001336:	f7ff fe3f 	bl	8000fb8 <HAL_SYSCFG_ETHInterfaceSelect>
 800133a:	4b73      	ldr	r3, [pc, #460]	; (8001508 <HAL_ETH_Init+0x210>)
 800133c:	685b      	ldr	r3, [r3, #4]
 800133e:	6823      	ldr	r3, [r4, #0]
 8001340:	f503 5380 	add.w	r3, r3, #4096	; 0x1000
 8001344:	681a      	ldr	r2, [r3, #0]
 8001346:	f042 0201 	orr.w	r2, r2, #1
 800134a:	601a      	str	r2, [r3, #0]
 800134c:	f7ff fe16 	bl	8000f7c <HAL_GetTick>
 8001350:	4606      	mov	r6, r0
 8001352:	6823      	ldr	r3, [r4, #0]
 8001354:	f503 5380 	add.w	r3, r3, #4096	; 0x1000
 8001358:	681d      	ldr	r5, [r3, #0]
 800135a:	f015 0501 	ands.w	r5, r5, #1
 800135e:	d173      	bne.n	8001448 <HAL_ETH_Init+0x150>
 8001360:	4620      	mov	r0, r4
 8001362:	2601      	movs	r6, #1
 8001364:	f7ff ff8c 	bl	8001280 <HAL_ETH_SetMDIOClockRange>
 8001368:	f001 fa60 	bl	800282c <HAL_RCC_GetHCLKFreq>
 800136c:	4b67      	ldr	r3, [pc, #412]	; (800150c <HAL_ETH_Init+0x214>)
 800136e:	f44f 4180 	mov.w	r1, #16384	; 0x4000
 8001372:	6827      	ldr	r7, [r4, #0]
 8001374:	9514      	str	r5, [sp, #80]	; 0x50
 8001376:	f88d 6030 	strb.w	r6, [sp, #48]	; 0x30
 800137a:	f88d 5054 	strb.w	r5, [sp, #84]	; 0x54
 800137e:	f88d 5064 	strb.w	r5, [sp, #100]	; 0x64
 8001382:	951a      	str	r5, [sp, #104]	; 0x68
 8001384:	951d      	str	r5, [sp, #116]	; 0x74
 8001386:	f88d 506c 	strb.w	r5, [sp, #108]	; 0x6c
 800138a:	f88d 604c 	strb.w	r6, [sp, #76]	; 0x4c
 800138e:	f8ad 608c 	strh.w	r6, [sp, #140]	; 0x8c
 8001392:	f88d 508e 	strb.w	r5, [sp, #142]	; 0x8e
 8001396:	951f      	str	r5, [sp, #124]	; 0x7c
 8001398:	f8ad 5080 	strh.w	r5, [sp, #128]	; 0x80
 800139c:	f88d 5082 	strb.w	r5, [sp, #130]	; 0x82
 80013a0:	9516      	str	r5, [sp, #88]	; 0x58
 80013a2:	f8ad 505c 	strh.w	r5, [sp, #92]	; 0x5c
 80013a6:	f88d 605e 	strb.w	r6, [sp, #94]	; 0x5e
 80013aa:	950d      	str	r5, [sp, #52]	; 0x34
 80013ac:	f88d 503e 	strb.w	r5, [sp, #62]	; 0x3e
 80013b0:	951c      	str	r5, [sp, #112]	; 0x70
 80013b2:	f88d 6078 	strb.w	r6, [sp, #120]	; 0x78
 80013b6:	fbb0 f0f3 	udiv	r0, r0, r3
 80013ba:	f44f 63c3 	mov.w	r3, #1560	; 0x618
 80013be:	3801      	subs	r0, #1
 80013c0:	9318      	str	r3, [sp, #96]	; 0x60
 80013c2:	f04f 5340 	mov.w	r3, #805306368	; 0x30000000
 80013c6:	f8c7 00dc 	str.w	r0, [r7, #220]	; 0xdc
 80013ca:	2002      	movs	r0, #2
 80013cc:	930b      	str	r3, [sp, #44]	; 0x2c
 80013ce:	f44f 5300 	mov.w	r3, #8192	; 0x2000
 80013d2:	e9cd 1310 	strd	r1, r3, [sp, #64]	; 0x40
 80013d6:	f44f 3380 	mov.w	r3, #65536	; 0x10000
 80013da:	a90b      	add	r1, sp, #44	; 0x2c
 80013dc:	9312      	str	r3, [sp, #72]	; 0x48
 80013de:	2320      	movs	r3, #32
 80013e0:	e9cd 0321 	strd	r0, r3, [sp, #132]	; 0x84
 80013e4:	4b4a      	ldr	r3, [pc, #296]	; (8001510 <HAL_ETH_Init+0x218>)
 80013e6:	4620      	mov	r0, r4
 80013e8:	930e      	str	r3, [sp, #56]	; 0x38
 80013ea:	f240 1301 	movw	r3, #257	; 0x101
 80013ee:	f8ad 303c 	strh.w	r3, [sp, #60]	; 0x3c
 80013f2:	f7ff fe3d 	bl	8001070 <ETH_SetMACConfig>
 80013f6:	f44f 1300 	mov.w	r3, #2097152	; 0x200000
 80013fa:	a902      	add	r1, sp, #8
 80013fc:	4620      	mov	r0, r4
 80013fe:	f88d 600c 	strb.w	r6, [sp, #12]
 8001402:	9306      	str	r3, [sp, #24]
 8001404:	9308      	str	r3, [sp, #32]
 8001406:	f44f 7306 	mov.w	r3, #536	; 0x218
 800140a:	9502      	str	r5, [sp, #8]
 800140c:	930a      	str	r3, [sp, #40]	; 0x28
 800140e:	9604      	str	r6, [sp, #16]
 8001410:	f8ad 5014 	strh.w	r5, [sp, #20]
 8001414:	f88d 501c 	strb.w	r5, [sp, #28]
 8001418:	f8ad 5024 	strh.w	r5, [sp, #36]	; 0x24
 800141c:	f7ff feea 	bl	80011f4 <ETH_SetDMAConfig>
 8001420:	f507 5280 	add.w	r2, r7, #4096	; 0x1000
 8001424:	6960      	ldr	r0, [r4, #20]
 8001426:	f8d2 3100 	ldr.w	r3, [r2, #256]	; 0x100
 800142a:	f010 0103 	ands.w	r1, r0, #3
 800142e:	f423 13e0 	bic.w	r3, r3, #1835008	; 0x1c0000
 8001432:	f443 2300 	orr.w	r3, r3, #524288	; 0x80000
 8001436:	f8c2 3100 	str.w	r3, [r2, #256]	; 0x100
 800143a:	d014      	beq.n	8001466 <HAL_ETH_Init+0x16e>
 800143c:	f8c4 6088 	str.w	r6, [r4, #136]	; 0x88
 8001440:	e00c      	b.n	800145c <HAL_ETH_Init+0x164>
 8001442:	f44f 0000 	mov.w	r0, #8388608	; 0x800000
 8001446:	e776      	b.n	8001336 <HAL_ETH_Init+0x3e>
 8001448:	f7ff fd98 	bl	8000f7c <HAL_GetTick>
 800144c:	1b80      	subs	r0, r0, r6
 800144e:	f5b0 7ffa 	cmp.w	r0, #500	; 0x1f4
 8001452:	f67f af7e 	bls.w	8001352 <HAL_ETH_Init+0x5a>
 8001456:	2304      	movs	r3, #4
 8001458:	f8c4 3088 	str.w	r3, [r4, #136]	; 0x88
 800145c:	23e0      	movs	r3, #224	; 0xe0
 800145e:	f8c4 3084 	str.w	r3, [r4, #132]	; 0x84
 8001462:	2001      	movs	r0, #1
 8001464:	e04c      	b.n	8001500 <HAL_ETH_Init+0x208>
 8001466:	f8d2 3108 	ldr.w	r3, [r2, #264]	; 0x108
 800146a:	f104 0514 	add.w	r5, r4, #20
 800146e:	f423 43ff 	bic.w	r3, r3, #32640	; 0x7f80
 8001472:	f023 037e 	bic.w	r3, r3, #126	; 0x7e
 8001476:	ea43 0340 	orr.w	r3, r3, r0, lsl #1
 800147a:	68e0      	ldr	r0, [r4, #12]
 800147c:	f8c2 3108 	str.w	r3, [r2, #264]	; 0x108
 8001480:	f100 0660 	add.w	r6, r0, #96	; 0x60
 8001484:	4603      	mov	r3, r0
 8001486:	6019      	str	r1, [r3, #0]
 8001488:	6059      	str	r1, [r3, #4]
 800148a:	6099      	str	r1, [r3, #8]
 800148c:	60d9      	str	r1, [r3, #12]
 800148e:	f845 3f04 	str.w	r3, [r5, #4]!
 8001492:	3318      	adds	r3, #24
 8001494:	42b3      	cmp	r3, r6
 8001496:	d1f6      	bne.n	8001486 <HAL_ETH_Init+0x18e>
 8001498:	2303      	movs	r3, #3
 800149a:	62a1      	str	r1, [r4, #40]	; 0x28
 800149c:	f104 0544 	add.w	r5, r4, #68	; 0x44
 80014a0:	f8c2 312c 	str.w	r3, [r2, #300]	; 0x12c
 80014a4:	2300      	movs	r3, #0
 80014a6:	f8c2 0114 	str.w	r0, [r2, #276]	; 0x114
 80014aa:	f8c2 0120 	str.w	r0, [r2, #288]	; 0x120
 80014ae:	6920      	ldr	r0, [r4, #16]
 80014b0:	f100 0660 	add.w	r6, r0, #96	; 0x60
 80014b4:	4601      	mov	r1, r0
 80014b6:	600b      	str	r3, [r1, #0]
 80014b8:	604b      	str	r3, [r1, #4]
 80014ba:	608b      	str	r3, [r1, #8]
 80014bc:	60cb      	str	r3, [r1, #12]
 80014be:	e9c1 3304 	strd	r3, r3, [r1, #16]
 80014c2:	f845 1f04 	str.w	r1, [r5, #4]!
 80014c6:	3118      	adds	r1, #24
 80014c8:	42b1      	cmp	r1, r6
 80014ca:	d1f4      	bne.n	80014b6 <HAL_ETH_Init+0x1be>
 80014cc:	2103      	movs	r1, #3
 80014ce:	65a3      	str	r3, [r4, #88]	; 0x58
 80014d0:	e9c4 3317 	strd	r3, r3, [r4, #92]	; 0x5c
 80014d4:	e9c4 331a 	strd	r3, r3, [r4, #104]	; 0x68
 80014d8:	f8c2 1130 	str.w	r1, [r2, #304]	; 0x130
 80014dc:	f8c2 011c 	str.w	r0, [r2, #284]	; 0x11c
 80014e0:	3048      	adds	r0, #72	; 0x48
 80014e2:	f8c2 0128 	str.w	r0, [r2, #296]	; 0x128
 80014e6:	2000      	movs	r0, #0
 80014e8:	6862      	ldr	r2, [r4, #4]
 80014ea:	8891      	ldrh	r1, [r2, #4]
 80014ec:	f8c7 1300 	str.w	r1, [r7, #768]	; 0x300
 80014f0:	6812      	ldr	r2, [r2, #0]
 80014f2:	f8c7 2304 	str.w	r2, [r7, #772]	; 0x304
 80014f6:	f8c4 3088 	str.w	r3, [r4, #136]	; 0x88
 80014fa:	2310      	movs	r3, #16
 80014fc:	f8c4 3084 	str.w	r3, [r4, #132]	; 0x84
 8001500:	b025      	add	sp, #148	; 0x94
 8001502:	bdf0      	pop	{r4, r5, r6, r7, pc}
 8001504:	58024400 	.word	0x58024400
 8001508:	58000400 	.word	0x58000400
 800150c:	000f4240 	.word	0x000f4240
 8001510:	01010000 	.word	0x01010000

08001514 <HAL_GPIO_Init>:
 8001514:	e92d 4ff7 	stmdb	sp!, {r0, r1, r2, r4, r5, r6, r7, r8, r9, sl, fp, lr}
 8001518:	2300      	movs	r3, #0
 800151a:	f8df 91c8 	ldr.w	r9, [pc, #456]	; 80016e4 <HAL_GPIO_Init+0x1d0>
 800151e:	f04f 44b0 	mov.w	r4, #1476395008	; 0x58000000
 8001522:	680a      	ldr	r2, [r1, #0]
 8001524:	fa32 f503 	lsrs.w	r5, r2, r3
 8001528:	d102      	bne.n	8001530 <HAL_GPIO_Init+0x1c>
 800152a:	b003      	add	sp, #12
 800152c:	e8bd 8ff0 	ldmia.w	sp!, {r4, r5, r6, r7, r8, r9, sl, fp, pc}
 8001530:	f04f 0e01 	mov.w	lr, #1
 8001534:	fa0e fe03 	lsl.w	lr, lr, r3
 8001538:	ea1e 0202 	ands.w	r2, lr, r2
 800153c:	f000 80bc 	beq.w	80016b8 <HAL_GPIO_Init+0x1a4>
 8001540:	684e      	ldr	r6, [r1, #4]
 8001542:	ea4f 0843 	mov.w	r8, r3, lsl #1
 8001546:	f04f 0c03 	mov.w	ip, #3
 800154a:	f006 0503 	and.w	r5, r6, #3
 800154e:	fa0c fc08 	lsl.w	ip, ip, r8
 8001552:	1e6f      	subs	r7, r5, #1
 8001554:	ea6f 0c0c 	mvn.w	ip, ip
 8001558:	2f01      	cmp	r7, #1
 800155a:	d834      	bhi.n	80015c6 <HAL_GPIO_Init+0xb2>
 800155c:	6887      	ldr	r7, [r0, #8]
 800155e:	ea07 0a0c 	and.w	sl, r7, ip
 8001562:	68cf      	ldr	r7, [r1, #12]
 8001564:	fa07 f708 	lsl.w	r7, r7, r8
 8001568:	ea47 070a 	orr.w	r7, r7, sl
 800156c:	6087      	str	r7, [r0, #8]
 800156e:	6847      	ldr	r7, [r0, #4]
 8001570:	ea27 0e0e 	bic.w	lr, r7, lr
 8001574:	f3c6 1700 	ubfx	r7, r6, #4, #1
 8001578:	409f      	lsls	r7, r3
 800157a:	ea47 070e 	orr.w	r7, r7, lr
 800157e:	6047      	str	r7, [r0, #4]
 8001580:	68c7      	ldr	r7, [r0, #12]
 8001582:	2d02      	cmp	r5, #2
 8001584:	ea07 0e0c 	and.w	lr, r7, ip
 8001588:	688f      	ldr	r7, [r1, #8]
 800158a:	fa07 f708 	lsl.w	r7, r7, r8
 800158e:	ea47 070e 	orr.w	r7, r7, lr
 8001592:	60c7      	str	r7, [r0, #12]
 8001594:	d119      	bne.n	80015ca <HAL_GPIO_Init+0xb6>
 8001596:	ea4f 0ad3 	mov.w	sl, r3, lsr #3
 800159a:	f003 0b07 	and.w	fp, r3, #7
 800159e:	f04f 0e0f 	mov.w	lr, #15
 80015a2:	eb00 0a8a 	add.w	sl, r0, sl, lsl #2
 80015a6:	ea4f 0b8b 	mov.w	fp, fp, lsl #2
 80015aa:	f8da 7020 	ldr.w	r7, [sl, #32]
 80015ae:	fa0e fe0b 	lsl.w	lr, lr, fp
 80015b2:	ea27 0e0e 	bic.w	lr, r7, lr
 80015b6:	690f      	ldr	r7, [r1, #16]
 80015b8:	fa07 f70b 	lsl.w	r7, r7, fp
 80015bc:	ea47 070e 	orr.w	r7, r7, lr
 80015c0:	f8ca 7020 	str.w	r7, [sl, #32]
 80015c4:	e001      	b.n	80015ca <HAL_GPIO_Init+0xb6>
 80015c6:	2d03      	cmp	r5, #3
 80015c8:	d1da      	bne.n	8001580 <HAL_GPIO_Init+0x6c>
 80015ca:	6807      	ldr	r7, [r0, #0]
 80015cc:	fa05 f508 	lsl.w	r5, r5, r8
 80015d0:	f416 3f40 	tst.w	r6, #196608	; 0x30000
 80015d4:	ea07 070c 	and.w	r7, r7, ip
 80015d8:	ea45 0507 	orr.w	r5, r5, r7
 80015dc:	6005      	str	r5, [r0, #0]
 80015de:	d06b      	beq.n	80016b8 <HAL_GPIO_Init+0x1a4>
 80015e0:	f8d9 50f4 	ldr.w	r5, [r9, #244]	; 0xf4
 80015e4:	f023 0703 	bic.w	r7, r3, #3
 80015e8:	f003 0c03 	and.w	ip, r3, #3
 80015ec:	f045 0502 	orr.w	r5, r5, #2
 80015f0:	f107 47b0 	add.w	r7, r7, #1476395008	; 0x58000000
 80015f4:	ea4f 0c8c 	mov.w	ip, ip, lsl #2
 80015f8:	f8c9 50f4 	str.w	r5, [r9, #244]	; 0xf4
 80015fc:	f507 6780 	add.w	r7, r7, #1024	; 0x400
 8001600:	f8d9 50f4 	ldr.w	r5, [r9, #244]	; 0xf4
 8001604:	f005 0502 	and.w	r5, r5, #2
 8001608:	9501      	str	r5, [sp, #4]
 800160a:	9d01      	ldr	r5, [sp, #4]
 800160c:	250f      	movs	r5, #15
 800160e:	f8d7 e008 	ldr.w	lr, [r7, #8]
 8001612:	fa05 f50c 	lsl.w	r5, r5, ip
 8001616:	ea2e 0e05 	bic.w	lr, lr, r5
 800161a:	4d31      	ldr	r5, [pc, #196]	; (80016e0 <HAL_GPIO_Init+0x1cc>)
 800161c:	42a8      	cmp	r0, r5
 800161e:	d04d      	beq.n	80016bc <HAL_GPIO_Init+0x1a8>
 8001620:	f505 6580 	add.w	r5, r5, #1024	; 0x400
 8001624:	42a8      	cmp	r0, r5
 8001626:	d04b      	beq.n	80016c0 <HAL_GPIO_Init+0x1ac>
 8001628:	f505 6580 	add.w	r5, r5, #1024	; 0x400
 800162c:	42a8      	cmp	r0, r5
 800162e:	d049      	beq.n	80016c4 <HAL_GPIO_Init+0x1b0>
 8001630:	f505 6580 	add.w	r5, r5, #1024	; 0x400
 8001634:	42a8      	cmp	r0, r5
 8001636:	d047      	beq.n	80016c8 <HAL_GPIO_Init+0x1b4>
 8001638:	f505 6580 	add.w	r5, r5, #1024	; 0x400
 800163c:	42a8      	cmp	r0, r5
 800163e:	d045      	beq.n	80016cc <HAL_GPIO_Init+0x1b8>
 8001640:	f505 6580 	add.w	r5, r5, #1024	; 0x400
 8001644:	42a8      	cmp	r0, r5
 8001646:	d043      	beq.n	80016d0 <HAL_GPIO_Init+0x1bc>
 8001648:	f505 6580 	add.w	r5, r5, #1024	; 0x400
 800164c:	42a8      	cmp	r0, r5
 800164e:	d041      	beq.n	80016d4 <HAL_GPIO_Init+0x1c0>
 8001650:	f505 6580 	add.w	r5, r5, #1024	; 0x400
 8001654:	42a8      	cmp	r0, r5
 8001656:	d03f      	beq.n	80016d8 <HAL_GPIO_Init+0x1c4>
 8001658:	f505 6580 	add.w	r5, r5, #1024	; 0x400
 800165c:	42a8      	cmp	r0, r5
 800165e:	d03d      	beq.n	80016dc <HAL_GPIO_Init+0x1c8>
 8001660:	f505 6580 	add.w	r5, r5, #1024	; 0x400
 8001664:	42a8      	cmp	r0, r5
 8001666:	bf0c      	ite	eq
 8001668:	2509      	moveq	r5, #9
 800166a:	250a      	movne	r5, #10
 800166c:	fa05 f50c 	lsl.w	r5, r5, ip
 8001670:	f416 1f80 	tst.w	r6, #1048576	; 0x100000
 8001674:	ea45 050e 	orr.w	r5, r5, lr
 8001678:	60bd      	str	r5, [r7, #8]
 800167a:	ea6f 0702 	mvn.w	r7, r2
 800167e:	6825      	ldr	r5, [r4, #0]
 8001680:	bf0c      	ite	eq
 8001682:	403d      	andeq	r5, r7
 8001684:	4315      	orrne	r5, r2
 8001686:	f416 1f00 	tst.w	r6, #2097152	; 0x200000
 800168a:	6025      	str	r5, [r4, #0]
 800168c:	6865      	ldr	r5, [r4, #4]
 800168e:	bf0c      	ite	eq
 8001690:	403d      	andeq	r5, r7
 8001692:	4315      	orrne	r5, r2
 8001694:	f416 3f00 	tst.w	r6, #131072	; 0x20000
 8001698:	6065      	str	r5, [r4, #4]
 800169a:	f8d4 5084 	ldr.w	r5, [r4, #132]	; 0x84
 800169e:	bf0c      	ite	eq
 80016a0:	403d      	andeq	r5, r7
 80016a2:	4315      	orrne	r5, r2
 80016a4:	03f6      	lsls	r6, r6, #15
 80016a6:	f8c4 5084 	str.w	r5, [r4, #132]	; 0x84
 80016aa:	f8d4 5080 	ldr.w	r5, [r4, #128]	; 0x80
 80016ae:	bf54      	ite	pl
 80016b0:	403d      	andpl	r5, r7
 80016b2:	4315      	orrmi	r5, r2
 80016b4:	f8c4 5080 	str.w	r5, [r4, #128]	; 0x80
 80016b8:	3301      	adds	r3, #1
 80016ba:	e732      	b.n	8001522 <HAL_GPIO_Init+0xe>
 80016bc:	2500      	movs	r5, #0
 80016be:	e7d5      	b.n	800166c <HAL_GPIO_Init+0x158>
 80016c0:	2501      	movs	r5, #1
 80016c2:	e7d3      	b.n	800166c <HAL_GPIO_Init+0x158>
 80016c4:	2502      	movs	r5, #2
 80016c6:	e7d1      	b.n	800166c <HAL_GPIO_Init+0x158>
 80016c8:	2503      	movs	r5, #3
 80016ca:	e7cf      	b.n	800166c <HAL_GPIO_Init+0x158>
 80016cc:	2504      	movs	r5, #4
 80016ce:	e7cd      	b.n	800166c <HAL_GPIO_Init+0x158>
 80016d0:	2505      	movs	r5, #5
 80016d2:	e7cb      	b.n	800166c <HAL_GPIO_Init+0x158>
 80016d4:	2506      	movs	r5, #6
 80016d6:	e7c9      	b.n	800166c <HAL_GPIO_Init+0x158>
 80016d8:	2507      	movs	r5, #7
 80016da:	e7c7      	b.n	800166c <HAL_GPIO_Init+0x158>
 80016dc:	2508      	movs	r5, #8
 80016de:	e7c5      	b.n	800166c <HAL_GPIO_Init+0x158>
 80016e0:	58020000 	.word	0x58020000
 80016e4:	58024400 	.word	0x58024400

080016e8 <HAL_GPIO_WritePin>:
 80016e8:	b10a      	cbz	r2, 80016ee <HAL_GPIO_WritePin+0x6>
 80016ea:	6181      	str	r1, [r0, #24]
 80016ec:	4770      	bx	lr
 80016ee:	0409      	lsls	r1, r1, #16
 80016f0:	e7fb      	b.n	80016ea <HAL_GPIO_WritePin+0x2>

080016f2 <HAL_GPIO_TogglePin>:
 80016f2:	6943      	ldr	r3, [r0, #20]
 80016f4:	ea01 0203 	and.w	r2, r1, r3
 80016f8:	ea21 0103 	bic.w	r1, r1, r3
 80016fc:	ea41 4102 	orr.w	r1, r1, r2, lsl #16
 8001700:	6181      	str	r1, [r0, #24]
 8001702:	4770      	bx	lr

08001704 <I2C_Flush_TXDR>:
 8001704:	6803      	ldr	r3, [r0, #0]
 8001706:	699a      	ldr	r2, [r3, #24]
 8001708:	0791      	lsls	r1, r2, #30
 800170a:	d501      	bpl.n	8001710 <I2C_Flush_TXDR+0xc>
 800170c:	2200      	movs	r2, #0
 800170e:	629a      	str	r2, [r3, #40]	; 0x28
 8001710:	699a      	ldr	r2, [r3, #24]
 8001712:	07d2      	lsls	r2, r2, #31
 8001714:	d403      	bmi.n	800171e <I2C_Flush_TXDR+0x1a>
 8001716:	699a      	ldr	r2, [r3, #24]
 8001718:	f042 0201 	orr.w	r2, r2, #1
 800171c:	619a      	str	r2, [r3, #24]
 800171e:	4770      	bx	lr

08001720 <I2C_TransferConfig>:
 8001720:	b530      	push	{r4, r5, lr}
 8001722:	9d03      	ldr	r5, [sp, #12]
 8001724:	f3c1 0109 	ubfx	r1, r1, #0, #10
 8001728:	6804      	ldr	r4, [r0, #0]
 800172a:	432b      	orrs	r3, r5
 800172c:	6860      	ldr	r0, [r4, #4]
 800172e:	ea43 4302 	orr.w	r3, r3, r2, lsl #16
 8001732:	4a05      	ldr	r2, [pc, #20]	; (8001748 <I2C_TransferConfig+0x28>)
 8001734:	430b      	orrs	r3, r1
 8001736:	ea42 5255 	orr.w	r2, r2, r5, lsr #21
 800173a:	f023 4300 	bic.w	r3, r3, #2147483648	; 0x80000000
 800173e:	ea20 0002 	bic.w	r0, r0, r2
 8001742:	4303      	orrs	r3, r0
 8001744:	6063      	str	r3, [r4, #4]
 8001746:	bd30      	pop	{r4, r5, pc}
 8001748:	03ff63ff 	.word	0x03ff63ff

0800174c <I2C_IsErrorOccurred>:
 800174c:	6803      	ldr	r3, [r0, #0]
 800174e:	e92d 41f0 	stmdb	sp!, {r4, r5, r6, r7, r8, lr}
 8001752:	699c      	ldr	r4, [r3, #24]
 8001754:	4605      	mov	r5, r0
 8001756:	460f      	mov	r7, r1
 8001758:	4616      	mov	r6, r2
 800175a:	f014 0410 	ands.w	r4, r4, #16
 800175e:	d06f      	beq.n	8001840 <I2C_IsErrorOccurred+0xf4>
 8001760:	2400      	movs	r4, #0
 8001762:	2210      	movs	r2, #16
 8001764:	46a0      	mov	r8, r4
 8001766:	61da      	str	r2, [r3, #28]
 8001768:	682b      	ldr	r3, [r5, #0]
 800176a:	699a      	ldr	r2, [r3, #24]
 800176c:	0690      	lsls	r0, r2, #26
 800176e:	d461      	bmi.n	8001834 <I2C_IsErrorOccurred+0xe8>
 8001770:	f1b8 0f00 	cmp.w	r8, #0
 8001774:	d035      	beq.n	80017e2 <I2C_IsErrorOccurred+0x96>
 8001776:	f044 0404 	orr.w	r4, r4, #4
 800177a:	2001      	movs	r0, #1
 800177c:	682e      	ldr	r6, [r5, #0]
 800177e:	69b3      	ldr	r3, [r6, #24]
 8001780:	05d9      	lsls	r1, r3, #23
 8001782:	d505      	bpl.n	8001790 <I2C_IsErrorOccurred+0x44>
 8001784:	f44f 7280 	mov.w	r2, #256	; 0x100
 8001788:	f044 0401 	orr.w	r4, r4, #1
 800178c:	2001      	movs	r0, #1
 800178e:	61f2      	str	r2, [r6, #28]
 8001790:	055a      	lsls	r2, r3, #21
 8001792:	d505      	bpl.n	80017a0 <I2C_IsErrorOccurred+0x54>
 8001794:	f44f 6280 	mov.w	r2, #1024	; 0x400
 8001798:	f044 0408 	orr.w	r4, r4, #8
 800179c:	2001      	movs	r0, #1
 800179e:	61f2      	str	r2, [r6, #28]
 80017a0:	059b      	lsls	r3, r3, #22
 80017a2:	d54f      	bpl.n	8001844 <I2C_IsErrorOccurred+0xf8>
 80017a4:	f44f 7300 	mov.w	r3, #512	; 0x200
 80017a8:	f044 0402 	orr.w	r4, r4, #2
 80017ac:	61f3      	str	r3, [r6, #28]
 80017ae:	4628      	mov	r0, r5
 80017b0:	f7ff ffa8 	bl	8001704 <I2C_Flush_TXDR>
 80017b4:	6873      	ldr	r3, [r6, #4]
 80017b6:	2001      	movs	r0, #1
 80017b8:	f023 73ff 	bic.w	r3, r3, #33423360	; 0x1fe0000
 80017bc:	f423 338b 	bic.w	r3, r3, #71168	; 0x11600
 80017c0:	f423 73ff 	bic.w	r3, r3, #510	; 0x1fe
 80017c4:	f023 0301 	bic.w	r3, r3, #1
 80017c8:	6073      	str	r3, [r6, #4]
 80017ca:	6c6b      	ldr	r3, [r5, #68]	; 0x44
 80017cc:	4323      	orrs	r3, r4
 80017ce:	646b      	str	r3, [r5, #68]	; 0x44
 80017d0:	2320      	movs	r3, #32
 80017d2:	f885 3041 	strb.w	r3, [r5, #65]	; 0x41
 80017d6:	2300      	movs	r3, #0
 80017d8:	f885 3042 	strb.w	r3, [r5, #66]	; 0x42
 80017dc:	f885 3040 	strb.w	r3, [r5, #64]	; 0x40
 80017e0:	e032      	b.n	8001848 <I2C_IsErrorOccurred+0xfc>
 80017e2:	1c7a      	adds	r2, r7, #1
 80017e4:	d0c1      	beq.n	800176a <I2C_IsErrorOccurred+0x1e>
 80017e6:	f7ff fbc9 	bl	8000f7c <HAL_GetTick>
 80017ea:	1b80      	subs	r0, r0, r6
 80017ec:	42b8      	cmp	r0, r7
 80017ee:	d801      	bhi.n	80017f4 <I2C_IsErrorOccurred+0xa8>
 80017f0:	2f00      	cmp	r7, #0
 80017f2:	d1b9      	bne.n	8001768 <I2C_IsErrorOccurred+0x1c>
 80017f4:	682b      	ldr	r3, [r5, #0]
 80017f6:	6859      	ldr	r1, [r3, #4]
 80017f8:	f895 2042 	ldrb.w	r2, [r5, #66]	; 0x42
 80017fc:	6998      	ldr	r0, [r3, #24]
 80017fe:	b2d2      	uxtb	r2, r2
 8001800:	0400      	lsls	r0, r0, #16
 8001802:	d50a      	bpl.n	800181a <I2C_IsErrorOccurred+0xce>
 8001804:	0449      	lsls	r1, r1, #17
 8001806:	d408      	bmi.n	800181a <I2C_IsErrorOccurred+0xce>
 8001808:	2a20      	cmp	r2, #32
 800180a:	d006      	beq.n	800181a <I2C_IsErrorOccurred+0xce>
 800180c:	685a      	ldr	r2, [r3, #4]
 800180e:	f442 4280 	orr.w	r2, r2, #16384	; 0x4000
 8001812:	605a      	str	r2, [r3, #4]
 8001814:	f7ff fbb2 	bl	8000f7c <HAL_GetTick>
 8001818:	4606      	mov	r6, r0
 800181a:	682b      	ldr	r3, [r5, #0]
 800181c:	699b      	ldr	r3, [r3, #24]
 800181e:	069b      	lsls	r3, r3, #26
 8001820:	d4a2      	bmi.n	8001768 <I2C_IsErrorOccurred+0x1c>
 8001822:	f7ff fbab 	bl	8000f7c <HAL_GetTick>
 8001826:	1b80      	subs	r0, r0, r6
 8001828:	2819      	cmp	r0, #25
 800182a:	d9f6      	bls.n	800181a <I2C_IsErrorOccurred+0xce>
 800182c:	2420      	movs	r4, #32
 800182e:	f04f 0801 	mov.w	r8, #1
 8001832:	e799      	b.n	8001768 <I2C_IsErrorOccurred+0x1c>
 8001834:	f1b8 0f00 	cmp.w	r8, #0
 8001838:	d19d      	bne.n	8001776 <I2C_IsErrorOccurred+0x2a>
 800183a:	2220      	movs	r2, #32
 800183c:	61da      	str	r2, [r3, #28]
 800183e:	e79a      	b.n	8001776 <I2C_IsErrorOccurred+0x2a>
 8001840:	4620      	mov	r0, r4
 8001842:	e79b      	b.n	800177c <I2C_IsErrorOccurred+0x30>
 8001844:	2800      	cmp	r0, #0
 8001846:	d1b2      	bne.n	80017ae <I2C_IsErrorOccurred+0x62>
 8001848:	e8bd 81f0 	ldmia.w	sp!, {r4, r5, r6, r7, r8, pc}

0800184c <I2C_WaitOnTXISFlagUntilTimeout>:
 800184c:	b570      	push	{r4, r5, r6, lr}
 800184e:	4604      	mov	r4, r0
 8001850:	460d      	mov	r5, r1
 8001852:	4616      	mov	r6, r2
 8001854:	6823      	ldr	r3, [r4, #0]
 8001856:	699b      	ldr	r3, [r3, #24]
 8001858:	079b      	lsls	r3, r3, #30
 800185a:	d501      	bpl.n	8001860 <I2C_WaitOnTXISFlagUntilTimeout+0x14>
 800185c:	2000      	movs	r0, #0
 800185e:	bd70      	pop	{r4, r5, r6, pc}
 8001860:	4632      	mov	r2, r6
 8001862:	4629      	mov	r1, r5
 8001864:	4620      	mov	r0, r4
 8001866:	f7ff ff71 	bl	800174c <I2C_IsErrorOccurred>
 800186a:	b9c0      	cbnz	r0, 800189e <I2C_WaitOnTXISFlagUntilTimeout+0x52>
 800186c:	1c6a      	adds	r2, r5, #1
 800186e:	d0f1      	beq.n	8001854 <I2C_WaitOnTXISFlagUntilTimeout+0x8>
 8001870:	f7ff fb84 	bl	8000f7c <HAL_GetTick>
 8001874:	1b80      	subs	r0, r0, r6
 8001876:	42a8      	cmp	r0, r5
 8001878:	d801      	bhi.n	800187e <I2C_WaitOnTXISFlagUntilTimeout+0x32>
 800187a:	2d00      	cmp	r5, #0
 800187c:	d1ea      	bne.n	8001854 <I2C_WaitOnTXISFlagUntilTimeout+0x8>
 800187e:	6823      	ldr	r3, [r4, #0]
 8001880:	699b      	ldr	r3, [r3, #24]
 8001882:	f013 0302 	ands.w	r3, r3, #2
 8001886:	d1e5      	bne.n	8001854 <I2C_WaitOnTXISFlagUntilTimeout+0x8>
 8001888:	6c62      	ldr	r2, [r4, #68]	; 0x44
 800188a:	f884 3040 	strb.w	r3, [r4, #64]	; 0x40
 800188e:	f042 0220 	orr.w	r2, r2, #32
 8001892:	6462      	str	r2, [r4, #68]	; 0x44
 8001894:	2220      	movs	r2, #32
 8001896:	f884 2041 	strb.w	r2, [r4, #65]	; 0x41
 800189a:	f884 3042 	strb.w	r3, [r4, #66]	; 0x42
 800189e:	2001      	movs	r0, #1
 80018a0:	e7dd      	b.n	800185e <I2C_WaitOnTXISFlagUntilTimeout+0x12>

080018a2 <I2C_WaitOnFlagUntilTimeout>:
 80018a2:	e92d 41f0 	stmdb	sp!, {r4, r5, r6, r7, r8, lr}
 80018a6:	9f06      	ldr	r7, [sp, #24]
 80018a8:	4604      	mov	r4, r0
 80018aa:	4688      	mov	r8, r1
 80018ac:	4616      	mov	r6, r2
 80018ae:	461d      	mov	r5, r3
 80018b0:	6822      	ldr	r2, [r4, #0]
 80018b2:	6993      	ldr	r3, [r2, #24]
 80018b4:	ea38 0303 	bics.w	r3, r8, r3
 80018b8:	bf0c      	ite	eq
 80018ba:	2301      	moveq	r3, #1
 80018bc:	2300      	movne	r3, #0
 80018be:	42b3      	cmp	r3, r6
 80018c0:	d001      	beq.n	80018c6 <I2C_WaitOnFlagUntilTimeout+0x24>
 80018c2:	2000      	movs	r0, #0
 80018c4:	e01e      	b.n	8001904 <I2C_WaitOnFlagUntilTimeout+0x62>
 80018c6:	1c6b      	adds	r3, r5, #1
 80018c8:	d0f3      	beq.n	80018b2 <I2C_WaitOnFlagUntilTimeout+0x10>
 80018ca:	f7ff fb57 	bl	8000f7c <HAL_GetTick>
 80018ce:	1bc0      	subs	r0, r0, r7
 80018d0:	42a8      	cmp	r0, r5
 80018d2:	d801      	bhi.n	80018d8 <I2C_WaitOnFlagUntilTimeout+0x36>
 80018d4:	2d00      	cmp	r5, #0
 80018d6:	d1eb      	bne.n	80018b0 <I2C_WaitOnFlagUntilTimeout+0xe>
 80018d8:	6823      	ldr	r3, [r4, #0]
 80018da:	699b      	ldr	r3, [r3, #24]
 80018dc:	ea38 0303 	bics.w	r3, r8, r3
 80018e0:	bf0c      	ite	eq
 80018e2:	2301      	moveq	r3, #1
 80018e4:	2300      	movne	r3, #0
 80018e6:	42b3      	cmp	r3, r6
 80018e8:	d1e2      	bne.n	80018b0 <I2C_WaitOnFlagUntilTimeout+0xe>
 80018ea:	6c63      	ldr	r3, [r4, #68]	; 0x44
 80018ec:	2001      	movs	r0, #1
 80018ee:	f043 0320 	orr.w	r3, r3, #32
 80018f2:	6463      	str	r3, [r4, #68]	; 0x44
 80018f4:	2320      	movs	r3, #32
 80018f6:	f884 3041 	strb.w	r3, [r4, #65]	; 0x41
 80018fa:	2300      	movs	r3, #0
 80018fc:	f884 3042 	strb.w	r3, [r4, #66]	; 0x42
 8001900:	f884 3040 	strb.w	r3, [r4, #64]	; 0x40
 8001904:	e8bd 81f0 	ldmia.w	sp!, {r4, r5, r6, r7, r8, pc}

08001908 <I2C_WaitOnSTOPFlagUntilTimeout>:
 8001908:	b570      	push	{r4, r5, r6, lr}
 800190a:	4604      	mov	r4, r0
 800190c:	460d      	mov	r5, r1
 800190e:	4616      	mov	r6, r2
 8001910:	6823      	ldr	r3, [r4, #0]
 8001912:	699b      	ldr	r3, [r3, #24]
 8001914:	069b      	lsls	r3, r3, #26
 8001916:	d501      	bpl.n	800191c <I2C_WaitOnSTOPFlagUntilTimeout+0x14>
 8001918:	2000      	movs	r0, #0
 800191a:	bd70      	pop	{r4, r5, r6, pc}
 800191c:	4632      	mov	r2, r6
 800191e:	4629      	mov	r1, r5
 8001920:	4620      	mov	r0, r4
 8001922:	f7ff ff13 	bl	800174c <I2C_IsErrorOccurred>
 8001926:	b9b0      	cbnz	r0, 8001956 <I2C_WaitOnSTOPFlagUntilTimeout+0x4e>
 8001928:	f7ff fb28 	bl	8000f7c <HAL_GetTick>
 800192c:	1b80      	subs	r0, r0, r6
 800192e:	42a8      	cmp	r0, r5
 8001930:	d801      	bhi.n	8001936 <I2C_WaitOnSTOPFlagUntilTimeout+0x2e>
 8001932:	2d00      	cmp	r5, #0
 8001934:	d1ec      	bne.n	8001910 <I2C_WaitOnSTOPFlagUntilTimeout+0x8>
 8001936:	6823      	ldr	r3, [r4, #0]
 8001938:	699b      	ldr	r3, [r3, #24]
 800193a:	f013 0320 	ands.w	r3, r3, #32
 800193e:	d1e7      	bne.n	8001910 <I2C_WaitOnSTOPFlagUntilTimeout+0x8>
 8001940:	6c62      	ldr	r2, [r4, #68]	; 0x44
 8001942:	f884 3040 	strb.w	r3, [r4, #64]	; 0x40
 8001946:	f042 0220 	orr.w	r2, r2, #32
 800194a:	6462      	str	r2, [r4, #68]	; 0x44
 800194c:	2220      	movs	r2, #32
 800194e:	f884 2041 	strb.w	r2, [r4, #65]	; 0x41
 8001952:	f884 3042 	strb.w	r3, [r4, #66]	; 0x42
 8001956:	2001      	movs	r0, #1
 8001958:	e7df      	b.n	800191a <I2C_WaitOnSTOPFlagUntilTimeout+0x12>

0800195a <I2C_WaitOnRXNEFlagUntilTimeout>:
 800195a:	b570      	push	{r4, r5, r6, lr}
 800195c:	4604      	mov	r4, r0
 800195e:	460d      	mov	r5, r1
 8001960:	4616      	mov	r6, r2
 8001962:	6823      	ldr	r3, [r4, #0]
 8001964:	699b      	ldr	r3, [r3, #24]
 8001966:	075b      	lsls	r3, r3, #29
 8001968:	d40e      	bmi.n	8001988 <I2C_WaitOnRXNEFlagUntilTimeout+0x2e>
 800196a:	4632      	mov	r2, r6
 800196c:	4629      	mov	r1, r5
 800196e:	4620      	mov	r0, r4
 8001970:	f7ff feec 	bl	800174c <I2C_IsErrorOccurred>
 8001974:	bb28      	cbnz	r0, 80019c2 <I2C_WaitOnRXNEFlagUntilTimeout+0x68>
 8001976:	6823      	ldr	r3, [r4, #0]
 8001978:	699a      	ldr	r2, [r3, #24]
 800197a:	0691      	lsls	r1, r2, #26
 800197c:	d523      	bpl.n	80019c6 <I2C_WaitOnRXNEFlagUntilTimeout+0x6c>
 800197e:	699a      	ldr	r2, [r3, #24]
 8001980:	0752      	lsls	r2, r2, #29
 8001982:	d503      	bpl.n	800198c <I2C_WaitOnRXNEFlagUntilTimeout+0x32>
 8001984:	8d22      	ldrh	r2, [r4, #40]	; 0x28
 8001986:	b10a      	cbz	r2, 800198c <I2C_WaitOnRXNEFlagUntilTimeout+0x32>
 8001988:	2000      	movs	r0, #0
 800198a:	bd70      	pop	{r4, r5, r6, pc}
 800198c:	699a      	ldr	r2, [r3, #24]
 800198e:	f012 0210 	ands.w	r2, r2, #16
 8001992:	d002      	beq.n	800199a <I2C_WaitOnRXNEFlagUntilTimeout+0x40>
 8001994:	2210      	movs	r2, #16
 8001996:	61da      	str	r2, [r3, #28]
 8001998:	2204      	movs	r2, #4
 800199a:	2120      	movs	r1, #32
 800199c:	6462      	str	r2, [r4, #68]	; 0x44
 800199e:	61d9      	str	r1, [r3, #28]
 80019a0:	685a      	ldr	r2, [r3, #4]
 80019a2:	f022 72ff 	bic.w	r2, r2, #33423360	; 0x1fe0000
 80019a6:	f422 328b 	bic.w	r2, r2, #71168	; 0x11600
 80019aa:	f422 72ff 	bic.w	r2, r2, #510	; 0x1fe
 80019ae:	f022 0201 	bic.w	r2, r2, #1
 80019b2:	605a      	str	r2, [r3, #4]
 80019b4:	2300      	movs	r3, #0
 80019b6:	f884 1041 	strb.w	r1, [r4, #65]	; 0x41
 80019ba:	f884 3042 	strb.w	r3, [r4, #66]	; 0x42
 80019be:	f884 3040 	strb.w	r3, [r4, #64]	; 0x40
 80019c2:	2001      	movs	r0, #1
 80019c4:	e7e1      	b.n	800198a <I2C_WaitOnRXNEFlagUntilTimeout+0x30>
 80019c6:	f7ff fad9 	bl	8000f7c <HAL_GetTick>
 80019ca:	1b80      	subs	r0, r0, r6
 80019cc:	42a8      	cmp	r0, r5
 80019ce:	d801      	bhi.n	80019d4 <I2C_WaitOnRXNEFlagUntilTimeout+0x7a>
 80019d0:	2d00      	cmp	r5, #0
 80019d2:	d1c6      	bne.n	8001962 <I2C_WaitOnRXNEFlagUntilTimeout+0x8>
 80019d4:	6823      	ldr	r3, [r4, #0]
 80019d6:	699b      	ldr	r3, [r3, #24]
 80019d8:	f013 0304 	ands.w	r3, r3, #4
 80019dc:	d1c1      	bne.n	8001962 <I2C_WaitOnRXNEFlagUntilTimeout+0x8>
 80019de:	6c62      	ldr	r2, [r4, #68]	; 0x44
 80019e0:	f042 0220 	orr.w	r2, r2, #32
 80019e4:	6462      	str	r2, [r4, #68]	; 0x44
 80019e6:	2220      	movs	r2, #32
 80019e8:	f884 2041 	strb.w	r2, [r4, #65]	; 0x41
 80019ec:	e7e7      	b.n	80019be <I2C_WaitOnRXNEFlagUntilTimeout+0x64>

080019ee <HAL_I2C_Init>:
 80019ee:	b510      	push	{r4, lr}
 80019f0:	4604      	mov	r4, r0
 80019f2:	2800      	cmp	r0, #0
 80019f4:	d04a      	beq.n	8001a8c <HAL_I2C_Init+0x9e>
 80019f6:	f890 3041 	ldrb.w	r3, [r0, #65]	; 0x41
 80019fa:	f003 02ff 	and.w	r2, r3, #255	; 0xff
 80019fe:	b91b      	cbnz	r3, 8001a08 <HAL_I2C_Init+0x1a>
 8001a00:	f880 2040 	strb.w	r2, [r0, #64]	; 0x40
 8001a04:	f7fe ffd2 	bl	80009ac <HAL_I2C_MspInit>
 8001a08:	2324      	movs	r3, #36	; 0x24
 8001a0a:	f884 3041 	strb.w	r3, [r4, #65]	; 0x41
 8001a0e:	6823      	ldr	r3, [r4, #0]
 8001a10:	681a      	ldr	r2, [r3, #0]
 8001a12:	f022 0201 	bic.w	r2, r2, #1
 8001a16:	601a      	str	r2, [r3, #0]
 8001a18:	6862      	ldr	r2, [r4, #4]
 8001a1a:	f022 6270 	bic.w	r2, r2, #251658240	; 0xf000000
 8001a1e:	611a      	str	r2, [r3, #16]
 8001a20:	689a      	ldr	r2, [r3, #8]
 8001a22:	f422 4200 	bic.w	r2, r2, #32768	; 0x8000
 8001a26:	609a      	str	r2, [r3, #8]
 8001a28:	e9d4 2102 	ldrd	r2, r1, [r4, #8]
 8001a2c:	2901      	cmp	r1, #1
 8001a2e:	d124      	bne.n	8001a7a <HAL_I2C_Init+0x8c>
 8001a30:	f442 4200 	orr.w	r2, r2, #32768	; 0x8000
 8001a34:	609a      	str	r2, [r3, #8]
 8001a36:	685a      	ldr	r2, [r3, #4]
 8001a38:	2000      	movs	r0, #0
 8001a3a:	f042 7200 	orr.w	r2, r2, #33554432	; 0x2000000
 8001a3e:	f442 4200 	orr.w	r2, r2, #32768	; 0x8000
 8001a42:	605a      	str	r2, [r3, #4]
 8001a44:	68da      	ldr	r2, [r3, #12]
 8001a46:	f422 4200 	bic.w	r2, r2, #32768	; 0x8000
 8001a4a:	60da      	str	r2, [r3, #12]
 8001a4c:	e9d4 2104 	ldrd	r2, r1, [r4, #16]
 8001a50:	430a      	orrs	r2, r1
 8001a52:	69a1      	ldr	r1, [r4, #24]
 8001a54:	ea42 2201 	orr.w	r2, r2, r1, lsl #8
 8001a58:	60da      	str	r2, [r3, #12]
 8001a5a:	e9d4 2107 	ldrd	r2, r1, [r4, #28]
 8001a5e:	430a      	orrs	r2, r1
 8001a60:	601a      	str	r2, [r3, #0]
 8001a62:	681a      	ldr	r2, [r3, #0]
 8001a64:	f042 0201 	orr.w	r2, r2, #1
 8001a68:	601a      	str	r2, [r3, #0]
 8001a6a:	2320      	movs	r3, #32
 8001a6c:	6460      	str	r0, [r4, #68]	; 0x44
 8001a6e:	f884 3041 	strb.w	r3, [r4, #65]	; 0x41
 8001a72:	6320      	str	r0, [r4, #48]	; 0x30
 8001a74:	f884 0042 	strb.w	r0, [r4, #66]	; 0x42
 8001a78:	bd10      	pop	{r4, pc}
 8001a7a:	f442 4204 	orr.w	r2, r2, #33792	; 0x8400
 8001a7e:	2902      	cmp	r1, #2
 8001a80:	609a      	str	r2, [r3, #8]
 8001a82:	d1d8      	bne.n	8001a36 <HAL_I2C_Init+0x48>
 8001a84:	f44f 6200 	mov.w	r2, #2048	; 0x800
 8001a88:	605a      	str	r2, [r3, #4]
 8001a8a:	e7d4      	b.n	8001a36 <HAL_I2C_Init+0x48>
 8001a8c:	2001      	movs	r0, #1
 8001a8e:	e7f3      	b.n	8001a78 <HAL_I2C_Init+0x8a>

08001a90 <HAL_I2C_Master_Transmit>:
 8001a90:	e92d 47f3 	stmdb	sp!, {r0, r1, r4, r5, r6, r7, r8, r9, sl, lr}
 8001a94:	4698      	mov	r8, r3
 8001a96:	f890 3041 	ldrb.w	r3, [r0, #65]	; 0x41
 8001a9a:	4604      	mov	r4, r0
 8001a9c:	460e      	mov	r6, r1
 8001a9e:	2b20      	cmp	r3, #32
 8001aa0:	4691      	mov	r9, r2
 8001aa2:	9f0a      	ldr	r7, [sp, #40]	; 0x28
 8001aa4:	f040 8086 	bne.w	8001bb4 <HAL_I2C_Master_Transmit+0x124>
 8001aa8:	f890 3040 	ldrb.w	r3, [r0, #64]	; 0x40
 8001aac:	2b01      	cmp	r3, #1
 8001aae:	f000 8081 	beq.w	8001bb4 <HAL_I2C_Master_Transmit+0x124>
 8001ab2:	f04f 0a01 	mov.w	sl, #1
 8001ab6:	f880 a040 	strb.w	sl, [r0, #64]	; 0x40
 8001aba:	f7ff fa5f 	bl	8000f7c <HAL_GetTick>
 8001abe:	2319      	movs	r3, #25
 8001ac0:	4605      	mov	r5, r0
 8001ac2:	9000      	str	r0, [sp, #0]
 8001ac4:	4652      	mov	r2, sl
 8001ac6:	f44f 4100 	mov.w	r1, #32768	; 0x8000
 8001aca:	4620      	mov	r0, r4
 8001acc:	f7ff fee9 	bl	80018a2 <I2C_WaitOnFlagUntilTimeout>
 8001ad0:	b118      	cbz	r0, 8001ada <HAL_I2C_Master_Transmit+0x4a>
 8001ad2:	2001      	movs	r0, #1
 8001ad4:	b002      	add	sp, #8
 8001ad6:	e8bd 87f0 	ldmia.w	sp!, {r4, r5, r6, r7, r8, r9, sl, pc}
 8001ada:	2321      	movs	r3, #33	; 0x21
 8001adc:	f8c4 9024 	str.w	r9, [r4, #36]	; 0x24
 8001ae0:	6360      	str	r0, [r4, #52]	; 0x34
 8001ae2:	f884 3041 	strb.w	r3, [r4, #65]	; 0x41
 8001ae6:	2310      	movs	r3, #16
 8001ae8:	f884 3042 	strb.w	r3, [r4, #66]	; 0x42
 8001aec:	6460      	str	r0, [r4, #68]	; 0x44
 8001aee:	f8a4 802a 	strh.w	r8, [r4, #42]	; 0x2a
 8001af2:	8d63      	ldrh	r3, [r4, #42]	; 0x2a
 8001af4:	b29b      	uxth	r3, r3
 8001af6:	2bff      	cmp	r3, #255	; 0xff
 8001af8:	4b2f      	ldr	r3, [pc, #188]	; (8001bb8 <HAL_I2C_Master_Transmit+0x128>)
 8001afa:	d926      	bls.n	8001b4a <HAL_I2C_Master_Transmit+0xba>
 8001afc:	22ff      	movs	r2, #255	; 0xff
 8001afe:	9300      	str	r3, [sp, #0]
 8001b00:	8522      	strh	r2, [r4, #40]	; 0x28
 8001b02:	f04f 7380 	mov.w	r3, #16777216	; 0x1000000
 8001b06:	4631      	mov	r1, r6
 8001b08:	4620      	mov	r0, r4
 8001b0a:	f7ff fe09 	bl	8001720 <I2C_TransferConfig>
 8001b0e:	8d63      	ldrh	r3, [r4, #42]	; 0x2a
 8001b10:	462a      	mov	r2, r5
 8001b12:	4639      	mov	r1, r7
 8001b14:	4620      	mov	r0, r4
 8001b16:	b29b      	uxth	r3, r3
 8001b18:	b9fb      	cbnz	r3, 8001b5a <HAL_I2C_Master_Transmit+0xca>
 8001b1a:	f7ff fef5 	bl	8001908 <I2C_WaitOnSTOPFlagUntilTimeout>
 8001b1e:	2800      	cmp	r0, #0
 8001b20:	d1d7      	bne.n	8001ad2 <HAL_I2C_Master_Transmit+0x42>
 8001b22:	6823      	ldr	r3, [r4, #0]
 8001b24:	2120      	movs	r1, #32
 8001b26:	61d9      	str	r1, [r3, #28]
 8001b28:	685a      	ldr	r2, [r3, #4]
 8001b2a:	f022 72ff 	bic.w	r2, r2, #33423360	; 0x1fe0000
 8001b2e:	f422 328b 	bic.w	r2, r2, #71168	; 0x11600
 8001b32:	f422 72ff 	bic.w	r2, r2, #510	; 0x1fe
 8001b36:	f022 0201 	bic.w	r2, r2, #1
 8001b3a:	605a      	str	r2, [r3, #4]
 8001b3c:	f884 1041 	strb.w	r1, [r4, #65]	; 0x41
 8001b40:	f884 0040 	strb.w	r0, [r4, #64]	; 0x40
 8001b44:	f884 0042 	strb.w	r0, [r4, #66]	; 0x42
 8001b48:	e7c4      	b.n	8001ad4 <HAL_I2C_Master_Transmit+0x44>
 8001b4a:	8d62      	ldrh	r2, [r4, #42]	; 0x2a
 8001b4c:	9300      	str	r3, [sp, #0]
 8001b4e:	b292      	uxth	r2, r2
 8001b50:	8522      	strh	r2, [r4, #40]	; 0x28
 8001b52:	f04f 7300 	mov.w	r3, #33554432	; 0x2000000
 8001b56:	b2d2      	uxtb	r2, r2
 8001b58:	e7d5      	b.n	8001b06 <HAL_I2C_Master_Transmit+0x76>
 8001b5a:	f7ff fe77 	bl	800184c <I2C_WaitOnTXISFlagUntilTimeout>
 8001b5e:	2800      	cmp	r0, #0
 8001b60:	d1b7      	bne.n	8001ad2 <HAL_I2C_Master_Transmit+0x42>
 8001b62:	6a63      	ldr	r3, [r4, #36]	; 0x24
 8001b64:	6822      	ldr	r2, [r4, #0]
 8001b66:	f813 1b01 	ldrb.w	r1, [r3], #1
 8001b6a:	6291      	str	r1, [r2, #40]	; 0x28
 8001b6c:	6263      	str	r3, [r4, #36]	; 0x24
 8001b6e:	8d63      	ldrh	r3, [r4, #42]	; 0x2a
 8001b70:	8d22      	ldrh	r2, [r4, #40]	; 0x28
 8001b72:	3b01      	subs	r3, #1
 8001b74:	3a01      	subs	r2, #1
 8001b76:	b29b      	uxth	r3, r3
 8001b78:	b292      	uxth	r2, r2
 8001b7a:	8563      	strh	r3, [r4, #42]	; 0x2a
 8001b7c:	8d63      	ldrh	r3, [r4, #42]	; 0x2a
 8001b7e:	8522      	strh	r2, [r4, #40]	; 0x28
 8001b80:	b29b      	uxth	r3, r3
 8001b82:	2b00      	cmp	r3, #0
 8001b84:	d0c3      	beq.n	8001b0e <HAL_I2C_Master_Transmit+0x7e>
 8001b86:	2a00      	cmp	r2, #0
 8001b88:	d1c1      	bne.n	8001b0e <HAL_I2C_Master_Transmit+0x7e>
 8001b8a:	463b      	mov	r3, r7
 8001b8c:	2180      	movs	r1, #128	; 0x80
 8001b8e:	4620      	mov	r0, r4
 8001b90:	9500      	str	r5, [sp, #0]
 8001b92:	f7ff fe86 	bl	80018a2 <I2C_WaitOnFlagUntilTimeout>
 8001b96:	2800      	cmp	r0, #0
 8001b98:	d19b      	bne.n	8001ad2 <HAL_I2C_Master_Transmit+0x42>
 8001b9a:	8d63      	ldrh	r3, [r4, #42]	; 0x2a
 8001b9c:	b29b      	uxth	r3, r3
 8001b9e:	2bff      	cmp	r3, #255	; 0xff
 8001ba0:	d903      	bls.n	8001baa <HAL_I2C_Master_Transmit+0x11a>
 8001ba2:	22ff      	movs	r2, #255	; 0xff
 8001ba4:	9000      	str	r0, [sp, #0]
 8001ba6:	8522      	strh	r2, [r4, #40]	; 0x28
 8001ba8:	e7ab      	b.n	8001b02 <HAL_I2C_Master_Transmit+0x72>
 8001baa:	8d62      	ldrh	r2, [r4, #42]	; 0x2a
 8001bac:	9000      	str	r0, [sp, #0]
 8001bae:	b292      	uxth	r2, r2
 8001bb0:	8522      	strh	r2, [r4, #40]	; 0x28
 8001bb2:	e7ce      	b.n	8001b52 <HAL_I2C_Master_Transmit+0xc2>
 8001bb4:	2002      	movs	r0, #2
 8001bb6:	e78d      	b.n	8001ad4 <HAL_I2C_Master_Transmit+0x44>
 8001bb8:	80002000 	.word	0x80002000

08001bbc <HAL_I2C_Master_Receive>:
 8001bbc:	e92d 47f3 	stmdb	sp!, {r0, r1, r4, r5, r6, r7, r8, r9, sl, lr}
 8001bc0:	4698      	mov	r8, r3
 8001bc2:	f890 3041 	ldrb.w	r3, [r0, #65]	; 0x41
 8001bc6:	4604      	mov	r4, r0
 8001bc8:	460e      	mov	r6, r1
 8001bca:	2b20      	cmp	r3, #32
 8001bcc:	4691      	mov	r9, r2
 8001bce:	9f0a      	ldr	r7, [sp, #40]	; 0x28
 8001bd0:	f040 8087 	bne.w	8001ce2 <HAL_I2C_Master_Receive+0x126>
 8001bd4:	f890 3040 	ldrb.w	r3, [r0, #64]	; 0x40
 8001bd8:	2b01      	cmp	r3, #1
 8001bda:	f000 8082 	beq.w	8001ce2 <HAL_I2C_Master_Receive+0x126>
 8001bde:	f04f 0a01 	mov.w	sl, #1
 8001be2:	f880 a040 	strb.w	sl, [r0, #64]	; 0x40
 8001be6:	f7ff f9c9 	bl	8000f7c <HAL_GetTick>
 8001bea:	2319      	movs	r3, #25
 8001bec:	4605      	mov	r5, r0
 8001bee:	9000      	str	r0, [sp, #0]
 8001bf0:	4652      	mov	r2, sl
 8001bf2:	f44f 4100 	mov.w	r1, #32768	; 0x8000
 8001bf6:	4620      	mov	r0, r4
 8001bf8:	f7ff fe53 	bl	80018a2 <I2C_WaitOnFlagUntilTimeout>
 8001bfc:	b118      	cbz	r0, 8001c06 <HAL_I2C_Master_Receive+0x4a>
 8001bfe:	2001      	movs	r0, #1
 8001c00:	b002      	add	sp, #8
 8001c02:	e8bd 87f0 	ldmia.w	sp!, {r4, r5, r6, r7, r8, r9, sl, pc}
 8001c06:	2322      	movs	r3, #34	; 0x22
 8001c08:	f8c4 9024 	str.w	r9, [r4, #36]	; 0x24
 8001c0c:	6360      	str	r0, [r4, #52]	; 0x34
 8001c0e:	f884 3041 	strb.w	r3, [r4, #65]	; 0x41
 8001c12:	2310      	movs	r3, #16
 8001c14:	f884 3042 	strb.w	r3, [r4, #66]	; 0x42
 8001c18:	6460      	str	r0, [r4, #68]	; 0x44
 8001c1a:	f8a4 802a 	strh.w	r8, [r4, #42]	; 0x2a
 8001c1e:	8d63      	ldrh	r3, [r4, #42]	; 0x2a
 8001c20:	b29b      	uxth	r3, r3
 8001c22:	2bff      	cmp	r3, #255	; 0xff
 8001c24:	4b30      	ldr	r3, [pc, #192]	; (8001ce8 <HAL_I2C_Master_Receive+0x12c>)
 8001c26:	d926      	bls.n	8001c76 <HAL_I2C_Master_Receive+0xba>
 8001c28:	22ff      	movs	r2, #255	; 0xff
 8001c2a:	9300      	str	r3, [sp, #0]
 8001c2c:	8522      	strh	r2, [r4, #40]	; 0x28
 8001c2e:	f04f 7380 	mov.w	r3, #16777216	; 0x1000000
 8001c32:	4631      	mov	r1, r6
 8001c34:	4620      	mov	r0, r4
 8001c36:	f7ff fd73 	bl	8001720 <I2C_TransferConfig>
 8001c3a:	8d63      	ldrh	r3, [r4, #42]	; 0x2a
 8001c3c:	462a      	mov	r2, r5
 8001c3e:	4639      	mov	r1, r7
 8001c40:	4620      	mov	r0, r4
 8001c42:	b29b      	uxth	r3, r3
 8001c44:	b9fb      	cbnz	r3, 8001c86 <HAL_I2C_Master_Receive+0xca>
 8001c46:	f7ff fe5f 	bl	8001908 <I2C_WaitOnSTOPFlagUntilTimeout>
 8001c4a:	2800      	cmp	r0, #0
 8001c4c:	d1d7      	bne.n	8001bfe <HAL_I2C_Master_Receive+0x42>
 8001c4e:	6823      	ldr	r3, [r4, #0]
 8001c50:	2120      	movs	r1, #32
 8001c52:	61d9      	str	r1, [r3, #28]
 8001c54:	685a      	ldr	r2, [r3, #4]
 8001c56:	f022 72ff 	bic.w	r2, r2, #33423360	; 0x1fe0000
 8001c5a:	f422 328b 	bic.w	r2, r2, #71168	; 0x11600
 8001c5e:	f422 72ff 	bic.w	r2, r2, #510	; 0x1fe
 8001c62:	f022 0201 	bic.w	r2, r2, #1
 8001c66:	605a      	str	r2, [r3, #4]
 8001c68:	f884 1041 	strb.w	r1, [r4, #65]	; 0x41
 8001c6c:	f884 0040 	strb.w	r0, [r4, #64]	; 0x40
 8001c70:	f884 0042 	strb.w	r0, [r4, #66]	; 0x42
 8001c74:	e7c4      	b.n	8001c00 <HAL_I2C_Master_Receive+0x44>
 8001c76:	8d62      	ldrh	r2, [r4, #42]	; 0x2a
 8001c78:	9300      	str	r3, [sp, #0]
 8001c7a:	b292      	uxth	r2, r2
 8001c7c:	8522      	strh	r2, [r4, #40]	; 0x28
 8001c7e:	f04f 7300 	mov.w	r3, #33554432	; 0x2000000
 8001c82:	b2d2      	uxtb	r2, r2
 8001c84:	e7d5      	b.n	8001c32 <HAL_I2C_Master_Receive+0x76>
 8001c86:	f7ff fe68 	bl	800195a <I2C_WaitOnRXNEFlagUntilTimeout>
 8001c8a:	2800      	cmp	r0, #0
 8001c8c:	d1b7      	bne.n	8001bfe <HAL_I2C_Master_Receive+0x42>
 8001c8e:	6823      	ldr	r3, [r4, #0]
 8001c90:	6a5a      	ldr	r2, [r3, #36]	; 0x24
 8001c92:	6a63      	ldr	r3, [r4, #36]	; 0x24
 8001c94:	701a      	strb	r2, [r3, #0]
 8001c96:	6a63      	ldr	r3, [r4, #36]	; 0x24
 8001c98:	8d22      	ldrh	r2, [r4, #40]	; 0x28
 8001c9a:	3301      	adds	r3, #1
 8001c9c:	3a01      	subs	r2, #1
 8001c9e:	6263      	str	r3, [r4, #36]	; 0x24
 8001ca0:	8d63      	ldrh	r3, [r4, #42]	; 0x2a
 8001ca2:	b292      	uxth	r2, r2
 8001ca4:	3b01      	subs	r3, #1
 8001ca6:	8522      	strh	r2, [r4, #40]	; 0x28
 8001ca8:	b29b      	uxth	r3, r3
 8001caa:	8563      	strh	r3, [r4, #42]	; 0x2a
 8001cac:	8d63      	ldrh	r3, [r4, #42]	; 0x2a
 8001cae:	b29b      	uxth	r3, r3
 8001cb0:	2b00      	cmp	r3, #0
 8001cb2:	d0c2      	beq.n	8001c3a <HAL_I2C_Master_Receive+0x7e>
 8001cb4:	2a00      	cmp	r2, #0
 8001cb6:	d1c0      	bne.n	8001c3a <HAL_I2C_Master_Receive+0x7e>
 8001cb8:	463b      	mov	r3, r7
 8001cba:	2180      	movs	r1, #128	; 0x80
 8001cbc:	4620      	mov	r0, r4
 8001cbe:	9500      	str	r5, [sp, #0]
 8001cc0:	f7ff fdef 	bl	80018a2 <I2C_WaitOnFlagUntilTimeout>
 8001cc4:	2800      	cmp	r0, #0
 8001cc6:	d19a      	bne.n	8001bfe <HAL_I2C_Master_Receive+0x42>
 8001cc8:	8d63      	ldrh	r3, [r4, #42]	; 0x2a
 8001cca:	b29b      	uxth	r3, r3
 8001ccc:	2bff      	cmp	r3, #255	; 0xff
 8001cce:	d903      	bls.n	8001cd8 <HAL_I2C_Master_Receive+0x11c>
 8001cd0:	22ff      	movs	r2, #255	; 0xff
 8001cd2:	9000      	str	r0, [sp, #0]
 8001cd4:	8522      	strh	r2, [r4, #40]	; 0x28
 8001cd6:	e7aa      	b.n	8001c2e <HAL_I2C_Master_Receive+0x72>
 8001cd8:	8d62      	ldrh	r2, [r4, #42]	; 0x2a
 8001cda:	9000      	str	r0, [sp, #0]
 8001cdc:	b292      	uxth	r2, r2
 8001cde:	8522      	strh	r2, [r4, #40]	; 0x28
 8001ce0:	e7cd      	b.n	8001c7e <HAL_I2C_Master_Receive+0xc2>
 8001ce2:	2002      	movs	r0, #2
 8001ce4:	e78c      	b.n	8001c00 <HAL_I2C_Master_Receive+0x44>
 8001ce6:	bf00      	nop
 8001ce8:	80002400 	.word	0x80002400

08001cec <HAL_I2CEx_ConfigAnalogFilter>:
 8001cec:	b510      	push	{r4, lr}
 8001cee:	f890 3041 	ldrb.w	r3, [r0, #65]	; 0x41
 8001cf2:	2b20      	cmp	r3, #32
 8001cf4:	b2dc      	uxtb	r4, r3
 8001cf6:	d11d      	bne.n	8001d34 <HAL_I2CEx_ConfigAnalogFilter+0x48>
 8001cf8:	f890 3040 	ldrb.w	r3, [r0, #64]	; 0x40
 8001cfc:	2b01      	cmp	r3, #1
 8001cfe:	d019      	beq.n	8001d34 <HAL_I2CEx_ConfigAnalogFilter+0x48>
 8001d00:	2324      	movs	r3, #36	; 0x24
 8001d02:	f880 3041 	strb.w	r3, [r0, #65]	; 0x41
 8001d06:	6803      	ldr	r3, [r0, #0]
 8001d08:	681a      	ldr	r2, [r3, #0]
 8001d0a:	f022 0201 	bic.w	r2, r2, #1
 8001d0e:	601a      	str	r2, [r3, #0]
 8001d10:	681a      	ldr	r2, [r3, #0]
 8001d12:	f422 5280 	bic.w	r2, r2, #4096	; 0x1000
 8001d16:	601a      	str	r2, [r3, #0]
 8001d18:	681a      	ldr	r2, [r3, #0]
 8001d1a:	4311      	orrs	r1, r2
 8001d1c:	6019      	str	r1, [r3, #0]
 8001d1e:	681a      	ldr	r2, [r3, #0]
 8001d20:	f042 0201 	orr.w	r2, r2, #1
 8001d24:	601a      	str	r2, [r3, #0]
 8001d26:	2300      	movs	r3, #0
 8001d28:	f880 4041 	strb.w	r4, [r0, #65]	; 0x41
 8001d2c:	f880 3040 	strb.w	r3, [r0, #64]	; 0x40
 8001d30:	4618      	mov	r0, r3
 8001d32:	bd10      	pop	{r4, pc}
 8001d34:	2002      	movs	r0, #2
 8001d36:	e7fc      	b.n	8001d32 <HAL_I2CEx_ConfigAnalogFilter+0x46>

08001d38 <HAL_I2CEx_ConfigDigitalFilter>:
 8001d38:	b510      	push	{r4, lr}
 8001d3a:	f890 3041 	ldrb.w	r3, [r0, #65]	; 0x41
 8001d3e:	2b20      	cmp	r3, #32
 8001d40:	b2dc      	uxtb	r4, r3
 8001d42:	d11c      	bne.n	8001d7e <HAL_I2CEx_ConfigDigitalFilter+0x46>
 8001d44:	f890 3040 	ldrb.w	r3, [r0, #64]	; 0x40
 8001d48:	2b01      	cmp	r3, #1
 8001d4a:	d018      	beq.n	8001d7e <HAL_I2CEx_ConfigDigitalFilter+0x46>
 8001d4c:	2324      	movs	r3, #36	; 0x24
 8001d4e:	f880 3041 	strb.w	r3, [r0, #65]	; 0x41
 8001d52:	6803      	ldr	r3, [r0, #0]
 8001d54:	681a      	ldr	r2, [r3, #0]
 8001d56:	f022 0201 	bic.w	r2, r2, #1
 8001d5a:	601a      	str	r2, [r3, #0]
 8001d5c:	681a      	ldr	r2, [r3, #0]
 8001d5e:	f422 6270 	bic.w	r2, r2, #3840	; 0xf00
 8001d62:	ea42 2101 	orr.w	r1, r2, r1, lsl #8
 8001d66:	6019      	str	r1, [r3, #0]
 8001d68:	681a      	ldr	r2, [r3, #0]
 8001d6a:	f042 0201 	orr.w	r2, r2, #1
 8001d6e:	601a      	str	r2, [r3, #0]
 8001d70:	2300      	movs	r3, #0
 8001d72:	f880 4041 	strb.w	r4, [r0, #65]	; 0x41
 8001d76:	f880 3040 	strb.w	r3, [r0, #64]	; 0x40
 8001d7a:	4618      	mov	r0, r3
 8001d7c:	bd10      	pop	{r4, pc}
 8001d7e:	2002      	movs	r0, #2
 8001d80:	e7fc      	b.n	8001d7c <HAL_I2CEx_ConfigDigitalFilter+0x44>
	...

08001d84 <HAL_I2CEx_EnableFastModePlus>:
 8001d84:	4b09      	ldr	r3, [pc, #36]	; (8001dac <HAL_I2CEx_EnableFastModePlus+0x28>)
 8001d86:	b082      	sub	sp, #8
 8001d88:	f8d3 20f4 	ldr.w	r2, [r3, #244]	; 0xf4
 8001d8c:	f042 0202 	orr.w	r2, r2, #2
 8001d90:	f8c3 20f4 	str.w	r2, [r3, #244]	; 0xf4
 8001d94:	f8d3 30f4 	ldr.w	r3, [r3, #244]	; 0xf4
 8001d98:	4a05      	ldr	r2, [pc, #20]	; (8001db0 <HAL_I2CEx_EnableFastModePlus+0x2c>)
 8001d9a:	f003 0302 	and.w	r3, r3, #2
 8001d9e:	9301      	str	r3, [sp, #4]
 8001da0:	9b01      	ldr	r3, [sp, #4]
 8001da2:	6853      	ldr	r3, [r2, #4]
 8001da4:	4318      	orrs	r0, r3
 8001da6:	6050      	str	r0, [r2, #4]
 8001da8:	b002      	add	sp, #8
 8001daa:	4770      	bx	lr
 8001dac:	58024400 	.word	0x58024400
 8001db0:	58000400 	.word	0x58000400

08001db4 <HAL_PCD_Init>:
 8001db4:	b5f0      	push	{r4, r5, r6, r7, lr}
 8001db6:	4604      	mov	r4, r0
 8001db8:	b08b      	sub	sp, #44	; 0x2c
 8001dba:	b360      	cbz	r0, 8001e16 <HAL_PCD_Init+0x62>
 8001dbc:	f890 34bd 	ldrb.w	r3, [r0, #1213]	; 0x4bd
 8001dc0:	6805      	ldr	r5, [r0, #0]
 8001dc2:	f003 02ff 	and.w	r2, r3, #255	; 0xff
 8001dc6:	b91b      	cbnz	r3, 8001dd0 <HAL_PCD_Init+0x1c>
 8001dc8:	f880 24bc 	strb.w	r2, [r0, #1212]	; 0x4bc
 8001dcc:	f7ff f818 	bl	8000e00 <HAL_PCD_MspInit>
 8001dd0:	2303      	movs	r3, #3
 8001dd2:	466e      	mov	r6, sp
 8001dd4:	1d27      	adds	r7, r4, #4
 8001dd6:	f884 34bd 	strb.w	r3, [r4, #1213]	; 0x4bd
 8001dda:	6beb      	ldr	r3, [r5, #60]	; 0x3c
 8001ddc:	4625      	mov	r5, r4
 8001dde:	f413 7380 	ands.w	r3, r3, #256	; 0x100
 8001de2:	f855 0b10 	ldr.w	r0, [r5], #16
 8001de6:	bf08      	it	eq
 8001de8:	60e3      	streq	r3, [r4, #12]
 8001dea:	f002 fa8d 	bl	8004308 <USB_DisableGlobalInt>
 8001dee:	cd0f      	ldmia	r5!, {r0, r1, r2, r3}
 8001df0:	c60f      	stmia	r6!, {r0, r1, r2, r3}
 8001df2:	cd0f      	ldmia	r5!, {r0, r1, r2, r3}
 8001df4:	c60f      	stmia	r6!, {r0, r1, r2, r3}
 8001df6:	e895 0003 	ldmia.w	r5, {r0, r1}
 8001dfa:	4625      	mov	r5, r4
 8001dfc:	e886 0003 	stmia.w	r6, {r0, r1}
 8001e00:	e897 000e 	ldmia.w	r7, {r1, r2, r3}
 8001e04:	f855 0b10 	ldr.w	r0, [r5], #16
 8001e08:	f002 fa34 	bl	8004274 <USB_CoreInit>
 8001e0c:	4606      	mov	r6, r0
 8001e0e:	b120      	cbz	r0, 8001e1a <HAL_PCD_Init+0x66>
 8001e10:	2302      	movs	r3, #2
 8001e12:	f884 34bd 	strb.w	r3, [r4, #1213]	; 0x4bd
 8001e16:	2501      	movs	r5, #1
 8001e18:	e052      	b.n	8001ec0 <HAL_PCD_Init+0x10c>
 8001e1a:	4601      	mov	r1, r0
 8001e1c:	6820      	ldr	r0, [r4, #0]
 8001e1e:	f002 fa79 	bl	8004314 <USB_SetCurrentMode>
 8001e22:	4630      	mov	r0, r6
 8001e24:	f8d4 c004 	ldr.w	ip, [r4, #4]
 8001e28:	2624      	movs	r6, #36	; 0x24
 8001e2a:	f04f 0e01 	mov.w	lr, #1
 8001e2e:	4601      	mov	r1, r0
 8001e30:	b2c2      	uxtb	r2, r0
 8001e32:	3001      	adds	r0, #1
 8001e34:	4594      	cmp	ip, r2
 8001e36:	d81b      	bhi.n	8001e70 <HAL_PCD_Init+0xbc>
 8001e38:	2300      	movs	r3, #0
 8001e3a:	2624      	movs	r6, #36	; 0x24
 8001e3c:	4619      	mov	r1, r3
 8001e3e:	b2d8      	uxtb	r0, r3
 8001e40:	3301      	adds	r3, #1
 8001e42:	4584      	cmp	ip, r0
 8001e44:	d822      	bhi.n	8001e8c <HAL_PCD_Init+0xd8>
 8001e46:	466e      	mov	r6, sp
 8001e48:	cd0f      	ldmia	r5!, {r0, r1, r2, r3}
 8001e4a:	c60f      	stmia	r6!, {r0, r1, r2, r3}
 8001e4c:	cd0f      	ldmia	r5!, {r0, r1, r2, r3}
 8001e4e:	c60f      	stmia	r6!, {r0, r1, r2, r3}
 8001e50:	e895 0003 	ldmia.w	r5, {r0, r1}
 8001e54:	e886 0003 	stmia.w	r6, {r0, r1}
 8001e58:	e897 000e 	ldmia.w	r7, {r1, r2, r3}
 8001e5c:	6820      	ldr	r0, [r4, #0]
 8001e5e:	f002 fad9 	bl	8004414 <USB_DevInit>
 8001e62:	2301      	movs	r3, #1
 8001e64:	4605      	mov	r5, r0
 8001e66:	b1f0      	cbz	r0, 8001ea6 <HAL_PCD_Init+0xf2>
 8001e68:	2202      	movs	r2, #2
 8001e6a:	f884 24bd 	strb.w	r2, [r4, #1213]	; 0x4bd
 8001e6e:	e7d2      	b.n	8001e16 <HAL_PCD_Init+0x62>
 8001e70:	fb06 4302 	mla	r3, r6, r2, r4
 8001e74:	f883 e03d 	strb.w	lr, [r3, #61]	; 0x3d
 8001e78:	f883 203c 	strb.w	r2, [r3, #60]	; 0x3c
 8001e7c:	f8a3 2056 	strh.w	r2, [r3, #86]	; 0x56
 8001e80:	f883 1040 	strb.w	r1, [r3, #64]	; 0x40
 8001e84:	64d9      	str	r1, [r3, #76]	; 0x4c
 8001e86:	e9c3 1111 	strd	r1, r1, [r3, #68]	; 0x44
 8001e8a:	e7d1      	b.n	8001e30 <HAL_PCD_Init+0x7c>
 8001e8c:	fb06 4200 	mla	r2, r6, r0, r4
 8001e90:	f882 127d 	strb.w	r1, [r2, #637]	; 0x27d
 8001e94:	f882 027c 	strb.w	r0, [r2, #636]	; 0x27c
 8001e98:	f882 1280 	strb.w	r1, [r2, #640]	; 0x280
 8001e9c:	f8c2 128c 	str.w	r1, [r2, #652]	; 0x28c
 8001ea0:	e9c2 11a1 	strd	r1, r1, [r2, #644]	; 0x284
 8001ea4:	e7cb      	b.n	8001e3e <HAL_PCD_Init+0x8a>
 8001ea6:	f884 0038 	strb.w	r0, [r4, #56]	; 0x38
 8001eaa:	f884 34bd 	strb.w	r3, [r4, #1213]	; 0x4bd
 8001eae:	6a63      	ldr	r3, [r4, #36]	; 0x24
 8001eb0:	2b01      	cmp	r3, #1
 8001eb2:	d102      	bne.n	8001eba <HAL_PCD_Init+0x106>
 8001eb4:	4620      	mov	r0, r4
 8001eb6:	f000 f806 	bl	8001ec6 <HAL_PCDEx_ActivateLPM>
 8001eba:	6820      	ldr	r0, [r4, #0]
 8001ebc:	f002 fb60 	bl	8004580 <USB_DevDisconnect>
 8001ec0:	4628      	mov	r0, r5
 8001ec2:	b00b      	add	sp, #44	; 0x2c
 8001ec4:	bdf0      	pop	{r4, r5, r6, r7, pc}

08001ec6 <HAL_PCDEx_ActivateLPM>:
 8001ec6:	6802      	ldr	r2, [r0, #0]
 8001ec8:	2100      	movs	r1, #0
 8001eca:	2301      	movs	r3, #1
 8001ecc:	f880 14f4 	strb.w	r1, [r0, #1268]	; 0x4f4
 8001ed0:	f8c0 3500 	str.w	r3, [r0, #1280]	; 0x500
 8001ed4:	4608      	mov	r0, r1
 8001ed6:	6993      	ldr	r3, [r2, #24]
 8001ed8:	f043 6300 	orr.w	r3, r3, #134217728	; 0x8000000
 8001edc:	6193      	str	r3, [r2, #24]
 8001ede:	6d53      	ldr	r3, [r2, #84]	; 0x54
 8001ee0:	f043 5380 	orr.w	r3, r3, #268435456	; 0x10000000
 8001ee4:	f043 0303 	orr.w	r3, r3, #3
 8001ee8:	6553      	str	r3, [r2, #84]	; 0x54
 8001eea:	4770      	bx	lr

08001eec <HAL_PWREx_ConfigSupply>:
 8001eec:	b538      	push	{r3, r4, r5, lr}
 8001eee:	4c10      	ldr	r4, [pc, #64]	; (8001f30 <HAL_PWREx_ConfigSupply+0x44>)
 8001ef0:	68e3      	ldr	r3, [r4, #12]
 8001ef2:	f013 0f04 	tst.w	r3, #4
 8001ef6:	68e3      	ldr	r3, [r4, #12]
 8001ef8:	d105      	bne.n	8001f06 <HAL_PWREx_ConfigSupply+0x1a>
 8001efa:	f003 0307 	and.w	r3, r3, #7
 8001efe:	1a18      	subs	r0, r3, r0
 8001f00:	bf18      	it	ne
 8001f02:	2001      	movne	r0, #1
 8001f04:	bd38      	pop	{r3, r4, r5, pc}
 8001f06:	f023 0307 	bic.w	r3, r3, #7
 8001f0a:	4318      	orrs	r0, r3
 8001f0c:	60e0      	str	r0, [r4, #12]
 8001f0e:	f7ff f835 	bl	8000f7c <HAL_GetTick>
 8001f12:	4605      	mov	r5, r0
 8001f14:	6863      	ldr	r3, [r4, #4]
 8001f16:	049b      	lsls	r3, r3, #18
 8001f18:	d501      	bpl.n	8001f1e <HAL_PWREx_ConfigSupply+0x32>
 8001f1a:	2000      	movs	r0, #0
 8001f1c:	e7f2      	b.n	8001f04 <HAL_PWREx_ConfigSupply+0x18>
 8001f1e:	f7ff f82d 	bl	8000f7c <HAL_GetTick>
 8001f22:	1b40      	subs	r0, r0, r5
 8001f24:	f5b0 7f7a 	cmp.w	r0, #1000	; 0x3e8
 8001f28:	d9f4      	bls.n	8001f14 <HAL_PWREx_ConfigSupply+0x28>
 8001f2a:	2001      	movs	r0, #1
 8001f2c:	e7ea      	b.n	8001f04 <HAL_PWREx_ConfigSupply+0x18>
 8001f2e:	bf00      	nop
 8001f30:	58024800 	.word	0x58024800

08001f34 <HAL_PWREx_EnableUSBVoltageDetector>:
 8001f34:	4a02      	ldr	r2, [pc, #8]	; (8001f40 <HAL_PWREx_EnableUSBVoltageDetector+0xc>)
 8001f36:	68d3      	ldr	r3, [r2, #12]
 8001f38:	f043 7380 	orr.w	r3, r3, #16777216	; 0x1000000
 8001f3c:	60d3      	str	r3, [r2, #12]
 8001f3e:	4770      	bx	lr
 8001f40:	58024800 	.word	0x58024800

08001f44 <HAL_RCC_OscConfig>:
 8001f44:	b5f8      	push	{r3, r4, r5, r6, r7, lr}
 8001f46:	4604      	mov	r4, r0
 8001f48:	b908      	cbnz	r0, 8001f4e <HAL_RCC_OscConfig+0xa>
 8001f4a:	2001      	movs	r0, #1
 8001f4c:	e08c      	b.n	8002068 <HAL_RCC_OscConfig+0x124>
 8001f4e:	6803      	ldr	r3, [r0, #0]
 8001f50:	07d8      	lsls	r0, r3, #31
 8001f52:	d45e      	bmi.n	8002012 <HAL_RCC_OscConfig+0xce>
 8001f54:	6823      	ldr	r3, [r4, #0]
 8001f56:	0799      	lsls	r1, r3, #30
 8001f58:	f100 80ac 	bmi.w	80020b4 <HAL_RCC_OscConfig+0x170>
 8001f5c:	6823      	ldr	r3, [r4, #0]
 8001f5e:	06da      	lsls	r2, r3, #27
 8001f60:	d527      	bpl.n	8001fb2 <HAL_RCC_OscConfig+0x6e>
 8001f62:	4a9c      	ldr	r2, [pc, #624]	; (80021d4 <HAL_RCC_OscConfig+0x290>)
 8001f64:	6913      	ldr	r3, [r2, #16]
 8001f66:	6a91      	ldr	r1, [r2, #40]	; 0x28
 8001f68:	f003 0338 	and.w	r3, r3, #56	; 0x38
 8001f6c:	2b08      	cmp	r3, #8
 8001f6e:	d007      	beq.n	8001f80 <HAL_RCC_OscConfig+0x3c>
 8001f70:	2b18      	cmp	r3, #24
 8001f72:	f040 8103 	bne.w	800217c <HAL_RCC_OscConfig+0x238>
 8001f76:	f001 0303 	and.w	r3, r1, #3
 8001f7a:	2b01      	cmp	r3, #1
 8001f7c:	f040 80fe 	bne.w	800217c <HAL_RCC_OscConfig+0x238>
 8001f80:	6813      	ldr	r3, [r2, #0]
 8001f82:	05db      	lsls	r3, r3, #23
 8001f84:	d502      	bpl.n	8001f8c <HAL_RCC_OscConfig+0x48>
 8001f86:	69e3      	ldr	r3, [r4, #28]
 8001f88:	2b80      	cmp	r3, #128	; 0x80
 8001f8a:	d1de      	bne.n	8001f4a <HAL_RCC_OscConfig+0x6>
 8001f8c:	f7ff f80e 	bl	8000fac <HAL_GetREVID>
 8001f90:	f241 0303 	movw	r3, #4099	; 0x1003
 8001f94:	6a21      	ldr	r1, [r4, #32]
 8001f96:	4298      	cmp	r0, r3
 8001f98:	4b8e      	ldr	r3, [pc, #568]	; (80021d4 <HAL_RCC_OscConfig+0x290>)
 8001f9a:	f200 80e8 	bhi.w	800216e <HAL_RCC_OscConfig+0x22a>
 8001f9e:	685a      	ldr	r2, [r3, #4]
 8001fa0:	2920      	cmp	r1, #32
 8001fa2:	f022 42f8 	bic.w	r2, r2, #2080374784	; 0x7c000000
 8001fa6:	bf0c      	ite	eq
 8001fa8:	f042 4280 	orreq.w	r2, r2, #1073741824	; 0x40000000
 8001fac:	ea42 6281 	orrne.w	r2, r2, r1, lsl #26
 8001fb0:	605a      	str	r2, [r3, #4]
 8001fb2:	6823      	ldr	r3, [r4, #0]
 8001fb4:	0719      	lsls	r1, r3, #28
 8001fb6:	f100 8122 	bmi.w	80021fe <HAL_RCC_OscConfig+0x2ba>
 8001fba:	6823      	ldr	r3, [r4, #0]
 8001fbc:	069a      	lsls	r2, r3, #26
 8001fbe:	f100 8143 	bmi.w	8002248 <HAL_RCC_OscConfig+0x304>
 8001fc2:	6823      	ldr	r3, [r4, #0]
 8001fc4:	075d      	lsls	r5, r3, #29
 8001fc6:	d51e      	bpl.n	8002006 <HAL_RCC_OscConfig+0xc2>
 8001fc8:	4d83      	ldr	r5, [pc, #524]	; (80021d8 <HAL_RCC_OscConfig+0x294>)
 8001fca:	682b      	ldr	r3, [r5, #0]
 8001fcc:	f443 7380 	orr.w	r3, r3, #256	; 0x100
 8001fd0:	602b      	str	r3, [r5, #0]
 8001fd2:	f7fe ffd3 	bl	8000f7c <HAL_GetTick>
 8001fd6:	4606      	mov	r6, r0
 8001fd8:	682b      	ldr	r3, [r5, #0]
 8001fda:	05da      	lsls	r2, r3, #23
 8001fdc:	f140 8159 	bpl.w	8002292 <HAL_RCC_OscConfig+0x34e>
 8001fe0:	68a3      	ldr	r3, [r4, #8]
 8001fe2:	4d7c      	ldr	r5, [pc, #496]	; (80021d4 <HAL_RCC_OscConfig+0x290>)
 8001fe4:	2b01      	cmp	r3, #1
 8001fe6:	f040 815b 	bne.w	80022a0 <HAL_RCC_OscConfig+0x35c>
 8001fea:	6f2b      	ldr	r3, [r5, #112]	; 0x70
 8001fec:	f043 0301 	orr.w	r3, r3, #1
 8001ff0:	672b      	str	r3, [r5, #112]	; 0x70
 8001ff2:	f241 3788 	movw	r7, #5000	; 0x1388
 8001ff6:	f7fe ffc1 	bl	8000f7c <HAL_GetTick>
 8001ffa:	4e76      	ldr	r6, [pc, #472]	; (80021d4 <HAL_RCC_OscConfig+0x290>)
 8001ffc:	4605      	mov	r5, r0
 8001ffe:	6f33      	ldr	r3, [r6, #112]	; 0x70
 8002000:	079b      	lsls	r3, r3, #30
 8002002:	f140 8173 	bpl.w	80022ec <HAL_RCC_OscConfig+0x3a8>
 8002006:	6a60      	ldr	r0, [r4, #36]	; 0x24
 8002008:	2800      	cmp	r0, #0
 800200a:	f040 8176 	bne.w	80022fa <HAL_RCC_OscConfig+0x3b6>
 800200e:	2000      	movs	r0, #0
 8002010:	e02a      	b.n	8002068 <HAL_RCC_OscConfig+0x124>
 8002012:	4a70      	ldr	r2, [pc, #448]	; (80021d4 <HAL_RCC_OscConfig+0x290>)
 8002014:	6913      	ldr	r3, [r2, #16]
 8002016:	6a91      	ldr	r1, [r2, #40]	; 0x28
 8002018:	f003 0338 	and.w	r3, r3, #56	; 0x38
 800201c:	2b10      	cmp	r3, #16
 800201e:	d005      	beq.n	800202c <HAL_RCC_OscConfig+0xe8>
 8002020:	2b18      	cmp	r3, #24
 8002022:	d10a      	bne.n	800203a <HAL_RCC_OscConfig+0xf6>
 8002024:	f001 0303 	and.w	r3, r1, #3
 8002028:	2b02      	cmp	r3, #2
 800202a:	d106      	bne.n	800203a <HAL_RCC_OscConfig+0xf6>
 800202c:	6813      	ldr	r3, [r2, #0]
 800202e:	039a      	lsls	r2, r3, #14
 8002030:	d590      	bpl.n	8001f54 <HAL_RCC_OscConfig+0x10>
 8002032:	6863      	ldr	r3, [r4, #4]
 8002034:	2b00      	cmp	r3, #0
 8002036:	d18d      	bne.n	8001f54 <HAL_RCC_OscConfig+0x10>
 8002038:	e787      	b.n	8001f4a <HAL_RCC_OscConfig+0x6>
 800203a:	6863      	ldr	r3, [r4, #4]
 800203c:	4d65      	ldr	r5, [pc, #404]	; (80021d4 <HAL_RCC_OscConfig+0x290>)
 800203e:	f5b3 3f80 	cmp.w	r3, #65536	; 0x10000
 8002042:	d112      	bne.n	800206a <HAL_RCC_OscConfig+0x126>
 8002044:	682b      	ldr	r3, [r5, #0]
 8002046:	f443 3380 	orr.w	r3, r3, #65536	; 0x10000
 800204a:	602b      	str	r3, [r5, #0]
 800204c:	f7fe ff96 	bl	8000f7c <HAL_GetTick>
 8002050:	4e60      	ldr	r6, [pc, #384]	; (80021d4 <HAL_RCC_OscConfig+0x290>)
 8002052:	4605      	mov	r5, r0
 8002054:	6833      	ldr	r3, [r6, #0]
 8002056:	039b      	lsls	r3, r3, #14
 8002058:	f53f af7c 	bmi.w	8001f54 <HAL_RCC_OscConfig+0x10>
 800205c:	f7fe ff8e 	bl	8000f7c <HAL_GetTick>
 8002060:	1b40      	subs	r0, r0, r5
 8002062:	2864      	cmp	r0, #100	; 0x64
 8002064:	d9f6      	bls.n	8002054 <HAL_RCC_OscConfig+0x110>
 8002066:	2003      	movs	r0, #3
 8002068:	bdf8      	pop	{r3, r4, r5, r6, r7, pc}
 800206a:	b9a3      	cbnz	r3, 8002096 <HAL_RCC_OscConfig+0x152>
 800206c:	682b      	ldr	r3, [r5, #0]
 800206e:	f423 3380 	bic.w	r3, r3, #65536	; 0x10000
 8002072:	602b      	str	r3, [r5, #0]
 8002074:	682b      	ldr	r3, [r5, #0]
 8002076:	f423 2380 	bic.w	r3, r3, #262144	; 0x40000
 800207a:	602b      	str	r3, [r5, #0]
 800207c:	f7fe ff7e 	bl	8000f7c <HAL_GetTick>
 8002080:	4606      	mov	r6, r0
 8002082:	682b      	ldr	r3, [r5, #0]
 8002084:	039f      	lsls	r7, r3, #14
 8002086:	f57f af65 	bpl.w	8001f54 <HAL_RCC_OscConfig+0x10>
 800208a:	f7fe ff77 	bl	8000f7c <HAL_GetTick>
 800208e:	1b80      	subs	r0, r0, r6
 8002090:	2864      	cmp	r0, #100	; 0x64
 8002092:	d9f6      	bls.n	8002082 <HAL_RCC_OscConfig+0x13e>
 8002094:	e7e7      	b.n	8002066 <HAL_RCC_OscConfig+0x122>
 8002096:	f5b3 2fa0 	cmp.w	r3, #327680	; 0x50000
 800209a:	682b      	ldr	r3, [r5, #0]
 800209c:	d103      	bne.n	80020a6 <HAL_RCC_OscConfig+0x162>
 800209e:	f443 2380 	orr.w	r3, r3, #262144	; 0x40000
 80020a2:	602b      	str	r3, [r5, #0]
 80020a4:	e7ce      	b.n	8002044 <HAL_RCC_OscConfig+0x100>
 80020a6:	f423 3380 	bic.w	r3, r3, #65536	; 0x10000
 80020aa:	602b      	str	r3, [r5, #0]
 80020ac:	682b      	ldr	r3, [r5, #0]
 80020ae:	f423 2380 	bic.w	r3, r3, #262144	; 0x40000
 80020b2:	e7ca      	b.n	800204a <HAL_RCC_OscConfig+0x106>
 80020b4:	4947      	ldr	r1, [pc, #284]	; (80021d4 <HAL_RCC_OscConfig+0x290>)
 80020b6:	68e2      	ldr	r2, [r4, #12]
 80020b8:	690b      	ldr	r3, [r1, #16]
 80020ba:	6a88      	ldr	r0, [r1, #40]	; 0x28
 80020bc:	f013 0338 	ands.w	r3, r3, #56	; 0x38
 80020c0:	d003      	beq.n	80020ca <HAL_RCC_OscConfig+0x186>
 80020c2:	2b18      	cmp	r3, #24
 80020c4:	d12b      	bne.n	800211e <HAL_RCC_OscConfig+0x1da>
 80020c6:	0780      	lsls	r0, r0, #30
 80020c8:	d129      	bne.n	800211e <HAL_RCC_OscConfig+0x1da>
 80020ca:	680b      	ldr	r3, [r1, #0]
 80020cc:	075b      	lsls	r3, r3, #29
 80020ce:	d502      	bpl.n	80020d6 <HAL_RCC_OscConfig+0x192>
 80020d0:	2a00      	cmp	r2, #0
 80020d2:	f43f af3a 	beq.w	8001f4a <HAL_RCC_OscConfig+0x6>
 80020d6:	4d3f      	ldr	r5, [pc, #252]	; (80021d4 <HAL_RCC_OscConfig+0x290>)
 80020d8:	682b      	ldr	r3, [r5, #0]
 80020da:	f023 0319 	bic.w	r3, r3, #25
 80020de:	4313      	orrs	r3, r2
 80020e0:	602b      	str	r3, [r5, #0]
 80020e2:	f7fe ff4b 	bl	8000f7c <HAL_GetTick>
 80020e6:	4606      	mov	r6, r0
 80020e8:	682b      	ldr	r3, [r5, #0]
 80020ea:	075f      	lsls	r7, r3, #29
 80020ec:	d511      	bpl.n	8002112 <HAL_RCC_OscConfig+0x1ce>
 80020ee:	f7fe ff5d 	bl	8000fac <HAL_GetREVID>
 80020f2:	f241 0303 	movw	r3, #4099	; 0x1003
 80020f6:	6922      	ldr	r2, [r4, #16]
 80020f8:	4298      	cmp	r0, r3
 80020fa:	686b      	ldr	r3, [r5, #4]
 80020fc:	d822      	bhi.n	8002144 <HAL_RCC_OscConfig+0x200>
 80020fe:	f423 337c 	bic.w	r3, r3, #258048	; 0x3f000
 8002102:	2a40      	cmp	r2, #64	; 0x40
 8002104:	bf0c      	ite	eq
 8002106:	f443 3300 	orreq.w	r3, r3, #131072	; 0x20000
 800210a:	ea43 3302 	orrne.w	r3, r3, r2, lsl #12
 800210e:	606b      	str	r3, [r5, #4]
 8002110:	e724      	b.n	8001f5c <HAL_RCC_OscConfig+0x18>
 8002112:	f7fe ff33 	bl	8000f7c <HAL_GetTick>
 8002116:	1b80      	subs	r0, r0, r6
 8002118:	2802      	cmp	r0, #2
 800211a:	d9e5      	bls.n	80020e8 <HAL_RCC_OscConfig+0x1a4>
 800211c:	e7a3      	b.n	8002066 <HAL_RCC_OscConfig+0x122>
 800211e:	4d2d      	ldr	r5, [pc, #180]	; (80021d4 <HAL_RCC_OscConfig+0x290>)
 8002120:	682b      	ldr	r3, [r5, #0]
 8002122:	b1a2      	cbz	r2, 800214e <HAL_RCC_OscConfig+0x20a>
 8002124:	f023 0319 	bic.w	r3, r3, #25
 8002128:	4313      	orrs	r3, r2
 800212a:	602b      	str	r3, [r5, #0]
 800212c:	f7fe ff26 	bl	8000f7c <HAL_GetTick>
 8002130:	4606      	mov	r6, r0
 8002132:	682b      	ldr	r3, [r5, #0]
 8002134:	0758      	lsls	r0, r3, #29
 8002136:	d4da      	bmi.n	80020ee <HAL_RCC_OscConfig+0x1aa>
 8002138:	f7fe ff20 	bl	8000f7c <HAL_GetTick>
 800213c:	1b80      	subs	r0, r0, r6
 800213e:	2802      	cmp	r0, #2
 8002140:	d9f7      	bls.n	8002132 <HAL_RCC_OscConfig+0x1ee>
 8002142:	e790      	b.n	8002066 <HAL_RCC_OscConfig+0x122>
 8002144:	f023 43fe 	bic.w	r3, r3, #2130706432	; 0x7f000000
 8002148:	ea43 6302 	orr.w	r3, r3, r2, lsl #24
 800214c:	e7df      	b.n	800210e <HAL_RCC_OscConfig+0x1ca>
 800214e:	f023 0301 	bic.w	r3, r3, #1
 8002152:	602b      	str	r3, [r5, #0]
 8002154:	f7fe ff12 	bl	8000f7c <HAL_GetTick>
 8002158:	4606      	mov	r6, r0
 800215a:	682b      	ldr	r3, [r5, #0]
 800215c:	0759      	lsls	r1, r3, #29
 800215e:	f57f aefd 	bpl.w	8001f5c <HAL_RCC_OscConfig+0x18>
 8002162:	f7fe ff0b 	bl	8000f7c <HAL_GetTick>
 8002166:	1b80      	subs	r0, r0, r6
 8002168:	2802      	cmp	r0, #2
 800216a:	d9f6      	bls.n	800215a <HAL_RCC_OscConfig+0x216>
 800216c:	e77b      	b.n	8002066 <HAL_RCC_OscConfig+0x122>
 800216e:	68da      	ldr	r2, [r3, #12]
 8002170:	f022 527c 	bic.w	r2, r2, #1056964608	; 0x3f000000
 8002174:	ea42 6201 	orr.w	r2, r2, r1, lsl #24
 8002178:	60da      	str	r2, [r3, #12]
 800217a:	e71a      	b.n	8001fb2 <HAL_RCC_OscConfig+0x6e>
 800217c:	69e3      	ldr	r3, [r4, #28]
 800217e:	4d15      	ldr	r5, [pc, #84]	; (80021d4 <HAL_RCC_OscConfig+0x290>)
 8002180:	b363      	cbz	r3, 80021dc <HAL_RCC_OscConfig+0x298>
 8002182:	682b      	ldr	r3, [r5, #0]
 8002184:	f043 0380 	orr.w	r3, r3, #128	; 0x80
 8002188:	602b      	str	r3, [r5, #0]
 800218a:	f7fe fef7 	bl	8000f7c <HAL_GetTick>
 800218e:	4606      	mov	r6, r0
 8002190:	682b      	ldr	r3, [r5, #0]
 8002192:	05df      	lsls	r7, r3, #23
 8002194:	d511      	bpl.n	80021ba <HAL_RCC_OscConfig+0x276>
 8002196:	f7fe ff09 	bl	8000fac <HAL_GetREVID>
 800219a:	f241 0303 	movw	r3, #4099	; 0x1003
 800219e:	6a22      	ldr	r2, [r4, #32]
 80021a0:	4298      	cmp	r0, r3
 80021a2:	d810      	bhi.n	80021c6 <HAL_RCC_OscConfig+0x282>
 80021a4:	686b      	ldr	r3, [r5, #4]
 80021a6:	2a20      	cmp	r2, #32
 80021a8:	f023 43f8 	bic.w	r3, r3, #2080374784	; 0x7c000000
 80021ac:	bf0c      	ite	eq
 80021ae:	f043 4380 	orreq.w	r3, r3, #1073741824	; 0x40000000
 80021b2:	ea43 6382 	orrne.w	r3, r3, r2, lsl #26
 80021b6:	606b      	str	r3, [r5, #4]
 80021b8:	e6fb      	b.n	8001fb2 <HAL_RCC_OscConfig+0x6e>
 80021ba:	f7fe fedf 	bl	8000f7c <HAL_GetTick>
 80021be:	1b80      	subs	r0, r0, r6
 80021c0:	2802      	cmp	r0, #2
 80021c2:	d9e5      	bls.n	8002190 <HAL_RCC_OscConfig+0x24c>
 80021c4:	e74f      	b.n	8002066 <HAL_RCC_OscConfig+0x122>
 80021c6:	68eb      	ldr	r3, [r5, #12]
 80021c8:	f023 537c 	bic.w	r3, r3, #1056964608	; 0x3f000000
 80021cc:	ea43 6302 	orr.w	r3, r3, r2, lsl #24
 80021d0:	60eb      	str	r3, [r5, #12]
 80021d2:	e6ee      	b.n	8001fb2 <HAL_RCC_OscConfig+0x6e>
 80021d4:	58024400 	.word	0x58024400
 80021d8:	58024800 	.word	0x58024800
 80021dc:	682b      	ldr	r3, [r5, #0]
 80021de:	f023 0380 	bic.w	r3, r3, #128	; 0x80
 80021e2:	602b      	str	r3, [r5, #0]
 80021e4:	f7fe feca 	bl	8000f7c <HAL_GetTick>
 80021e8:	4606      	mov	r6, r0
 80021ea:	682b      	ldr	r3, [r5, #0]
 80021ec:	05d8      	lsls	r0, r3, #23
 80021ee:	f57f aee0 	bpl.w	8001fb2 <HAL_RCC_OscConfig+0x6e>
 80021f2:	f7fe fec3 	bl	8000f7c <HAL_GetTick>
 80021f6:	1b80      	subs	r0, r0, r6
 80021f8:	2802      	cmp	r0, #2
 80021fa:	d9f6      	bls.n	80021ea <HAL_RCC_OscConfig+0x2a6>
 80021fc:	e733      	b.n	8002066 <HAL_RCC_OscConfig+0x122>
 80021fe:	6963      	ldr	r3, [r4, #20]
 8002200:	4da5      	ldr	r5, [pc, #660]	; (8002498 <HAL_RCC_OscConfig+0x554>)
 8002202:	b183      	cbz	r3, 8002226 <HAL_RCC_OscConfig+0x2e2>
 8002204:	6f6b      	ldr	r3, [r5, #116]	; 0x74
 8002206:	f043 0301 	orr.w	r3, r3, #1
 800220a:	676b      	str	r3, [r5, #116]	; 0x74
 800220c:	f7fe feb6 	bl	8000f7c <HAL_GetTick>
 8002210:	4606      	mov	r6, r0
 8002212:	6f6b      	ldr	r3, [r5, #116]	; 0x74
 8002214:	079b      	lsls	r3, r3, #30
 8002216:	f53f aed0 	bmi.w	8001fba <HAL_RCC_OscConfig+0x76>
 800221a:	f7fe feaf 	bl	8000f7c <HAL_GetTick>
 800221e:	1b80      	subs	r0, r0, r6
 8002220:	2802      	cmp	r0, #2
 8002222:	d9f6      	bls.n	8002212 <HAL_RCC_OscConfig+0x2ce>
 8002224:	e71f      	b.n	8002066 <HAL_RCC_OscConfig+0x122>
 8002226:	6f6b      	ldr	r3, [r5, #116]	; 0x74
 8002228:	f023 0301 	bic.w	r3, r3, #1
 800222c:	676b      	str	r3, [r5, #116]	; 0x74
 800222e:	f7fe fea5 	bl	8000f7c <HAL_GetTick>
 8002232:	4606      	mov	r6, r0
 8002234:	6f6b      	ldr	r3, [r5, #116]	; 0x74
 8002236:	079f      	lsls	r7, r3, #30
 8002238:	f57f aebf 	bpl.w	8001fba <HAL_RCC_OscConfig+0x76>
 800223c:	f7fe fe9e 	bl	8000f7c <HAL_GetTick>
 8002240:	1b80      	subs	r0, r0, r6
 8002242:	2802      	cmp	r0, #2
 8002244:	d9f6      	bls.n	8002234 <HAL_RCC_OscConfig+0x2f0>
 8002246:	e70e      	b.n	8002066 <HAL_RCC_OscConfig+0x122>
 8002248:	69a3      	ldr	r3, [r4, #24]
 800224a:	4d93      	ldr	r5, [pc, #588]	; (8002498 <HAL_RCC_OscConfig+0x554>)
 800224c:	b183      	cbz	r3, 8002270 <HAL_RCC_OscConfig+0x32c>
 800224e:	682b      	ldr	r3, [r5, #0]
 8002250:	f443 5380 	orr.w	r3, r3, #4096	; 0x1000
 8002254:	602b      	str	r3, [r5, #0]
 8002256:	f7fe fe91 	bl	8000f7c <HAL_GetTick>
 800225a:	4606      	mov	r6, r0
 800225c:	682b      	ldr	r3, [r5, #0]
 800225e:	0498      	lsls	r0, r3, #18
 8002260:	f53f aeaf 	bmi.w	8001fc2 <HAL_RCC_OscConfig+0x7e>
 8002264:	f7fe fe8a 	bl	8000f7c <HAL_GetTick>
 8002268:	1b80      	subs	r0, r0, r6
 800226a:	2802      	cmp	r0, #2
 800226c:	d9f6      	bls.n	800225c <HAL_RCC_OscConfig+0x318>
 800226e:	e6fa      	b.n	8002066 <HAL_RCC_OscConfig+0x122>
 8002270:	682b      	ldr	r3, [r5, #0]
 8002272:	f423 5380 	bic.w	r3, r3, #4096	; 0x1000
 8002276:	602b      	str	r3, [r5, #0]
 8002278:	f7fe fe80 	bl	8000f7c <HAL_GetTick>
 800227c:	4606      	mov	r6, r0
 800227e:	682b      	ldr	r3, [r5, #0]
 8002280:	0499      	lsls	r1, r3, #18
 8002282:	f57f ae9e 	bpl.w	8001fc2 <HAL_RCC_OscConfig+0x7e>
 8002286:	f7fe fe79 	bl	8000f7c <HAL_GetTick>
 800228a:	1b80      	subs	r0, r0, r6
 800228c:	2802      	cmp	r0, #2
 800228e:	d9f6      	bls.n	800227e <HAL_RCC_OscConfig+0x33a>
 8002290:	e6e9      	b.n	8002066 <HAL_RCC_OscConfig+0x122>
 8002292:	f7fe fe73 	bl	8000f7c <HAL_GetTick>
 8002296:	1b80      	subs	r0, r0, r6
 8002298:	2864      	cmp	r0, #100	; 0x64
 800229a:	f67f ae9d 	bls.w	8001fd8 <HAL_RCC_OscConfig+0x94>
 800229e:	e6e2      	b.n	8002066 <HAL_RCC_OscConfig+0x122>
 80022a0:	b9b3      	cbnz	r3, 80022d0 <HAL_RCC_OscConfig+0x38c>
 80022a2:	6f2b      	ldr	r3, [r5, #112]	; 0x70
 80022a4:	f241 3788 	movw	r7, #5000	; 0x1388
 80022a8:	f023 0301 	bic.w	r3, r3, #1
 80022ac:	672b      	str	r3, [r5, #112]	; 0x70
 80022ae:	6f2b      	ldr	r3, [r5, #112]	; 0x70
 80022b0:	f023 0304 	bic.w	r3, r3, #4
 80022b4:	672b      	str	r3, [r5, #112]	; 0x70
 80022b6:	f7fe fe61 	bl	8000f7c <HAL_GetTick>
 80022ba:	4606      	mov	r6, r0
 80022bc:	6f2b      	ldr	r3, [r5, #112]	; 0x70
 80022be:	0798      	lsls	r0, r3, #30
 80022c0:	f57f aea1 	bpl.w	8002006 <HAL_RCC_OscConfig+0xc2>
 80022c4:	f7fe fe5a 	bl	8000f7c <HAL_GetTick>
 80022c8:	1b80      	subs	r0, r0, r6
 80022ca:	42b8      	cmp	r0, r7
 80022cc:	d9f6      	bls.n	80022bc <HAL_RCC_OscConfig+0x378>
 80022ce:	e6ca      	b.n	8002066 <HAL_RCC_OscConfig+0x122>
 80022d0:	2b05      	cmp	r3, #5
 80022d2:	6f2b      	ldr	r3, [r5, #112]	; 0x70
 80022d4:	d103      	bne.n	80022de <HAL_RCC_OscConfig+0x39a>
 80022d6:	f043 0304 	orr.w	r3, r3, #4
 80022da:	672b      	str	r3, [r5, #112]	; 0x70
 80022dc:	e685      	b.n	8001fea <HAL_RCC_OscConfig+0xa6>
 80022de:	f023 0301 	bic.w	r3, r3, #1
 80022e2:	672b      	str	r3, [r5, #112]	; 0x70
 80022e4:	6f2b      	ldr	r3, [r5, #112]	; 0x70
 80022e6:	f023 0304 	bic.w	r3, r3, #4
 80022ea:	e681      	b.n	8001ff0 <HAL_RCC_OscConfig+0xac>
 80022ec:	f7fe fe46 	bl	8000f7c <HAL_GetTick>
 80022f0:	1b40      	subs	r0, r0, r5
 80022f2:	42b8      	cmp	r0, r7
 80022f4:	f67f ae83 	bls.w	8001ffe <HAL_RCC_OscConfig+0xba>
 80022f8:	e6b5      	b.n	8002066 <HAL_RCC_OscConfig+0x122>
 80022fa:	4d67      	ldr	r5, [pc, #412]	; (8002498 <HAL_RCC_OscConfig+0x554>)
 80022fc:	692b      	ldr	r3, [r5, #16]
 80022fe:	f003 0338 	and.w	r3, r3, #56	; 0x38
 8002302:	2b18      	cmp	r3, #24
 8002304:	d07a      	beq.n	80023fc <HAL_RCC_OscConfig+0x4b8>
 8002306:	682b      	ldr	r3, [r5, #0]
 8002308:	2802      	cmp	r0, #2
 800230a:	f023 7380 	bic.w	r3, r3, #16777216	; 0x1000000
 800230e:	602b      	str	r3, [r5, #0]
 8002310:	d167      	bne.n	80023e2 <HAL_RCC_OscConfig+0x49e>
 8002312:	f7fe fe33 	bl	8000f7c <HAL_GetTick>
 8002316:	4606      	mov	r6, r0
 8002318:	682b      	ldr	r3, [r5, #0]
 800231a:	0199      	lsls	r1, r3, #6
 800231c:	d45b      	bmi.n	80023d6 <HAL_RCC_OscConfig+0x492>
 800231e:	6aab      	ldr	r3, [r5, #40]	; 0x28
 8002320:	6aa2      	ldr	r2, [r4, #40]	; 0x28
 8002322:	f423 737c 	bic.w	r3, r3, #1008	; 0x3f0
 8002326:	f023 0303 	bic.w	r3, r3, #3
 800232a:	4313      	orrs	r3, r2
 800232c:	6ae2      	ldr	r2, [r4, #44]	; 0x2c
 800232e:	ea43 1302 	orr.w	r3, r3, r2, lsl #4
 8002332:	62ab      	str	r3, [r5, #40]	; 0x28
 8002334:	6b63      	ldr	r3, [r4, #52]	; 0x34
 8002336:	6ba2      	ldr	r2, [r4, #56]	; 0x38
 8002338:	3b01      	subs	r3, #1
 800233a:	3a01      	subs	r2, #1
 800233c:	025b      	lsls	r3, r3, #9
 800233e:	0412      	lsls	r2, r2, #16
 8002340:	b29b      	uxth	r3, r3
 8002342:	f402 02fe 	and.w	r2, r2, #8323072	; 0x7f0000
 8002346:	4313      	orrs	r3, r2
 8002348:	6b22      	ldr	r2, [r4, #48]	; 0x30
 800234a:	3a01      	subs	r2, #1
 800234c:	f3c2 0208 	ubfx	r2, r2, #0, #9
 8002350:	4313      	orrs	r3, r2
 8002352:	6be2      	ldr	r2, [r4, #60]	; 0x3c
 8002354:	3a01      	subs	r2, #1
 8002356:	0612      	lsls	r2, r2, #24
 8002358:	f002 42fe 	and.w	r2, r2, #2130706432	; 0x7f000000
 800235c:	4313      	orrs	r3, r2
 800235e:	632b      	str	r3, [r5, #48]	; 0x30
 8002360:	6aeb      	ldr	r3, [r5, #44]	; 0x2c
 8002362:	f023 0301 	bic.w	r3, r3, #1
 8002366:	62eb      	str	r3, [r5, #44]	; 0x2c
 8002368:	6b6b      	ldr	r3, [r5, #52]	; 0x34
 800236a:	6ca2      	ldr	r2, [r4, #72]	; 0x48
 800236c:	f423 437f 	bic.w	r3, r3, #65280	; 0xff00
 8002370:	f023 03f8 	bic.w	r3, r3, #248	; 0xf8
 8002374:	ea43 03c2 	orr.w	r3, r3, r2, lsl #3
 8002378:	636b      	str	r3, [r5, #52]	; 0x34
 800237a:	6aeb      	ldr	r3, [r5, #44]	; 0x2c
 800237c:	6c22      	ldr	r2, [r4, #64]	; 0x40
 800237e:	f023 030c 	bic.w	r3, r3, #12
 8002382:	4313      	orrs	r3, r2
 8002384:	62eb      	str	r3, [r5, #44]	; 0x2c
 8002386:	6aeb      	ldr	r3, [r5, #44]	; 0x2c
 8002388:	6c62      	ldr	r2, [r4, #68]	; 0x44
 800238a:	f023 0302 	bic.w	r3, r3, #2
 800238e:	4313      	orrs	r3, r2
 8002390:	62eb      	str	r3, [r5, #44]	; 0x2c
 8002392:	6aeb      	ldr	r3, [r5, #44]	; 0x2c
 8002394:	f443 3380 	orr.w	r3, r3, #65536	; 0x10000
 8002398:	62eb      	str	r3, [r5, #44]	; 0x2c
 800239a:	6aeb      	ldr	r3, [r5, #44]	; 0x2c
 800239c:	f443 3300 	orr.w	r3, r3, #131072	; 0x20000
 80023a0:	62eb      	str	r3, [r5, #44]	; 0x2c
 80023a2:	6aeb      	ldr	r3, [r5, #44]	; 0x2c
 80023a4:	f443 2380 	orr.w	r3, r3, #262144	; 0x40000
 80023a8:	62eb      	str	r3, [r5, #44]	; 0x2c
 80023aa:	6aeb      	ldr	r3, [r5, #44]	; 0x2c
 80023ac:	f043 0301 	orr.w	r3, r3, #1
 80023b0:	62eb      	str	r3, [r5, #44]	; 0x2c
 80023b2:	682b      	ldr	r3, [r5, #0]
 80023b4:	f043 7380 	orr.w	r3, r3, #16777216	; 0x1000000
 80023b8:	602b      	str	r3, [r5, #0]
 80023ba:	f7fe fddf 	bl	8000f7c <HAL_GetTick>
 80023be:	4d36      	ldr	r5, [pc, #216]	; (8002498 <HAL_RCC_OscConfig+0x554>)
 80023c0:	4604      	mov	r4, r0
 80023c2:	682b      	ldr	r3, [r5, #0]
 80023c4:	019a      	lsls	r2, r3, #6
 80023c6:	f53f ae22 	bmi.w	800200e <HAL_RCC_OscConfig+0xca>
 80023ca:	f7fe fdd7 	bl	8000f7c <HAL_GetTick>
 80023ce:	1b00      	subs	r0, r0, r4
 80023d0:	2802      	cmp	r0, #2
 80023d2:	d9f6      	bls.n	80023c2 <HAL_RCC_OscConfig+0x47e>
 80023d4:	e647      	b.n	8002066 <HAL_RCC_OscConfig+0x122>
 80023d6:	f7fe fdd1 	bl	8000f7c <HAL_GetTick>
 80023da:	1b80      	subs	r0, r0, r6
 80023dc:	2802      	cmp	r0, #2
 80023de:	d99b      	bls.n	8002318 <HAL_RCC_OscConfig+0x3d4>
 80023e0:	e641      	b.n	8002066 <HAL_RCC_OscConfig+0x122>
 80023e2:	f7fe fdcb 	bl	8000f7c <HAL_GetTick>
 80023e6:	4604      	mov	r4, r0
 80023e8:	682b      	ldr	r3, [r5, #0]
 80023ea:	019b      	lsls	r3, r3, #6
 80023ec:	f57f ae0f 	bpl.w	800200e <HAL_RCC_OscConfig+0xca>
 80023f0:	f7fe fdc4 	bl	8000f7c <HAL_GetTick>
 80023f4:	1b00      	subs	r0, r0, r4
 80023f6:	2802      	cmp	r0, #2
 80023f8:	d9f6      	bls.n	80023e8 <HAL_RCC_OscConfig+0x4a4>
 80023fa:	e634      	b.n	8002066 <HAL_RCC_OscConfig+0x122>
 80023fc:	2801      	cmp	r0, #1
 80023fe:	6aaa      	ldr	r2, [r5, #40]	; 0x28
 8002400:	6b2b      	ldr	r3, [r5, #48]	; 0x30
 8002402:	f43f ae31 	beq.w	8002068 <HAL_RCC_OscConfig+0x124>
 8002406:	f002 0103 	and.w	r1, r2, #3
 800240a:	6aa0      	ldr	r0, [r4, #40]	; 0x28
 800240c:	4281      	cmp	r1, r0
 800240e:	f47f ad9c 	bne.w	8001f4a <HAL_RCC_OscConfig+0x6>
 8002412:	f3c2 1205 	ubfx	r2, r2, #4, #6
 8002416:	6ae1      	ldr	r1, [r4, #44]	; 0x2c
 8002418:	428a      	cmp	r2, r1
 800241a:	f47f ad96 	bne.w	8001f4a <HAL_RCC_OscConfig+0x6>
 800241e:	6b22      	ldr	r2, [r4, #48]	; 0x30
 8002420:	f3c3 0108 	ubfx	r1, r3, #0, #9
 8002424:	3a01      	subs	r2, #1
 8002426:	4291      	cmp	r1, r2
 8002428:	f47f ad8f 	bne.w	8001f4a <HAL_RCC_OscConfig+0x6>
 800242c:	6b62      	ldr	r2, [r4, #52]	; 0x34
 800242e:	f3c3 2146 	ubfx	r1, r3, #9, #7
 8002432:	3a01      	subs	r2, #1
 8002434:	4291      	cmp	r1, r2
 8002436:	f47f ad88 	bne.w	8001f4a <HAL_RCC_OscConfig+0x6>
 800243a:	6ba2      	ldr	r2, [r4, #56]	; 0x38
 800243c:	f3c3 4106 	ubfx	r1, r3, #16, #7
 8002440:	3a01      	subs	r2, #1
 8002442:	4291      	cmp	r1, r2
 8002444:	f47f ad81 	bne.w	8001f4a <HAL_RCC_OscConfig+0x6>
 8002448:	6be2      	ldr	r2, [r4, #60]	; 0x3c
 800244a:	f3c3 6306 	ubfx	r3, r3, #24, #7
 800244e:	3a01      	subs	r2, #1
 8002450:	4293      	cmp	r3, r2
 8002452:	f47f ad7a 	bne.w	8001f4a <HAL_RCC_OscConfig+0x6>
 8002456:	6b6b      	ldr	r3, [r5, #52]	; 0x34
 8002458:	6ca2      	ldr	r2, [r4, #72]	; 0x48
 800245a:	f3c3 03cc 	ubfx	r3, r3, #3, #13
 800245e:	429a      	cmp	r2, r3
 8002460:	f43f add5 	beq.w	800200e <HAL_RCC_OscConfig+0xca>
 8002464:	4d0c      	ldr	r5, [pc, #48]	; (8002498 <HAL_RCC_OscConfig+0x554>)
 8002466:	6aeb      	ldr	r3, [r5, #44]	; 0x2c
 8002468:	f023 0301 	bic.w	r3, r3, #1
 800246c:	62eb      	str	r3, [r5, #44]	; 0x2c
 800246e:	f7fe fd85 	bl	8000f7c <HAL_GetTick>
 8002472:	4606      	mov	r6, r0
 8002474:	f7fe fd82 	bl	8000f7c <HAL_GetTick>
 8002478:	42b0      	cmp	r0, r6
 800247a:	d0fb      	beq.n	8002474 <HAL_RCC_OscConfig+0x530>
 800247c:	6b6b      	ldr	r3, [r5, #52]	; 0x34
 800247e:	6ca2      	ldr	r2, [r4, #72]	; 0x48
 8002480:	f423 437f 	bic.w	r3, r3, #65280	; 0xff00
 8002484:	f023 03f8 	bic.w	r3, r3, #248	; 0xf8
 8002488:	ea43 03c2 	orr.w	r3, r3, r2, lsl #3
 800248c:	636b      	str	r3, [r5, #52]	; 0x34
 800248e:	6aeb      	ldr	r3, [r5, #44]	; 0x2c
 8002490:	f043 0301 	orr.w	r3, r3, #1
 8002494:	62eb      	str	r3, [r5, #44]	; 0x2c
 8002496:	e5ba      	b.n	800200e <HAL_RCC_OscConfig+0xca>
 8002498:	58024400 	.word	0x58024400

0800249c <HAL_RCC_GetSysClockFreq>:
 800249c:	4b49      	ldr	r3, [pc, #292]	; (80025c4 <HAL_RCC_GetSysClockFreq+0x128>)
 800249e:	691a      	ldr	r2, [r3, #16]
 80024a0:	f002 0238 	and.w	r2, r2, #56	; 0x38
 80024a4:	2a10      	cmp	r2, #16
 80024a6:	b530      	push	{r4, r5, lr}
 80024a8:	f000 8088 	beq.w	80025bc <HAL_RCC_GetSysClockFreq+0x120>
 80024ac:	2a18      	cmp	r2, #24
 80024ae:	d00c      	beq.n	80024ca <HAL_RCC_GetSysClockFreq+0x2e>
 80024b0:	2a00      	cmp	r2, #0
 80024b2:	f040 8085 	bne.w	80025c0 <HAL_RCC_GetSysClockFreq+0x124>
 80024b6:	681a      	ldr	r2, [r3, #0]
 80024b8:	4843      	ldr	r0, [pc, #268]	; (80025c8 <HAL_RCC_GetSysClockFreq+0x12c>)
 80024ba:	f012 0f20 	tst.w	r2, #32
 80024be:	d003      	beq.n	80024c8 <HAL_RCC_GetSysClockFreq+0x2c>
 80024c0:	681b      	ldr	r3, [r3, #0]
 80024c2:	f3c3 03c1 	ubfx	r3, r3, #3, #2
 80024c6:	40d8      	lsrs	r0, r3
 80024c8:	bd30      	pop	{r4, r5, pc}
 80024ca:	6a99      	ldr	r1, [r3, #40]	; 0x28
 80024cc:	6a9d      	ldr	r5, [r3, #40]	; 0x28
 80024ce:	6adc      	ldr	r4, [r3, #44]	; 0x2c
 80024d0:	f415 7f7c 	tst.w	r5, #1008	; 0x3f0
 80024d4:	f3c5 1005 	ubfx	r0, r5, #4, #6
 80024d8:	6b5a      	ldr	r2, [r3, #52]	; 0x34
 80024da:	d0f5      	beq.n	80024c8 <HAL_RCC_GetSysClockFreq+0x2c>
 80024dc:	f3c2 02cc 	ubfx	r2, r2, #3, #13
 80024e0:	f004 0401 	and.w	r4, r4, #1
 80024e4:	f001 0103 	and.w	r1, r1, #3
 80024e8:	ee07 0a90 	vmov	s15, r0
 80024ec:	4362      	muls	r2, r4
 80024ee:	eeb7 6a00 	vmov.f32	s12, #112	; 0x3f800000  1.0
 80024f2:	2901      	cmp	r1, #1
 80024f4:	eeb8 7ae7 	vcvt.f32.s32	s14, s15
 80024f8:	ee06 2a90 	vmov	s13, r2
 80024fc:	eefa 6ae9 	vcvt.f32.s32	s13, s13, #13
 8002500:	d04e      	beq.n	80025a0 <HAL_RCC_GetSysClockFreq+0x104>
 8002502:	2902      	cmp	r1, #2
 8002504:	d03e      	beq.n	8002584 <HAL_RCC_GetSysClockFreq+0xe8>
 8002506:	2900      	cmp	r1, #0
 8002508:	d14a      	bne.n	80025a0 <HAL_RCC_GetSysClockFreq+0x104>
 800250a:	681a      	ldr	r2, [r3, #0]
 800250c:	0692      	lsls	r2, r2, #26
 800250e:	d527      	bpl.n	8002560 <HAL_RCC_GetSysClockFreq+0xc4>
 8002510:	6819      	ldr	r1, [r3, #0]
 8002512:	4a2d      	ldr	r2, [pc, #180]	; (80025c8 <HAL_RCC_GetSysClockFreq+0x12c>)
 8002514:	f3c1 01c1 	ubfx	r1, r1, #3, #2
 8002518:	6b1b      	ldr	r3, [r3, #48]	; 0x30
 800251a:	40ca      	lsrs	r2, r1
 800251c:	f3c3 0308 	ubfx	r3, r3, #0, #9
 8002520:	ee07 2a90 	vmov	s15, r2
 8002524:	eef8 5ae7 	vcvt.f32.s32	s11, s15
 8002528:	eec5 7a87 	vdiv.f32	s15, s11, s14
 800252c:	ee07 3a10 	vmov	s14, r3
 8002530:	eeb8 7ac7 	vcvt.f32.s32	s14, s14
 8002534:	ee37 7a26 	vadd.f32	s14, s14, s13
 8002538:	ee37 7a06 	vadd.f32	s14, s14, s12
 800253c:	ee67 7a87 	vmul.f32	s15, s15, s14
 8002540:	4b20      	ldr	r3, [pc, #128]	; (80025c4 <HAL_RCC_GetSysClockFreq+0x128>)
 8002542:	6b1b      	ldr	r3, [r3, #48]	; 0x30
 8002544:	f3c3 2346 	ubfx	r3, r3, #9, #7
 8002548:	3301      	adds	r3, #1
 800254a:	ee07 3a10 	vmov	s14, r3
 800254e:	eef8 6ac7 	vcvt.f32.s32	s13, s14
 8002552:	ee87 7aa6 	vdiv.f32	s14, s15, s13
 8002556:	eefc 7ac7 	vcvt.u32.f32	s15, s14
 800255a:	ee17 0a90 	vmov	r0, s15
 800255e:	e7b3      	b.n	80024c8 <HAL_RCC_GetSysClockFreq+0x2c>
 8002560:	6b1b      	ldr	r3, [r3, #48]	; 0x30
 8002562:	f3c3 0308 	ubfx	r3, r3, #0, #9
 8002566:	ee07 3a90 	vmov	s15, r3
 800256a:	eef8 7ae7 	vcvt.f32.s32	s15, s15
 800256e:	ee77 7aa6 	vadd.f32	s15, s15, s13
 8002572:	ee77 7a86 	vadd.f32	s15, s15, s12
 8002576:	ed9f 6a15 	vldr	s12, [pc, #84]	; 80025cc <HAL_RCC_GetSysClockFreq+0x130>
 800257a:	eec6 6a07 	vdiv.f32	s13, s12, s14
 800257e:	ee67 7aa6 	vmul.f32	s15, s15, s13
 8002582:	e7dd      	b.n	8002540 <HAL_RCC_GetSysClockFreq+0xa4>
 8002584:	6b1b      	ldr	r3, [r3, #48]	; 0x30
 8002586:	f3c3 0308 	ubfx	r3, r3, #0, #9
 800258a:	ee07 3a90 	vmov	s15, r3
 800258e:	eef8 7ae7 	vcvt.f32.s32	s15, s15
 8002592:	ee77 7aa6 	vadd.f32	s15, s15, s13
 8002596:	ee77 7a86 	vadd.f32	s15, s15, s12
 800259a:	ed9f 6a0d 	vldr	s12, [pc, #52]	; 80025d0 <HAL_RCC_GetSysClockFreq+0x134>
 800259e:	e7ec      	b.n	800257a <HAL_RCC_GetSysClockFreq+0xde>
 80025a0:	6b1b      	ldr	r3, [r3, #48]	; 0x30
 80025a2:	f3c3 0308 	ubfx	r3, r3, #0, #9
 80025a6:	ee07 3a90 	vmov	s15, r3
 80025aa:	eef8 7ae7 	vcvt.f32.s32	s15, s15
 80025ae:	ee77 7aa6 	vadd.f32	s15, s15, s13
 80025b2:	ee77 7a86 	vadd.f32	s15, s15, s12
 80025b6:	ed9f 6a07 	vldr	s12, [pc, #28]	; 80025d4 <HAL_RCC_GetSysClockFreq+0x138>
 80025ba:	e7de      	b.n	800257a <HAL_RCC_GetSysClockFreq+0xde>
 80025bc:	4806      	ldr	r0, [pc, #24]	; (80025d8 <HAL_RCC_GetSysClockFreq+0x13c>)
 80025be:	e783      	b.n	80024c8 <HAL_RCC_GetSysClockFreq+0x2c>
 80025c0:	4806      	ldr	r0, [pc, #24]	; (80025dc <HAL_RCC_GetSysClockFreq+0x140>)
 80025c2:	e781      	b.n	80024c8 <HAL_RCC_GetSysClockFreq+0x2c>
 80025c4:	58024400 	.word	0x58024400
 80025c8:	03d09000 	.word	0x03d09000
 80025cc:	4c742400 	.word	0x4c742400
 80025d0:	4af42400 	.word	0x4af42400
 80025d4:	4a742400 	.word	0x4a742400
 80025d8:	007a1200 	.word	0x007a1200
 80025dc:	003d0900 	.word	0x003d0900

080025e0 <HAL_RCC_ClockConfig>:
 80025e0:	e92d 41f0 	stmdb	sp!, {r4, r5, r6, r7, r8, lr}
 80025e4:	460d      	mov	r5, r1
 80025e6:	4604      	mov	r4, r0
 80025e8:	b910      	cbnz	r0, 80025f0 <HAL_RCC_ClockConfig+0x10>
 80025ea:	2001      	movs	r0, #1
 80025ec:	e8bd 81f0 	ldmia.w	sp!, {r4, r5, r6, r7, r8, pc}
 80025f0:	4a88      	ldr	r2, [pc, #544]	; (8002814 <HAL_RCC_ClockConfig+0x234>)
 80025f2:	6813      	ldr	r3, [r2, #0]
 80025f4:	f003 030f 	and.w	r3, r3, #15
 80025f8:	428b      	cmp	r3, r1
 80025fa:	f0c0 8093 	bcc.w	8002724 <HAL_RCC_ClockConfig+0x144>
 80025fe:	6823      	ldr	r3, [r4, #0]
 8002600:	075f      	lsls	r7, r3, #29
 8002602:	f100 809b 	bmi.w	800273c <HAL_RCC_ClockConfig+0x15c>
 8002606:	071e      	lsls	r6, r3, #28
 8002608:	d50b      	bpl.n	8002622 <HAL_RCC_ClockConfig+0x42>
 800260a:	4983      	ldr	r1, [pc, #524]	; (8002818 <HAL_RCC_ClockConfig+0x238>)
 800260c:	6960      	ldr	r0, [r4, #20]
 800260e:	69ca      	ldr	r2, [r1, #28]
 8002610:	f002 0270 	and.w	r2, r2, #112	; 0x70
 8002614:	4290      	cmp	r0, r2
 8002616:	d904      	bls.n	8002622 <HAL_RCC_ClockConfig+0x42>
 8002618:	69ca      	ldr	r2, [r1, #28]
 800261a:	f022 0270 	bic.w	r2, r2, #112	; 0x70
 800261e:	4302      	orrs	r2, r0
 8002620:	61ca      	str	r2, [r1, #28]
 8002622:	06d8      	lsls	r0, r3, #27
 8002624:	d50b      	bpl.n	800263e <HAL_RCC_ClockConfig+0x5e>
 8002626:	497c      	ldr	r1, [pc, #496]	; (8002818 <HAL_RCC_ClockConfig+0x238>)
 8002628:	69a0      	ldr	r0, [r4, #24]
 800262a:	69ca      	ldr	r2, [r1, #28]
 800262c:	f402 62e0 	and.w	r2, r2, #1792	; 0x700
 8002630:	4290      	cmp	r0, r2
 8002632:	d904      	bls.n	800263e <HAL_RCC_ClockConfig+0x5e>
 8002634:	69ca      	ldr	r2, [r1, #28]
 8002636:	f422 62e0 	bic.w	r2, r2, #1792	; 0x700
 800263a:	4302      	orrs	r2, r0
 800263c:	61ca      	str	r2, [r1, #28]
 800263e:	0699      	lsls	r1, r3, #26
 8002640:	d50b      	bpl.n	800265a <HAL_RCC_ClockConfig+0x7a>
 8002642:	4975      	ldr	r1, [pc, #468]	; (8002818 <HAL_RCC_ClockConfig+0x238>)
 8002644:	69e0      	ldr	r0, [r4, #28]
 8002646:	6a0a      	ldr	r2, [r1, #32]
 8002648:	f002 0270 	and.w	r2, r2, #112	; 0x70
 800264c:	4290      	cmp	r0, r2
 800264e:	d904      	bls.n	800265a <HAL_RCC_ClockConfig+0x7a>
 8002650:	6a0a      	ldr	r2, [r1, #32]
 8002652:	f022 0270 	bic.w	r2, r2, #112	; 0x70
 8002656:	4302      	orrs	r2, r0
 8002658:	620a      	str	r2, [r1, #32]
 800265a:	079a      	lsls	r2, r3, #30
 800265c:	d50b      	bpl.n	8002676 <HAL_RCC_ClockConfig+0x96>
 800265e:	496e      	ldr	r1, [pc, #440]	; (8002818 <HAL_RCC_ClockConfig+0x238>)
 8002660:	68e0      	ldr	r0, [r4, #12]
 8002662:	698a      	ldr	r2, [r1, #24]
 8002664:	f002 020f 	and.w	r2, r2, #15
 8002668:	4290      	cmp	r0, r2
 800266a:	d904      	bls.n	8002676 <HAL_RCC_ClockConfig+0x96>
 800266c:	698a      	ldr	r2, [r1, #24]
 800266e:	f022 020f 	bic.w	r2, r2, #15
 8002672:	4302      	orrs	r2, r0
 8002674:	618a      	str	r2, [r1, #24]
 8002676:	07df      	lsls	r7, r3, #31
 8002678:	d46e      	bmi.n	8002758 <HAL_RCC_ClockConfig+0x178>
 800267a:	6823      	ldr	r3, [r4, #0]
 800267c:	079e      	lsls	r6, r3, #30
 800267e:	f100 80a1 	bmi.w	80027c4 <HAL_RCC_ClockConfig+0x1e4>
 8002682:	4964      	ldr	r1, [pc, #400]	; (8002814 <HAL_RCC_ClockConfig+0x234>)
 8002684:	680a      	ldr	r2, [r1, #0]
 8002686:	f002 020f 	and.w	r2, r2, #15
 800268a:	42aa      	cmp	r2, r5
 800268c:	f200 80a8 	bhi.w	80027e0 <HAL_RCC_ClockConfig+0x200>
 8002690:	0758      	lsls	r0, r3, #29
 8002692:	f100 80b1 	bmi.w	80027f8 <HAL_RCC_ClockConfig+0x218>
 8002696:	0719      	lsls	r1, r3, #28
 8002698:	d50b      	bpl.n	80026b2 <HAL_RCC_ClockConfig+0xd2>
 800269a:	495f      	ldr	r1, [pc, #380]	; (8002818 <HAL_RCC_ClockConfig+0x238>)
 800269c:	6960      	ldr	r0, [r4, #20]
 800269e:	69ca      	ldr	r2, [r1, #28]
 80026a0:	f002 0270 	and.w	r2, r2, #112	; 0x70
 80026a4:	4290      	cmp	r0, r2
 80026a6:	d204      	bcs.n	80026b2 <HAL_RCC_ClockConfig+0xd2>
 80026a8:	69ca      	ldr	r2, [r1, #28]
 80026aa:	f022 0270 	bic.w	r2, r2, #112	; 0x70
 80026ae:	4302      	orrs	r2, r0
 80026b0:	61ca      	str	r2, [r1, #28]
 80026b2:	06da      	lsls	r2, r3, #27
 80026b4:	d50b      	bpl.n	80026ce <HAL_RCC_ClockConfig+0xee>
 80026b6:	4958      	ldr	r1, [pc, #352]	; (8002818 <HAL_RCC_ClockConfig+0x238>)
 80026b8:	69a0      	ldr	r0, [r4, #24]
 80026ba:	69ca      	ldr	r2, [r1, #28]
 80026bc:	f402 62e0 	and.w	r2, r2, #1792	; 0x700
 80026c0:	4290      	cmp	r0, r2
 80026c2:	d204      	bcs.n	80026ce <HAL_RCC_ClockConfig+0xee>
 80026c4:	69ca      	ldr	r2, [r1, #28]
 80026c6:	f422 62e0 	bic.w	r2, r2, #1792	; 0x700
 80026ca:	4302      	orrs	r2, r0
 80026cc:	61ca      	str	r2, [r1, #28]
 80026ce:	069b      	lsls	r3, r3, #26
 80026d0:	d50b      	bpl.n	80026ea <HAL_RCC_ClockConfig+0x10a>
 80026d2:	4a51      	ldr	r2, [pc, #324]	; (8002818 <HAL_RCC_ClockConfig+0x238>)
 80026d4:	69e1      	ldr	r1, [r4, #28]
 80026d6:	6a13      	ldr	r3, [r2, #32]
 80026d8:	f003 0370 	and.w	r3, r3, #112	; 0x70
 80026dc:	4299      	cmp	r1, r3
 80026de:	d204      	bcs.n	80026ea <HAL_RCC_ClockConfig+0x10a>
 80026e0:	6a13      	ldr	r3, [r2, #32]
 80026e2:	f023 0370 	bic.w	r3, r3, #112	; 0x70
 80026e6:	430b      	orrs	r3, r1
 80026e8:	6213      	str	r3, [r2, #32]
 80026ea:	f7ff fed7 	bl	800249c <HAL_RCC_GetSysClockFreq>
 80026ee:	494a      	ldr	r1, [pc, #296]	; (8002818 <HAL_RCC_ClockConfig+0x238>)
 80026f0:	4a4a      	ldr	r2, [pc, #296]	; (800281c <HAL_RCC_ClockConfig+0x23c>)
 80026f2:	698b      	ldr	r3, [r1, #24]
 80026f4:	f3c3 2303 	ubfx	r3, r3, #8, #4
 80026f8:	5cd3      	ldrb	r3, [r2, r3]
 80026fa:	f003 031f 	and.w	r3, r3, #31
 80026fe:	40d8      	lsrs	r0, r3
 8002700:	698b      	ldr	r3, [r1, #24]
 8002702:	f003 030f 	and.w	r3, r3, #15
 8002706:	5cd3      	ldrb	r3, [r2, r3]
 8002708:	4a45      	ldr	r2, [pc, #276]	; (8002820 <HAL_RCC_ClockConfig+0x240>)
 800270a:	f003 031f 	and.w	r3, r3, #31
 800270e:	fa20 f303 	lsr.w	r3, r0, r3
 8002712:	6013      	str	r3, [r2, #0]
 8002714:	4b43      	ldr	r3, [pc, #268]	; (8002824 <HAL_RCC_ClockConfig+0x244>)
 8002716:	6018      	str	r0, [r3, #0]
 8002718:	4b43      	ldr	r3, [pc, #268]	; (8002828 <HAL_RCC_ClockConfig+0x248>)
 800271a:	e8bd 41f0 	ldmia.w	sp!, {r4, r5, r6, r7, r8, lr}
 800271e:	6818      	ldr	r0, [r3, #0]
 8002720:	f7fe ba20 	b.w	8000b64 <HAL_InitTick>
 8002724:	6813      	ldr	r3, [r2, #0]
 8002726:	f023 030f 	bic.w	r3, r3, #15
 800272a:	430b      	orrs	r3, r1
 800272c:	6013      	str	r3, [r2, #0]
 800272e:	6813      	ldr	r3, [r2, #0]
 8002730:	f003 030f 	and.w	r3, r3, #15
 8002734:	428b      	cmp	r3, r1
 8002736:	f47f af58 	bne.w	80025ea <HAL_RCC_ClockConfig+0xa>
 800273a:	e760      	b.n	80025fe <HAL_RCC_ClockConfig+0x1e>
 800273c:	4936      	ldr	r1, [pc, #216]	; (8002818 <HAL_RCC_ClockConfig+0x238>)
 800273e:	6920      	ldr	r0, [r4, #16]
 8002740:	698a      	ldr	r2, [r1, #24]
 8002742:	f002 0270 	and.w	r2, r2, #112	; 0x70
 8002746:	4290      	cmp	r0, r2
 8002748:	f67f af5d 	bls.w	8002606 <HAL_RCC_ClockConfig+0x26>
 800274c:	698a      	ldr	r2, [r1, #24]
 800274e:	f022 0270 	bic.w	r2, r2, #112	; 0x70
 8002752:	4302      	orrs	r2, r0
 8002754:	618a      	str	r2, [r1, #24]
 8002756:	e756      	b.n	8002606 <HAL_RCC_ClockConfig+0x26>
 8002758:	4b2f      	ldr	r3, [pc, #188]	; (8002818 <HAL_RCC_ClockConfig+0x238>)
 800275a:	68a1      	ldr	r1, [r4, #8]
 800275c:	699a      	ldr	r2, [r3, #24]
 800275e:	f422 6270 	bic.w	r2, r2, #3840	; 0xf00
 8002762:	430a      	orrs	r2, r1
 8002764:	619a      	str	r2, [r3, #24]
 8002766:	6861      	ldr	r1, [r4, #4]
 8002768:	681a      	ldr	r2, [r3, #0]
 800276a:	2902      	cmp	r1, #2
 800276c:	d11d      	bne.n	80027aa <HAL_RCC_ClockConfig+0x1ca>
 800276e:	f412 3f00 	tst.w	r2, #131072	; 0x20000
 8002772:	f43f af3a 	beq.w	80025ea <HAL_RCC_ClockConfig+0xa>
 8002776:	691a      	ldr	r2, [r3, #16]
 8002778:	f241 3888 	movw	r8, #5000	; 0x1388
 800277c:	4f26      	ldr	r7, [pc, #152]	; (8002818 <HAL_RCC_ClockConfig+0x238>)
 800277e:	f022 0207 	bic.w	r2, r2, #7
 8002782:	430a      	orrs	r2, r1
 8002784:	611a      	str	r2, [r3, #16]
 8002786:	f7fe fbf9 	bl	8000f7c <HAL_GetTick>
 800278a:	4606      	mov	r6, r0
 800278c:	693b      	ldr	r3, [r7, #16]
 800278e:	6862      	ldr	r2, [r4, #4]
 8002790:	f003 0338 	and.w	r3, r3, #56	; 0x38
 8002794:	ebb3 0fc2 	cmp.w	r3, r2, lsl #3
 8002798:	f43f af6f 	beq.w	800267a <HAL_RCC_ClockConfig+0x9a>
 800279c:	f7fe fbee 	bl	8000f7c <HAL_GetTick>
 80027a0:	1b80      	subs	r0, r0, r6
 80027a2:	4540      	cmp	r0, r8
 80027a4:	d9f2      	bls.n	800278c <HAL_RCC_ClockConfig+0x1ac>
 80027a6:	2003      	movs	r0, #3
 80027a8:	e720      	b.n	80025ec <HAL_RCC_ClockConfig+0xc>
 80027aa:	2903      	cmp	r1, #3
 80027ac:	d102      	bne.n	80027b4 <HAL_RCC_ClockConfig+0x1d4>
 80027ae:	f012 7f00 	tst.w	r2, #33554432	; 0x2000000
 80027b2:	e7de      	b.n	8002772 <HAL_RCC_ClockConfig+0x192>
 80027b4:	2901      	cmp	r1, #1
 80027b6:	d102      	bne.n	80027be <HAL_RCC_ClockConfig+0x1de>
 80027b8:	f412 7f80 	tst.w	r2, #256	; 0x100
 80027bc:	e7d9      	b.n	8002772 <HAL_RCC_ClockConfig+0x192>
 80027be:	f012 0f04 	tst.w	r2, #4
 80027c2:	e7d6      	b.n	8002772 <HAL_RCC_ClockConfig+0x192>
 80027c4:	4914      	ldr	r1, [pc, #80]	; (8002818 <HAL_RCC_ClockConfig+0x238>)
 80027c6:	68e0      	ldr	r0, [r4, #12]
 80027c8:	698a      	ldr	r2, [r1, #24]
 80027ca:	f002 020f 	and.w	r2, r2, #15
 80027ce:	4290      	cmp	r0, r2
 80027d0:	f4bf af57 	bcs.w	8002682 <HAL_RCC_ClockConfig+0xa2>
 80027d4:	698a      	ldr	r2, [r1, #24]
 80027d6:	f022 020f 	bic.w	r2, r2, #15
 80027da:	4302      	orrs	r2, r0
 80027dc:	618a      	str	r2, [r1, #24]
 80027de:	e750      	b.n	8002682 <HAL_RCC_ClockConfig+0xa2>
 80027e0:	680a      	ldr	r2, [r1, #0]
 80027e2:	f022 020f 	bic.w	r2, r2, #15
 80027e6:	432a      	orrs	r2, r5
 80027e8:	600a      	str	r2, [r1, #0]
 80027ea:	680a      	ldr	r2, [r1, #0]
 80027ec:	f002 020f 	and.w	r2, r2, #15
 80027f0:	42aa      	cmp	r2, r5
 80027f2:	f47f aefa 	bne.w	80025ea <HAL_RCC_ClockConfig+0xa>
 80027f6:	e74b      	b.n	8002690 <HAL_RCC_ClockConfig+0xb0>
 80027f8:	4907      	ldr	r1, [pc, #28]	; (8002818 <HAL_RCC_ClockConfig+0x238>)
 80027fa:	6920      	ldr	r0, [r4, #16]
 80027fc:	698a      	ldr	r2, [r1, #24]
 80027fe:	f002 0270 	and.w	r2, r2, #112	; 0x70
 8002802:	4290      	cmp	r0, r2
 8002804:	f4bf af47 	bcs.w	8002696 <HAL_RCC_ClockConfig+0xb6>
 8002808:	698a      	ldr	r2, [r1, #24]
 800280a:	f022 0270 	bic.w	r2, r2, #112	; 0x70
 800280e:	4302      	orrs	r2, r0
 8002810:	618a      	str	r2, [r1, #24]
 8002812:	e740      	b.n	8002696 <HAL_RCC_ClockConfig+0xb6>
 8002814:	52002000 	.word	0x52002000
 8002818:	58024400 	.word	0x58024400
 800281c:	08007718 	.word	0x08007718
 8002820:	24000004 	.word	0x24000004
 8002824:	24000000 	.word	0x24000000
 8002828:	2400000c 	.word	0x2400000c

0800282c <HAL_RCC_GetHCLKFreq>:
 800282c:	b510      	push	{r4, lr}
 800282e:	4c0c      	ldr	r4, [pc, #48]	; (8002860 <HAL_RCC_GetHCLKFreq+0x34>)
 8002830:	f7ff fe34 	bl	800249c <HAL_RCC_GetSysClockFreq>
 8002834:	490b      	ldr	r1, [pc, #44]	; (8002864 <HAL_RCC_GetHCLKFreq+0x38>)
 8002836:	69a3      	ldr	r3, [r4, #24]
 8002838:	f3c3 2303 	ubfx	r3, r3, #8, #4
 800283c:	5ccb      	ldrb	r3, [r1, r3]
 800283e:	f003 031f 	and.w	r3, r3, #31
 8002842:	fa20 f203 	lsr.w	r2, r0, r3
 8002846:	69a3      	ldr	r3, [r4, #24]
 8002848:	f003 030f 	and.w	r3, r3, #15
 800284c:	5ccb      	ldrb	r3, [r1, r3]
 800284e:	f003 031f 	and.w	r3, r3, #31
 8002852:	fa22 f003 	lsr.w	r0, r2, r3
 8002856:	4b04      	ldr	r3, [pc, #16]	; (8002868 <HAL_RCC_GetHCLKFreq+0x3c>)
 8002858:	6018      	str	r0, [r3, #0]
 800285a:	4b04      	ldr	r3, [pc, #16]	; (800286c <HAL_RCC_GetHCLKFreq+0x40>)
 800285c:	601a      	str	r2, [r3, #0]
 800285e:	bd10      	pop	{r4, pc}
 8002860:	58024400 	.word	0x58024400
 8002864:	08007718 	.word	0x08007718
 8002868:	24000004 	.word	0x24000004
 800286c:	24000000 	.word	0x24000000

08002870 <HAL_RCC_GetPCLK1Freq>:
 8002870:	b508      	push	{r3, lr}
 8002872:	f7ff ffdb 	bl	800282c <HAL_RCC_GetHCLKFreq>
 8002876:	4b05      	ldr	r3, [pc, #20]	; (800288c <HAL_RCC_GetPCLK1Freq+0x1c>)
 8002878:	4a05      	ldr	r2, [pc, #20]	; (8002890 <HAL_RCC_GetPCLK1Freq+0x20>)
 800287a:	69db      	ldr	r3, [r3, #28]
 800287c:	f3c3 1302 	ubfx	r3, r3, #4, #3
 8002880:	5cd3      	ldrb	r3, [r2, r3]
 8002882:	f003 031f 	and.w	r3, r3, #31
 8002886:	40d8      	lsrs	r0, r3
 8002888:	bd08      	pop	{r3, pc}
 800288a:	bf00      	nop
 800288c:	58024400 	.word	0x58024400
 8002890:	08007718 	.word	0x08007718

08002894 <HAL_RCC_GetPCLK2Freq>:
 8002894:	b508      	push	{r3, lr}
 8002896:	f7ff ffc9 	bl	800282c <HAL_RCC_GetHCLKFreq>
 800289a:	4b05      	ldr	r3, [pc, #20]	; (80028b0 <HAL_RCC_GetPCLK2Freq+0x1c>)
 800289c:	4a05      	ldr	r2, [pc, #20]	; (80028b4 <HAL_RCC_GetPCLK2Freq+0x20>)
 800289e:	69db      	ldr	r3, [r3, #28]
 80028a0:	f3c3 2302 	ubfx	r3, r3, #8, #3
 80028a4:	5cd3      	ldrb	r3, [r2, r3]
 80028a6:	f003 031f 	and.w	r3, r3, #31
 80028aa:	40d8      	lsrs	r0, r3
 80028ac:	bd08      	pop	{r3, pc}
 80028ae:	bf00      	nop
 80028b0:	58024400 	.word	0x58024400
 80028b4:	08007718 	.word	0x08007718

080028b8 <HAL_RCC_GetClockConfig>:
 80028b8:	233f      	movs	r3, #63	; 0x3f
 80028ba:	6003      	str	r3, [r0, #0]
 80028bc:	4b11      	ldr	r3, [pc, #68]	; (8002904 <HAL_RCC_GetClockConfig+0x4c>)
 80028be:	691a      	ldr	r2, [r3, #16]
 80028c0:	f002 0207 	and.w	r2, r2, #7
 80028c4:	6042      	str	r2, [r0, #4]
 80028c6:	699a      	ldr	r2, [r3, #24]
 80028c8:	f402 6270 	and.w	r2, r2, #3840	; 0xf00
 80028cc:	6082      	str	r2, [r0, #8]
 80028ce:	699a      	ldr	r2, [r3, #24]
 80028d0:	f002 020f 	and.w	r2, r2, #15
 80028d4:	60c2      	str	r2, [r0, #12]
 80028d6:	699a      	ldr	r2, [r3, #24]
 80028d8:	f002 0270 	and.w	r2, r2, #112	; 0x70
 80028dc:	6102      	str	r2, [r0, #16]
 80028de:	69da      	ldr	r2, [r3, #28]
 80028e0:	f002 0270 	and.w	r2, r2, #112	; 0x70
 80028e4:	6142      	str	r2, [r0, #20]
 80028e6:	69da      	ldr	r2, [r3, #28]
 80028e8:	f402 62e0 	and.w	r2, r2, #1792	; 0x700
 80028ec:	6182      	str	r2, [r0, #24]
 80028ee:	6a1b      	ldr	r3, [r3, #32]
 80028f0:	f003 0370 	and.w	r3, r3, #112	; 0x70
 80028f4:	61c3      	str	r3, [r0, #28]
 80028f6:	4b04      	ldr	r3, [pc, #16]	; (8002908 <HAL_RCC_GetClockConfig+0x50>)
 80028f8:	681b      	ldr	r3, [r3, #0]
 80028fa:	f003 030f 	and.w	r3, r3, #15
 80028fe:	600b      	str	r3, [r1, #0]
 8002900:	4770      	bx	lr
 8002902:	bf00      	nop
 8002904:	58024400 	.word	0x58024400
 8002908:	52002000 	.word	0x52002000

0800290c <RCCEx_PLL2_Config>:
 800290c:	b5f8      	push	{r3, r4, r5, r6, r7, lr}
 800290e:	4c3a      	ldr	r4, [pc, #232]	; (80029f8 <RCCEx_PLL2_Config+0xec>)
 8002910:	4606      	mov	r6, r0
 8002912:	460d      	mov	r5, r1
 8002914:	6aa3      	ldr	r3, [r4, #40]	; 0x28
 8002916:	f003 0303 	and.w	r3, r3, #3
 800291a:	2b03      	cmp	r3, #3
 800291c:	d069      	beq.n	80029f2 <RCCEx_PLL2_Config+0xe6>
 800291e:	6823      	ldr	r3, [r4, #0]
 8002920:	f023 6380 	bic.w	r3, r3, #67108864	; 0x4000000
 8002924:	6023      	str	r3, [r4, #0]
 8002926:	f7fe fb29 	bl	8000f7c <HAL_GetTick>
 800292a:	4607      	mov	r7, r0
 800292c:	6823      	ldr	r3, [r4, #0]
 800292e:	011a      	lsls	r2, r3, #4
 8002930:	d44b      	bmi.n	80029ca <RCCEx_PLL2_Config+0xbe>
 8002932:	6aa3      	ldr	r3, [r4, #40]	; 0x28
 8002934:	6832      	ldr	r2, [r6, #0]
 8002936:	f423 337c 	bic.w	r3, r3, #258048	; 0x3f000
 800293a:	ea43 3302 	orr.w	r3, r3, r2, lsl #12
 800293e:	62a3      	str	r3, [r4, #40]	; 0x28
 8002940:	68b3      	ldr	r3, [r6, #8]
 8002942:	68f2      	ldr	r2, [r6, #12]
 8002944:	3b01      	subs	r3, #1
 8002946:	3a01      	subs	r2, #1
 8002948:	025b      	lsls	r3, r3, #9
 800294a:	0412      	lsls	r2, r2, #16
 800294c:	b29b      	uxth	r3, r3
 800294e:	f402 02fe 	and.w	r2, r2, #8323072	; 0x7f0000
 8002952:	4313      	orrs	r3, r2
 8002954:	6872      	ldr	r2, [r6, #4]
 8002956:	3a01      	subs	r2, #1
 8002958:	f3c2 0208 	ubfx	r2, r2, #0, #9
 800295c:	4313      	orrs	r3, r2
 800295e:	6932      	ldr	r2, [r6, #16]
 8002960:	3a01      	subs	r2, #1
 8002962:	0612      	lsls	r2, r2, #24
 8002964:	f002 42fe 	and.w	r2, r2, #2130706432	; 0x7f000000
 8002968:	4313      	orrs	r3, r2
 800296a:	63a3      	str	r3, [r4, #56]	; 0x38
 800296c:	6ae3      	ldr	r3, [r4, #44]	; 0x2c
 800296e:	6972      	ldr	r2, [r6, #20]
 8002970:	f023 03c0 	bic.w	r3, r3, #192	; 0xc0
 8002974:	4313      	orrs	r3, r2
 8002976:	62e3      	str	r3, [r4, #44]	; 0x2c
 8002978:	6ae3      	ldr	r3, [r4, #44]	; 0x2c
 800297a:	69b2      	ldr	r2, [r6, #24]
 800297c:	f023 0320 	bic.w	r3, r3, #32
 8002980:	4313      	orrs	r3, r2
 8002982:	62e3      	str	r3, [r4, #44]	; 0x2c
 8002984:	6ae3      	ldr	r3, [r4, #44]	; 0x2c
 8002986:	f023 0310 	bic.w	r3, r3, #16
 800298a:	62e3      	str	r3, [r4, #44]	; 0x2c
 800298c:	6be3      	ldr	r3, [r4, #60]	; 0x3c
 800298e:	69f2      	ldr	r2, [r6, #28]
 8002990:	f423 437f 	bic.w	r3, r3, #65280	; 0xff00
 8002994:	f023 03f8 	bic.w	r3, r3, #248	; 0xf8
 8002998:	ea43 03c2 	orr.w	r3, r3, r2, lsl #3
 800299c:	63e3      	str	r3, [r4, #60]	; 0x3c
 800299e:	6ae3      	ldr	r3, [r4, #44]	; 0x2c
 80029a0:	f043 0310 	orr.w	r3, r3, #16
 80029a4:	62e3      	str	r3, [r4, #44]	; 0x2c
 80029a6:	6ae3      	ldr	r3, [r4, #44]	; 0x2c
 80029a8:	b9b5      	cbnz	r5, 80029d8 <RCCEx_PLL2_Config+0xcc>
 80029aa:	f443 2300 	orr.w	r3, r3, #524288	; 0x80000
 80029ae:	62e3      	str	r3, [r4, #44]	; 0x2c
 80029b0:	4c11      	ldr	r4, [pc, #68]	; (80029f8 <RCCEx_PLL2_Config+0xec>)
 80029b2:	6823      	ldr	r3, [r4, #0]
 80029b4:	f043 6380 	orr.w	r3, r3, #67108864	; 0x4000000
 80029b8:	6023      	str	r3, [r4, #0]
 80029ba:	f7fe fadf 	bl	8000f7c <HAL_GetTick>
 80029be:	4605      	mov	r5, r0
 80029c0:	6823      	ldr	r3, [r4, #0]
 80029c2:	011b      	lsls	r3, r3, #4
 80029c4:	d50f      	bpl.n	80029e6 <RCCEx_PLL2_Config+0xda>
 80029c6:	2000      	movs	r0, #0
 80029c8:	e005      	b.n	80029d6 <RCCEx_PLL2_Config+0xca>
 80029ca:	f7fe fad7 	bl	8000f7c <HAL_GetTick>
 80029ce:	1bc0      	subs	r0, r0, r7
 80029d0:	2802      	cmp	r0, #2
 80029d2:	d9ab      	bls.n	800292c <RCCEx_PLL2_Config+0x20>
 80029d4:	2003      	movs	r0, #3
 80029d6:	bdf8      	pop	{r3, r4, r5, r6, r7, pc}
 80029d8:	2d01      	cmp	r5, #1
 80029da:	bf0c      	ite	eq
 80029dc:	f443 1380 	orreq.w	r3, r3, #1048576	; 0x100000
 80029e0:	f443 1300 	orrne.w	r3, r3, #2097152	; 0x200000
 80029e4:	e7e3      	b.n	80029ae <RCCEx_PLL2_Config+0xa2>
 80029e6:	f7fe fac9 	bl	8000f7c <HAL_GetTick>
 80029ea:	1b40      	subs	r0, r0, r5
 80029ec:	2802      	cmp	r0, #2
 80029ee:	d9e7      	bls.n	80029c0 <RCCEx_PLL2_Config+0xb4>
 80029f0:	e7f0      	b.n	80029d4 <RCCEx_PLL2_Config+0xc8>
 80029f2:	2001      	movs	r0, #1
 80029f4:	e7ef      	b.n	80029d6 <RCCEx_PLL2_Config+0xca>
 80029f6:	bf00      	nop
 80029f8:	58024400 	.word	0x58024400

080029fc <RCCEx_PLL3_Config>:
 80029fc:	b5f8      	push	{r3, r4, r5, r6, r7, lr}
 80029fe:	4c3a      	ldr	r4, [pc, #232]	; (8002ae8 <RCCEx_PLL3_Config+0xec>)
 8002a00:	4606      	mov	r6, r0
 8002a02:	460d      	mov	r5, r1
 8002a04:	6aa3      	ldr	r3, [r4, #40]	; 0x28
 8002a06:	f003 0303 	and.w	r3, r3, #3
 8002a0a:	2b03      	cmp	r3, #3
 8002a0c:	d069      	beq.n	8002ae2 <RCCEx_PLL3_Config+0xe6>
 8002a0e:	6823      	ldr	r3, [r4, #0]
 8002a10:	f023 5380 	bic.w	r3, r3, #268435456	; 0x10000000
 8002a14:	6023      	str	r3, [r4, #0]
 8002a16:	f7fe fab1 	bl	8000f7c <HAL_GetTick>
 8002a1a:	4607      	mov	r7, r0
 8002a1c:	6823      	ldr	r3, [r4, #0]
 8002a1e:	009a      	lsls	r2, r3, #2
 8002a20:	d44b      	bmi.n	8002aba <RCCEx_PLL3_Config+0xbe>
 8002a22:	6aa3      	ldr	r3, [r4, #40]	; 0x28
 8002a24:	6832      	ldr	r2, [r6, #0]
 8002a26:	f023 737c 	bic.w	r3, r3, #66060288	; 0x3f00000
 8002a2a:	ea43 5302 	orr.w	r3, r3, r2, lsl #20
 8002a2e:	62a3      	str	r3, [r4, #40]	; 0x28
 8002a30:	68b3      	ldr	r3, [r6, #8]
 8002a32:	68f2      	ldr	r2, [r6, #12]
 8002a34:	3b01      	subs	r3, #1
 8002a36:	3a01      	subs	r2, #1
 8002a38:	025b      	lsls	r3, r3, #9
 8002a3a:	0412      	lsls	r2, r2, #16
 8002a3c:	b29b      	uxth	r3, r3
 8002a3e:	f402 02fe 	and.w	r2, r2, #8323072	; 0x7f0000
 8002a42:	4313      	orrs	r3, r2
 8002a44:	6872      	ldr	r2, [r6, #4]
 8002a46:	3a01      	subs	r2, #1
 8002a48:	f3c2 0208 	ubfx	r2, r2, #0, #9
 8002a4c:	4313      	orrs	r3, r2
 8002a4e:	6932      	ldr	r2, [r6, #16]
 8002a50:	3a01      	subs	r2, #1
 8002a52:	0612      	lsls	r2, r2, #24
 8002a54:	f002 42fe 	and.w	r2, r2, #2130706432	; 0x7f000000
 8002a58:	4313      	orrs	r3, r2
 8002a5a:	6423      	str	r3, [r4, #64]	; 0x40
 8002a5c:	6ae3      	ldr	r3, [r4, #44]	; 0x2c
 8002a5e:	6972      	ldr	r2, [r6, #20]
 8002a60:	f423 6340 	bic.w	r3, r3, #3072	; 0xc00
 8002a64:	4313      	orrs	r3, r2
 8002a66:	62e3      	str	r3, [r4, #44]	; 0x2c
 8002a68:	6ae3      	ldr	r3, [r4, #44]	; 0x2c
 8002a6a:	69b2      	ldr	r2, [r6, #24]
 8002a6c:	f423 7300 	bic.w	r3, r3, #512	; 0x200
 8002a70:	4313      	orrs	r3, r2
 8002a72:	62e3      	str	r3, [r4, #44]	; 0x2c
 8002a74:	6ae3      	ldr	r3, [r4, #44]	; 0x2c
 8002a76:	f423 7380 	bic.w	r3, r3, #256	; 0x100
 8002a7a:	62e3      	str	r3, [r4, #44]	; 0x2c
 8002a7c:	6c63      	ldr	r3, [r4, #68]	; 0x44
 8002a7e:	69f2      	ldr	r2, [r6, #28]
 8002a80:	f423 437f 	bic.w	r3, r3, #65280	; 0xff00
 8002a84:	f023 03f8 	bic.w	r3, r3, #248	; 0xf8
 8002a88:	ea43 03c2 	orr.w	r3, r3, r2, lsl #3
 8002a8c:	6463      	str	r3, [r4, #68]	; 0x44
 8002a8e:	6ae3      	ldr	r3, [r4, #44]	; 0x2c
 8002a90:	f443 7380 	orr.w	r3, r3, #256	; 0x100
 8002a94:	62e3      	str	r3, [r4, #44]	; 0x2c
 8002a96:	6ae3      	ldr	r3, [r4, #44]	; 0x2c
 8002a98:	b9b5      	cbnz	r5, 8002ac8 <RCCEx_PLL3_Config+0xcc>
 8002a9a:	f443 0380 	orr.w	r3, r3, #4194304	; 0x400000
 8002a9e:	62e3      	str	r3, [r4, #44]	; 0x2c
 8002aa0:	4c11      	ldr	r4, [pc, #68]	; (8002ae8 <RCCEx_PLL3_Config+0xec>)
 8002aa2:	6823      	ldr	r3, [r4, #0]
 8002aa4:	f043 5380 	orr.w	r3, r3, #268435456	; 0x10000000
 8002aa8:	6023      	str	r3, [r4, #0]
 8002aaa:	f7fe fa67 	bl	8000f7c <HAL_GetTick>
 8002aae:	4605      	mov	r5, r0
 8002ab0:	6823      	ldr	r3, [r4, #0]
 8002ab2:	009b      	lsls	r3, r3, #2
 8002ab4:	d50f      	bpl.n	8002ad6 <RCCEx_PLL3_Config+0xda>
 8002ab6:	2000      	movs	r0, #0
 8002ab8:	e005      	b.n	8002ac6 <RCCEx_PLL3_Config+0xca>
 8002aba:	f7fe fa5f 	bl	8000f7c <HAL_GetTick>
 8002abe:	1bc0      	subs	r0, r0, r7
 8002ac0:	2802      	cmp	r0, #2
 8002ac2:	d9ab      	bls.n	8002a1c <RCCEx_PLL3_Config+0x20>
 8002ac4:	2003      	movs	r0, #3
 8002ac6:	bdf8      	pop	{r3, r4, r5, r6, r7, pc}
 8002ac8:	2d01      	cmp	r5, #1
 8002aca:	bf0c      	ite	eq
 8002acc:	f443 0300 	orreq.w	r3, r3, #8388608	; 0x800000
 8002ad0:	f043 7380 	orrne.w	r3, r3, #16777216	; 0x1000000
 8002ad4:	e7e3      	b.n	8002a9e <RCCEx_PLL3_Config+0xa2>
 8002ad6:	f7fe fa51 	bl	8000f7c <HAL_GetTick>
 8002ada:	1b40      	subs	r0, r0, r5
 8002adc:	2802      	cmp	r0, #2
 8002ade:	d9e7      	bls.n	8002ab0 <RCCEx_PLL3_Config+0xb4>
 8002ae0:	e7f0      	b.n	8002ac4 <RCCEx_PLL3_Config+0xc8>
 8002ae2:	2001      	movs	r0, #1
 8002ae4:	e7ef      	b.n	8002ac6 <RCCEx_PLL3_Config+0xca>
 8002ae6:	bf00      	nop
 8002ae8:	58024400 	.word	0x58024400

08002aec <HAL_RCCEx_PeriphCLKConfig>:
 8002aec:	e92d 43f8 	stmdb	sp!, {r3, r4, r5, r6, r7, r8, r9, lr}
 8002af0:	6803      	ldr	r3, [r0, #0]
 8002af2:	4605      	mov	r5, r0
 8002af4:	0118      	lsls	r0, r3, #4
 8002af6:	f003 6600 	and.w	r6, r3, #134217728	; 0x8000000
 8002afa:	d509      	bpl.n	8002b10 <HAL_RCCEx_PeriphCLKConfig+0x24>
 8002afc:	6eab      	ldr	r3, [r5, #104]	; 0x68
 8002afe:	f5b3 1f00 	cmp.w	r3, #2097152	; 0x200000
 8002b02:	d02f      	beq.n	8002b64 <HAL_RCCEx_PeriphCLKConfig+0x78>
 8002b04:	d813      	bhi.n	8002b2e <HAL_RCCEx_PeriphCLKConfig+0x42>
 8002b06:	b1f3      	cbz	r3, 8002b46 <HAL_RCCEx_PeriphCLKConfig+0x5a>
 8002b08:	f5b3 1f80 	cmp.w	r3, #1048576	; 0x100000
 8002b0c:	d021      	beq.n	8002b52 <HAL_RCCEx_PeriphCLKConfig+0x66>
 8002b0e:	2601      	movs	r6, #1
 8002b10:	682b      	ldr	r3, [r5, #0]
 8002b12:	05d9      	lsls	r1, r3, #23
 8002b14:	f140 80ed 	bpl.w	8002cf2 <HAL_RCCEx_PeriphCLKConfig+0x206>
 8002b18:	6dab      	ldr	r3, [r5, #88]	; 0x58
 8002b1a:	2b04      	cmp	r3, #4
 8002b1c:	f200 80e8 	bhi.w	8002cf0 <HAL_RCCEx_PeriphCLKConfig+0x204>
 8002b20:	e8df f013 	tbh	[pc, r3, lsl #1]
 8002b24:	002d0026 	.word	0x002d0026
 8002b28:	002b00e0 	.word	0x002b00e0
 8002b2c:	002b      	.short	0x002b
 8002b2e:	f5b3 1f40 	cmp.w	r3, #3145728	; 0x300000
 8002b32:	d1ec      	bne.n	8002b0e <HAL_RCCEx_PeriphCLKConfig+0x22>
 8002b34:	4aa9      	ldr	r2, [pc, #676]	; (8002ddc <HAL_RCCEx_PeriphCLKConfig+0x2f0>)
 8002b36:	2600      	movs	r6, #0
 8002b38:	6ea9      	ldr	r1, [r5, #104]	; 0x68
 8002b3a:	6d13      	ldr	r3, [r2, #80]	; 0x50
 8002b3c:	f423 1340 	bic.w	r3, r3, #3145728	; 0x300000
 8002b40:	430b      	orrs	r3, r1
 8002b42:	6513      	str	r3, [r2, #80]	; 0x50
 8002b44:	e7e4      	b.n	8002b10 <HAL_RCCEx_PeriphCLKConfig+0x24>
 8002b46:	4aa5      	ldr	r2, [pc, #660]	; (8002ddc <HAL_RCCEx_PeriphCLKConfig+0x2f0>)
 8002b48:	6ad3      	ldr	r3, [r2, #44]	; 0x2c
 8002b4a:	f443 3300 	orr.w	r3, r3, #131072	; 0x20000
 8002b4e:	62d3      	str	r3, [r2, #44]	; 0x2c
 8002b50:	e7f0      	b.n	8002b34 <HAL_RCCEx_PeriphCLKConfig+0x48>
 8002b52:	2102      	movs	r1, #2
 8002b54:	f105 0008 	add.w	r0, r5, #8
 8002b58:	f7ff fed8 	bl	800290c <RCCEx_PLL2_Config>
 8002b5c:	4606      	mov	r6, r0
 8002b5e:	2800      	cmp	r0, #0
 8002b60:	d1d6      	bne.n	8002b10 <HAL_RCCEx_PeriphCLKConfig+0x24>
 8002b62:	e7e7      	b.n	8002b34 <HAL_RCCEx_PeriphCLKConfig+0x48>
 8002b64:	2102      	movs	r1, #2
 8002b66:	f105 0028 	add.w	r0, r5, #40	; 0x28
 8002b6a:	f7ff ff47 	bl	80029fc <RCCEx_PLL3_Config>
 8002b6e:	e7f5      	b.n	8002b5c <HAL_RCCEx_PeriphCLKConfig+0x70>
 8002b70:	4a9a      	ldr	r2, [pc, #616]	; (8002ddc <HAL_RCCEx_PeriphCLKConfig+0x2f0>)
 8002b72:	6ad3      	ldr	r3, [r2, #44]	; 0x2c
 8002b74:	f443 3300 	orr.w	r3, r3, #131072	; 0x20000
 8002b78:	62d3      	str	r3, [r2, #44]	; 0x2c
 8002b7a:	4634      	mov	r4, r6
 8002b7c:	e005      	b.n	8002b8a <HAL_RCCEx_PeriphCLKConfig+0x9e>
 8002b7e:	2100      	movs	r1, #0
 8002b80:	f105 0008 	add.w	r0, r5, #8
 8002b84:	f7ff fec2 	bl	800290c <RCCEx_PLL2_Config>
 8002b88:	4604      	mov	r4, r0
 8002b8a:	2c00      	cmp	r4, #0
 8002b8c:	f040 80b3 	bne.w	8002cf6 <HAL_RCCEx_PeriphCLKConfig+0x20a>
 8002b90:	4a92      	ldr	r2, [pc, #584]	; (8002ddc <HAL_RCCEx_PeriphCLKConfig+0x2f0>)
 8002b92:	6da9      	ldr	r1, [r5, #88]	; 0x58
 8002b94:	6d13      	ldr	r3, [r2, #80]	; 0x50
 8002b96:	f023 0307 	bic.w	r3, r3, #7
 8002b9a:	430b      	orrs	r3, r1
 8002b9c:	6513      	str	r3, [r2, #80]	; 0x50
 8002b9e:	682b      	ldr	r3, [r5, #0]
 8002ba0:	059a      	lsls	r2, r3, #22
 8002ba2:	d50d      	bpl.n	8002bc0 <HAL_RCCEx_PeriphCLKConfig+0xd4>
 8002ba4:	6deb      	ldr	r3, [r5, #92]	; 0x5c
 8002ba6:	2b80      	cmp	r3, #128	; 0x80
 8002ba8:	f000 80c3 	beq.w	8002d32 <HAL_RCCEx_PeriphCLKConfig+0x246>
 8002bac:	f200 80a5 	bhi.w	8002cfa <HAL_RCCEx_PeriphCLKConfig+0x20e>
 8002bb0:	2b00      	cmp	r3, #0
 8002bb2:	f000 80b1 	beq.w	8002d18 <HAL_RCCEx_PeriphCLKConfig+0x22c>
 8002bb6:	2b40      	cmp	r3, #64	; 0x40
 8002bb8:	f000 80b4 	beq.w	8002d24 <HAL_RCCEx_PeriphCLKConfig+0x238>
 8002bbc:	2601      	movs	r6, #1
 8002bbe:	4634      	mov	r4, r6
 8002bc0:	682b      	ldr	r3, [r5, #0]
 8002bc2:	055b      	lsls	r3, r3, #21
 8002bc4:	d510      	bpl.n	8002be8 <HAL_RCCEx_PeriphCLKConfig+0xfc>
 8002bc6:	f8d5 30a8 	ldr.w	r3, [r5, #168]	; 0xa8
 8002bca:	f5b3 0f80 	cmp.w	r3, #4194304	; 0x400000
 8002bce:	f000 80d6 	beq.w	8002d7e <HAL_RCCEx_PeriphCLKConfig+0x292>
 8002bd2:	f200 80b6 	bhi.w	8002d42 <HAL_RCCEx_PeriphCLKConfig+0x256>
 8002bd6:	2b00      	cmp	r3, #0
 8002bd8:	f000 80c4 	beq.w	8002d64 <HAL_RCCEx_PeriphCLKConfig+0x278>
 8002bdc:	f5b3 1f00 	cmp.w	r3, #2097152	; 0x200000
 8002be0:	f000 80c6 	beq.w	8002d70 <HAL_RCCEx_PeriphCLKConfig+0x284>
 8002be4:	2601      	movs	r6, #1
 8002be6:	4634      	mov	r4, r6
 8002be8:	682b      	ldr	r3, [r5, #0]
 8002bea:	051f      	lsls	r7, r3, #20
 8002bec:	d510      	bpl.n	8002c10 <HAL_RCCEx_PeriphCLKConfig+0x124>
 8002bee:	f8d5 30ac 	ldr.w	r3, [r5, #172]	; 0xac
 8002bf2:	f1b3 7f00 	cmp.w	r3, #33554432	; 0x2000000
 8002bf6:	f000 80e8 	beq.w	8002dca <HAL_RCCEx_PeriphCLKConfig+0x2de>
 8002bfa:	f200 80c8 	bhi.w	8002d8e <HAL_RCCEx_PeriphCLKConfig+0x2a2>
 8002bfe:	2b00      	cmp	r3, #0
 8002c00:	f000 80d6 	beq.w	8002db0 <HAL_RCCEx_PeriphCLKConfig+0x2c4>
 8002c04:	f1b3 7f80 	cmp.w	r3, #16777216	; 0x1000000
 8002c08:	f000 80d8 	beq.w	8002dbc <HAL_RCCEx_PeriphCLKConfig+0x2d0>
 8002c0c:	2601      	movs	r6, #1
 8002c0e:	4634      	mov	r4, r6
 8002c10:	682b      	ldr	r3, [r5, #0]
 8002c12:	0198      	lsls	r0, r3, #6
 8002c14:	d50d      	bpl.n	8002c32 <HAL_RCCEx_PeriphCLKConfig+0x146>
 8002c16:	6ceb      	ldr	r3, [r5, #76]	; 0x4c
 8002c18:	2b20      	cmp	r3, #32
 8002c1a:	f000 80f3 	beq.w	8002e04 <HAL_RCCEx_PeriphCLKConfig+0x318>
 8002c1e:	f200 80df 	bhi.w	8002de0 <HAL_RCCEx_PeriphCLKConfig+0x2f4>
 8002c22:	2b00      	cmp	r3, #0
 8002c24:	f000 80df 	beq.w	8002de6 <HAL_RCCEx_PeriphCLKConfig+0x2fa>
 8002c28:	2b10      	cmp	r3, #16
 8002c2a:	f000 80e5 	beq.w	8002df8 <HAL_RCCEx_PeriphCLKConfig+0x30c>
 8002c2e:	2601      	movs	r6, #1
 8002c30:	4634      	mov	r4, r6
 8002c32:	682b      	ldr	r3, [r5, #0]
 8002c34:	04d9      	lsls	r1, r3, #19
 8002c36:	d50f      	bpl.n	8002c58 <HAL_RCCEx_PeriphCLKConfig+0x16c>
 8002c38:	6e2b      	ldr	r3, [r5, #96]	; 0x60
 8002c3a:	f5b3 5f00 	cmp.w	r3, #8192	; 0x2000
 8002c3e:	f000 8107 	beq.w	8002e50 <HAL_RCCEx_PeriphCLKConfig+0x364>
 8002c42:	f200 80e8 	bhi.w	8002e16 <HAL_RCCEx_PeriphCLKConfig+0x32a>
 8002c46:	2b00      	cmp	r3, #0
 8002c48:	f000 80f5 	beq.w	8002e36 <HAL_RCCEx_PeriphCLKConfig+0x34a>
 8002c4c:	f5b3 5f80 	cmp.w	r3, #4096	; 0x1000
 8002c50:	f000 80f7 	beq.w	8002e42 <HAL_RCCEx_PeriphCLKConfig+0x356>
 8002c54:	2601      	movs	r6, #1
 8002c56:	4634      	mov	r4, r6
 8002c58:	682b      	ldr	r3, [r5, #0]
 8002c5a:	049a      	lsls	r2, r3, #18
 8002c5c:	d50f      	bpl.n	8002c7e <HAL_RCCEx_PeriphCLKConfig+0x192>
 8002c5e:	6e6b      	ldr	r3, [r5, #100]	; 0x64
 8002c60:	f5b3 3f00 	cmp.w	r3, #131072	; 0x20000
 8002c64:	f000 8115 	beq.w	8002e92 <HAL_RCCEx_PeriphCLKConfig+0x3a6>
 8002c68:	f200 80fa 	bhi.w	8002e60 <HAL_RCCEx_PeriphCLKConfig+0x374>
 8002c6c:	2b00      	cmp	r3, #0
 8002c6e:	f000 8100 	beq.w	8002e72 <HAL_RCCEx_PeriphCLKConfig+0x386>
 8002c72:	f5b3 3f80 	cmp.w	r3, #65536	; 0x10000
 8002c76:	f000 8105 	beq.w	8002e84 <HAL_RCCEx_PeriphCLKConfig+0x398>
 8002c7a:	2601      	movs	r6, #1
 8002c7c:	4634      	mov	r4, r6
 8002c7e:	682b      	ldr	r3, [r5, #0]
 8002c80:	045b      	lsls	r3, r3, #17
 8002c82:	d510      	bpl.n	8002ca6 <HAL_RCCEx_PeriphCLKConfig+0x1ba>
 8002c84:	f8d5 30b0 	ldr.w	r3, [r5, #176]	; 0xb0
 8002c88:	f1b3 5f00 	cmp.w	r3, #536870912	; 0x20000000
 8002c8c:	f000 8123 	beq.w	8002ed6 <HAL_RCCEx_PeriphCLKConfig+0x3ea>
 8002c90:	f200 8107 	bhi.w	8002ea2 <HAL_RCCEx_PeriphCLKConfig+0x3b6>
 8002c94:	2b00      	cmp	r3, #0
 8002c96:	f000 810d 	beq.w	8002eb4 <HAL_RCCEx_PeriphCLKConfig+0x3c8>
 8002c9a:	f1b3 5f80 	cmp.w	r3, #268435456	; 0x10000000
 8002c9e:	f000 8113 	beq.w	8002ec8 <HAL_RCCEx_PeriphCLKConfig+0x3dc>
 8002ca2:	2601      	movs	r6, #1
 8002ca4:	4634      	mov	r4, r6
 8002ca6:	682b      	ldr	r3, [r5, #0]
 8002ca8:	041f      	lsls	r7, r3, #16
 8002caa:	d50d      	bpl.n	8002cc8 <HAL_RCCEx_PeriphCLKConfig+0x1dc>
 8002cac:	6f2b      	ldr	r3, [r5, #112]	; 0x70
 8002cae:	f1b3 5f80 	cmp.w	r3, #268435456	; 0x10000000
 8002cb2:	f000 8118 	beq.w	8002ee6 <HAL_RCCEx_PeriphCLKConfig+0x3fa>
 8002cb6:	f1b3 5f00 	cmp.w	r3, #536870912	; 0x20000000
 8002cba:	f000 8122 	beq.w	8002f02 <HAL_RCCEx_PeriphCLKConfig+0x416>
 8002cbe:	2b00      	cmp	r3, #0
 8002cc0:	f000 8116 	beq.w	8002ef0 <HAL_RCCEx_PeriphCLKConfig+0x404>
 8002cc4:	2601      	movs	r6, #1
 8002cc6:	4634      	mov	r4, r6
 8002cc8:	682b      	ldr	r3, [r5, #0]
 8002cca:	01d8      	lsls	r0, r3, #7
 8002ccc:	f140 8130 	bpl.w	8002f30 <HAL_RCCEx_PeriphCLKConfig+0x444>
 8002cd0:	6cab      	ldr	r3, [r5, #72]	; 0x48
 8002cd2:	2b03      	cmp	r3, #3
 8002cd4:	f200 8171 	bhi.w	8002fba <HAL_RCCEx_PeriphCLKConfig+0x4ce>
 8002cd8:	e8df f013 	tbh	[pc, r3, lsl #1]
 8002cdc:	011c0121 	.word	0x011c0121
 8002ce0:	01210168 	.word	0x01210168
 8002ce4:	2100      	movs	r1, #0
 8002ce6:	f105 0028 	add.w	r0, r5, #40	; 0x28
 8002cea:	f7ff fe87 	bl	80029fc <RCCEx_PLL3_Config>
 8002cee:	e74b      	b.n	8002b88 <HAL_RCCEx_PeriphCLKConfig+0x9c>
 8002cf0:	2601      	movs	r6, #1
 8002cf2:	4634      	mov	r4, r6
 8002cf4:	e753      	b.n	8002b9e <HAL_RCCEx_PeriphCLKConfig+0xb2>
 8002cf6:	4626      	mov	r6, r4
 8002cf8:	e751      	b.n	8002b9e <HAL_RCCEx_PeriphCLKConfig+0xb2>
 8002cfa:	2bc0      	cmp	r3, #192	; 0xc0
 8002cfc:	d003      	beq.n	8002d06 <HAL_RCCEx_PeriphCLKConfig+0x21a>
 8002cfe:	f5b3 7f80 	cmp.w	r3, #256	; 0x100
 8002d02:	f47f af5b 	bne.w	8002bbc <HAL_RCCEx_PeriphCLKConfig+0xd0>
 8002d06:	b9d4      	cbnz	r4, 8002d3e <HAL_RCCEx_PeriphCLKConfig+0x252>
 8002d08:	4a34      	ldr	r2, [pc, #208]	; (8002ddc <HAL_RCCEx_PeriphCLKConfig+0x2f0>)
 8002d0a:	6de9      	ldr	r1, [r5, #92]	; 0x5c
 8002d0c:	6d13      	ldr	r3, [r2, #80]	; 0x50
 8002d0e:	f423 73e0 	bic.w	r3, r3, #448	; 0x1c0
 8002d12:	430b      	orrs	r3, r1
 8002d14:	6513      	str	r3, [r2, #80]	; 0x50
 8002d16:	e753      	b.n	8002bc0 <HAL_RCCEx_PeriphCLKConfig+0xd4>
 8002d18:	4a30      	ldr	r2, [pc, #192]	; (8002ddc <HAL_RCCEx_PeriphCLKConfig+0x2f0>)
 8002d1a:	6ad3      	ldr	r3, [r2, #44]	; 0x2c
 8002d1c:	f443 3300 	orr.w	r3, r3, #131072	; 0x20000
 8002d20:	62d3      	str	r3, [r2, #44]	; 0x2c
 8002d22:	e7f0      	b.n	8002d06 <HAL_RCCEx_PeriphCLKConfig+0x21a>
 8002d24:	2100      	movs	r1, #0
 8002d26:	f105 0008 	add.w	r0, r5, #8
 8002d2a:	f7ff fdef 	bl	800290c <RCCEx_PLL2_Config>
 8002d2e:	4604      	mov	r4, r0
 8002d30:	e7e9      	b.n	8002d06 <HAL_RCCEx_PeriphCLKConfig+0x21a>
 8002d32:	2100      	movs	r1, #0
 8002d34:	f105 0028 	add.w	r0, r5, #40	; 0x28
 8002d38:	f7ff fe60 	bl	80029fc <RCCEx_PLL3_Config>
 8002d3c:	e7f7      	b.n	8002d2e <HAL_RCCEx_PeriphCLKConfig+0x242>
 8002d3e:	4626      	mov	r6, r4
 8002d40:	e73e      	b.n	8002bc0 <HAL_RCCEx_PeriphCLKConfig+0xd4>
 8002d42:	f5b3 0fc0 	cmp.w	r3, #6291456	; 0x600000
 8002d46:	d003      	beq.n	8002d50 <HAL_RCCEx_PeriphCLKConfig+0x264>
 8002d48:	f5b3 0f00 	cmp.w	r3, #8388608	; 0x800000
 8002d4c:	f47f af4a 	bne.w	8002be4 <HAL_RCCEx_PeriphCLKConfig+0xf8>
 8002d50:	b9dc      	cbnz	r4, 8002d8a <HAL_RCCEx_PeriphCLKConfig+0x29e>
 8002d52:	4a22      	ldr	r2, [pc, #136]	; (8002ddc <HAL_RCCEx_PeriphCLKConfig+0x2f0>)
 8002d54:	f8d5 10a8 	ldr.w	r1, [r5, #168]	; 0xa8
 8002d58:	6d93      	ldr	r3, [r2, #88]	; 0x58
 8002d5a:	f423 0360 	bic.w	r3, r3, #14680064	; 0xe00000
 8002d5e:	430b      	orrs	r3, r1
 8002d60:	6593      	str	r3, [r2, #88]	; 0x58
 8002d62:	e741      	b.n	8002be8 <HAL_RCCEx_PeriphCLKConfig+0xfc>
 8002d64:	4a1d      	ldr	r2, [pc, #116]	; (8002ddc <HAL_RCCEx_PeriphCLKConfig+0x2f0>)
 8002d66:	6ad3      	ldr	r3, [r2, #44]	; 0x2c
 8002d68:	f443 3300 	orr.w	r3, r3, #131072	; 0x20000
 8002d6c:	62d3      	str	r3, [r2, #44]	; 0x2c
 8002d6e:	e7ef      	b.n	8002d50 <HAL_RCCEx_PeriphCLKConfig+0x264>
 8002d70:	2100      	movs	r1, #0
 8002d72:	f105 0008 	add.w	r0, r5, #8
 8002d76:	f7ff fdc9 	bl	800290c <RCCEx_PLL2_Config>
 8002d7a:	4604      	mov	r4, r0
 8002d7c:	e7e8      	b.n	8002d50 <HAL_RCCEx_PeriphCLKConfig+0x264>
 8002d7e:	2100      	movs	r1, #0
 8002d80:	f105 0028 	add.w	r0, r5, #40	; 0x28
 8002d84:	f7ff fe3a 	bl	80029fc <RCCEx_PLL3_Config>
 8002d88:	e7f7      	b.n	8002d7a <HAL_RCCEx_PeriphCLKConfig+0x28e>
 8002d8a:	4626      	mov	r6, r4
 8002d8c:	e72c      	b.n	8002be8 <HAL_RCCEx_PeriphCLKConfig+0xfc>
 8002d8e:	f1b3 7f40 	cmp.w	r3, #50331648	; 0x3000000
 8002d92:	d003      	beq.n	8002d9c <HAL_RCCEx_PeriphCLKConfig+0x2b0>
 8002d94:	f1b3 6f80 	cmp.w	r3, #67108864	; 0x4000000
 8002d98:	f47f af38 	bne.w	8002c0c <HAL_RCCEx_PeriphCLKConfig+0x120>
 8002d9c:	b9dc      	cbnz	r4, 8002dd6 <HAL_RCCEx_PeriphCLKConfig+0x2ea>
 8002d9e:	4a0f      	ldr	r2, [pc, #60]	; (8002ddc <HAL_RCCEx_PeriphCLKConfig+0x2f0>)
 8002da0:	f8d5 10ac 	ldr.w	r1, [r5, #172]	; 0xac
 8002da4:	6d93      	ldr	r3, [r2, #88]	; 0x58
 8002da6:	f023 63e0 	bic.w	r3, r3, #117440512	; 0x7000000
 8002daa:	430b      	orrs	r3, r1
 8002dac:	6593      	str	r3, [r2, #88]	; 0x58
 8002dae:	e72f      	b.n	8002c10 <HAL_RCCEx_PeriphCLKConfig+0x124>
 8002db0:	4a0a      	ldr	r2, [pc, #40]	; (8002ddc <HAL_RCCEx_PeriphCLKConfig+0x2f0>)
 8002db2:	6ad3      	ldr	r3, [r2, #44]	; 0x2c
 8002db4:	f443 3300 	orr.w	r3, r3, #131072	; 0x20000
 8002db8:	62d3      	str	r3, [r2, #44]	; 0x2c
 8002dba:	e7ef      	b.n	8002d9c <HAL_RCCEx_PeriphCLKConfig+0x2b0>
 8002dbc:	2100      	movs	r1, #0
 8002dbe:	f105 0008 	add.w	r0, r5, #8
 8002dc2:	f7ff fda3 	bl	800290c <RCCEx_PLL2_Config>
 8002dc6:	4604      	mov	r4, r0
 8002dc8:	e7e8      	b.n	8002d9c <HAL_RCCEx_PeriphCLKConfig+0x2b0>
 8002dca:	2100      	movs	r1, #0
 8002dcc:	f105 0028 	add.w	r0, r5, #40	; 0x28
 8002dd0:	f7ff fe14 	bl	80029fc <RCCEx_PLL3_Config>
 8002dd4:	e7f7      	b.n	8002dc6 <HAL_RCCEx_PeriphCLKConfig+0x2da>
 8002dd6:	4626      	mov	r6, r4
 8002dd8:	e71a      	b.n	8002c10 <HAL_RCCEx_PeriphCLKConfig+0x124>
 8002dda:	bf00      	nop
 8002ddc:	58024400 	.word	0x58024400
 8002de0:	2b30      	cmp	r3, #48	; 0x30
 8002de2:	f47f af24 	bne.w	8002c2e <HAL_RCCEx_PeriphCLKConfig+0x142>
 8002de6:	b9a4      	cbnz	r4, 8002e12 <HAL_RCCEx_PeriphCLKConfig+0x326>
 8002de8:	4aa0      	ldr	r2, [pc, #640]	; (800306c <HAL_RCCEx_PeriphCLKConfig+0x580>)
 8002dea:	6ce9      	ldr	r1, [r5, #76]	; 0x4c
 8002dec:	6cd3      	ldr	r3, [r2, #76]	; 0x4c
 8002dee:	f023 0330 	bic.w	r3, r3, #48	; 0x30
 8002df2:	430b      	orrs	r3, r1
 8002df4:	64d3      	str	r3, [r2, #76]	; 0x4c
 8002df6:	e71c      	b.n	8002c32 <HAL_RCCEx_PeriphCLKConfig+0x146>
 8002df8:	4a9c      	ldr	r2, [pc, #624]	; (800306c <HAL_RCCEx_PeriphCLKConfig+0x580>)
 8002dfa:	6ad3      	ldr	r3, [r2, #44]	; 0x2c
 8002dfc:	f443 3300 	orr.w	r3, r3, #131072	; 0x20000
 8002e00:	62d3      	str	r3, [r2, #44]	; 0x2c
 8002e02:	e7f0      	b.n	8002de6 <HAL_RCCEx_PeriphCLKConfig+0x2fa>
 8002e04:	2102      	movs	r1, #2
 8002e06:	f105 0008 	add.w	r0, r5, #8
 8002e0a:	f7ff fd7f 	bl	800290c <RCCEx_PLL2_Config>
 8002e0e:	4604      	mov	r4, r0
 8002e10:	e7e9      	b.n	8002de6 <HAL_RCCEx_PeriphCLKConfig+0x2fa>
 8002e12:	4626      	mov	r6, r4
 8002e14:	e70d      	b.n	8002c32 <HAL_RCCEx_PeriphCLKConfig+0x146>
 8002e16:	f5b3 5f40 	cmp.w	r3, #12288	; 0x3000
 8002e1a:	d003      	beq.n	8002e24 <HAL_RCCEx_PeriphCLKConfig+0x338>
 8002e1c:	f5b3 4f80 	cmp.w	r3, #16384	; 0x4000
 8002e20:	f47f af18 	bne.w	8002c54 <HAL_RCCEx_PeriphCLKConfig+0x168>
 8002e24:	b9d4      	cbnz	r4, 8002e5c <HAL_RCCEx_PeriphCLKConfig+0x370>
 8002e26:	4a91      	ldr	r2, [pc, #580]	; (800306c <HAL_RCCEx_PeriphCLKConfig+0x580>)
 8002e28:	6e29      	ldr	r1, [r5, #96]	; 0x60
 8002e2a:	6d13      	ldr	r3, [r2, #80]	; 0x50
 8002e2c:	f423 43e0 	bic.w	r3, r3, #28672	; 0x7000
 8002e30:	430b      	orrs	r3, r1
 8002e32:	6513      	str	r3, [r2, #80]	; 0x50
 8002e34:	e710      	b.n	8002c58 <HAL_RCCEx_PeriphCLKConfig+0x16c>
 8002e36:	4a8d      	ldr	r2, [pc, #564]	; (800306c <HAL_RCCEx_PeriphCLKConfig+0x580>)
 8002e38:	6ad3      	ldr	r3, [r2, #44]	; 0x2c
 8002e3a:	f443 3300 	orr.w	r3, r3, #131072	; 0x20000
 8002e3e:	62d3      	str	r3, [r2, #44]	; 0x2c
 8002e40:	e7f0      	b.n	8002e24 <HAL_RCCEx_PeriphCLKConfig+0x338>
 8002e42:	2100      	movs	r1, #0
 8002e44:	f105 0008 	add.w	r0, r5, #8
 8002e48:	f7ff fd60 	bl	800290c <RCCEx_PLL2_Config>
 8002e4c:	4604      	mov	r4, r0
 8002e4e:	e7e9      	b.n	8002e24 <HAL_RCCEx_PeriphCLKConfig+0x338>
 8002e50:	2100      	movs	r1, #0
 8002e52:	f105 0028 	add.w	r0, r5, #40	; 0x28
 8002e56:	f7ff fdd1 	bl	80029fc <RCCEx_PLL3_Config>
 8002e5a:	e7f7      	b.n	8002e4c <HAL_RCCEx_PeriphCLKConfig+0x360>
 8002e5c:	4626      	mov	r6, r4
 8002e5e:	e6fb      	b.n	8002c58 <HAL_RCCEx_PeriphCLKConfig+0x16c>
 8002e60:	f423 3280 	bic.w	r2, r3, #65536	; 0x10000
 8002e64:	f5b2 2f80 	cmp.w	r2, #262144	; 0x40000
 8002e68:	d003      	beq.n	8002e72 <HAL_RCCEx_PeriphCLKConfig+0x386>
 8002e6a:	f5b3 3f40 	cmp.w	r3, #196608	; 0x30000
 8002e6e:	f47f af04 	bne.w	8002c7a <HAL_RCCEx_PeriphCLKConfig+0x18e>
 8002e72:	b9a4      	cbnz	r4, 8002e9e <HAL_RCCEx_PeriphCLKConfig+0x3b2>
 8002e74:	4a7d      	ldr	r2, [pc, #500]	; (800306c <HAL_RCCEx_PeriphCLKConfig+0x580>)
 8002e76:	6e69      	ldr	r1, [r5, #100]	; 0x64
 8002e78:	6d13      	ldr	r3, [r2, #80]	; 0x50
 8002e7a:	f423 23e0 	bic.w	r3, r3, #458752	; 0x70000
 8002e7e:	430b      	orrs	r3, r1
 8002e80:	6513      	str	r3, [r2, #80]	; 0x50
 8002e82:	e6fc      	b.n	8002c7e <HAL_RCCEx_PeriphCLKConfig+0x192>
 8002e84:	2101      	movs	r1, #1
 8002e86:	f105 0008 	add.w	r0, r5, #8
 8002e8a:	f7ff fd3f 	bl	800290c <RCCEx_PLL2_Config>
 8002e8e:	4604      	mov	r4, r0
 8002e90:	e7ef      	b.n	8002e72 <HAL_RCCEx_PeriphCLKConfig+0x386>
 8002e92:	2101      	movs	r1, #1
 8002e94:	f105 0028 	add.w	r0, r5, #40	; 0x28
 8002e98:	f7ff fdb0 	bl	80029fc <RCCEx_PLL3_Config>
 8002e9c:	e7f7      	b.n	8002e8e <HAL_RCCEx_PeriphCLKConfig+0x3a2>
 8002e9e:	4626      	mov	r6, r4
 8002ea0:	e6ed      	b.n	8002c7e <HAL_RCCEx_PeriphCLKConfig+0x192>
 8002ea2:	f023 5280 	bic.w	r2, r3, #268435456	; 0x10000000
 8002ea6:	f1b2 4f80 	cmp.w	r2, #1073741824	; 0x40000000
 8002eaa:	d003      	beq.n	8002eb4 <HAL_RCCEx_PeriphCLKConfig+0x3c8>
 8002eac:	f1b3 5f40 	cmp.w	r3, #805306368	; 0x30000000
 8002eb0:	f47f aef7 	bne.w	8002ca2 <HAL_RCCEx_PeriphCLKConfig+0x1b6>
 8002eb4:	b9ac      	cbnz	r4, 8002ee2 <HAL_RCCEx_PeriphCLKConfig+0x3f6>
 8002eb6:	4a6d      	ldr	r2, [pc, #436]	; (800306c <HAL_RCCEx_PeriphCLKConfig+0x580>)
 8002eb8:	f8d5 10b0 	ldr.w	r1, [r5, #176]	; 0xb0
 8002ebc:	6d93      	ldr	r3, [r2, #88]	; 0x58
 8002ebe:	f023 43e0 	bic.w	r3, r3, #1879048192	; 0x70000000
 8002ec2:	430b      	orrs	r3, r1
 8002ec4:	6593      	str	r3, [r2, #88]	; 0x58
 8002ec6:	e6ee      	b.n	8002ca6 <HAL_RCCEx_PeriphCLKConfig+0x1ba>
 8002ec8:	2101      	movs	r1, #1
 8002eca:	f105 0008 	add.w	r0, r5, #8
 8002ece:	f7ff fd1d 	bl	800290c <RCCEx_PLL2_Config>
 8002ed2:	4604      	mov	r4, r0
 8002ed4:	e7ee      	b.n	8002eb4 <HAL_RCCEx_PeriphCLKConfig+0x3c8>
 8002ed6:	2101      	movs	r1, #1
 8002ed8:	f105 0028 	add.w	r0, r5, #40	; 0x28
 8002edc:	f7ff fd8e 	bl	80029fc <RCCEx_PLL3_Config>
 8002ee0:	e7f7      	b.n	8002ed2 <HAL_RCCEx_PeriphCLKConfig+0x3e6>
 8002ee2:	4626      	mov	r6, r4
 8002ee4:	e6df      	b.n	8002ca6 <HAL_RCCEx_PeriphCLKConfig+0x1ba>
 8002ee6:	4a61      	ldr	r2, [pc, #388]	; (800306c <HAL_RCCEx_PeriphCLKConfig+0x580>)
 8002ee8:	6ad3      	ldr	r3, [r2, #44]	; 0x2c
 8002eea:	f443 3300 	orr.w	r3, r3, #131072	; 0x20000
 8002eee:	62d3      	str	r3, [r2, #44]	; 0x2c
 8002ef0:	b974      	cbnz	r4, 8002f10 <HAL_RCCEx_PeriphCLKConfig+0x424>
 8002ef2:	4a5e      	ldr	r2, [pc, #376]	; (800306c <HAL_RCCEx_PeriphCLKConfig+0x580>)
 8002ef4:	6f29      	ldr	r1, [r5, #112]	; 0x70
 8002ef6:	6d13      	ldr	r3, [r2, #80]	; 0x50
 8002ef8:	f023 5340 	bic.w	r3, r3, #805306368	; 0x30000000
 8002efc:	430b      	orrs	r3, r1
 8002efe:	6513      	str	r3, [r2, #80]	; 0x50
 8002f00:	e6e2      	b.n	8002cc8 <HAL_RCCEx_PeriphCLKConfig+0x1dc>
 8002f02:	2101      	movs	r1, #1
 8002f04:	f105 0008 	add.w	r0, r5, #8
 8002f08:	f7ff fd00 	bl	800290c <RCCEx_PLL2_Config>
 8002f0c:	4604      	mov	r4, r0
 8002f0e:	e7ef      	b.n	8002ef0 <HAL_RCCEx_PeriphCLKConfig+0x404>
 8002f10:	4626      	mov	r6, r4
 8002f12:	e6d9      	b.n	8002cc8 <HAL_RCCEx_PeriphCLKConfig+0x1dc>
 8002f14:	4a55      	ldr	r2, [pc, #340]	; (800306c <HAL_RCCEx_PeriphCLKConfig+0x580>)
 8002f16:	6ad3      	ldr	r3, [r2, #44]	; 0x2c
 8002f18:	f443 3300 	orr.w	r3, r3, #131072	; 0x20000
 8002f1c:	62d3      	str	r3, [r2, #44]	; 0x2c
 8002f1e:	2c00      	cmp	r4, #0
 8002f20:	d14e      	bne.n	8002fc0 <HAL_RCCEx_PeriphCLKConfig+0x4d4>
 8002f22:	4a52      	ldr	r2, [pc, #328]	; (800306c <HAL_RCCEx_PeriphCLKConfig+0x580>)
 8002f24:	6ca9      	ldr	r1, [r5, #72]	; 0x48
 8002f26:	6cd3      	ldr	r3, [r2, #76]	; 0x4c
 8002f28:	f023 0303 	bic.w	r3, r3, #3
 8002f2c:	430b      	orrs	r3, r1
 8002f2e:	64d3      	str	r3, [r2, #76]	; 0x4c
 8002f30:	682b      	ldr	r3, [r5, #0]
 8002f32:	0259      	lsls	r1, r3, #9
 8002f34:	d54e      	bpl.n	8002fd4 <HAL_RCCEx_PeriphCLKConfig+0x4e8>
 8002f36:	4f4e      	ldr	r7, [pc, #312]	; (8003070 <HAL_RCCEx_PeriphCLKConfig+0x584>)
 8002f38:	683b      	ldr	r3, [r7, #0]
 8002f3a:	f443 7380 	orr.w	r3, r3, #256	; 0x100
 8002f3e:	603b      	str	r3, [r7, #0]
 8002f40:	f7fe f81c 	bl	8000f7c <HAL_GetTick>
 8002f44:	4680      	mov	r8, r0
 8002f46:	683b      	ldr	r3, [r7, #0]
 8002f48:	05da      	lsls	r2, r3, #23
 8002f4a:	d53b      	bpl.n	8002fc4 <HAL_RCCEx_PeriphCLKConfig+0x4d8>
 8002f4c:	2c00      	cmp	r4, #0
 8002f4e:	d16d      	bne.n	800302c <HAL_RCCEx_PeriphCLKConfig+0x540>
 8002f50:	4b46      	ldr	r3, [pc, #280]	; (800306c <HAL_RCCEx_PeriphCLKConfig+0x580>)
 8002f52:	f8d5 00b4 	ldr.w	r0, [r5, #180]	; 0xb4
 8002f56:	6f1a      	ldr	r2, [r3, #112]	; 0x70
 8002f58:	4042      	eors	r2, r0
 8002f5a:	f412 7f40 	tst.w	r2, #768	; 0x300
 8002f5e:	d00b      	beq.n	8002f78 <HAL_RCCEx_PeriphCLKConfig+0x48c>
 8002f60:	6f1a      	ldr	r2, [r3, #112]	; 0x70
 8002f62:	6f19      	ldr	r1, [r3, #112]	; 0x70
 8002f64:	f422 7240 	bic.w	r2, r2, #768	; 0x300
 8002f68:	f441 3180 	orr.w	r1, r1, #65536	; 0x10000
 8002f6c:	6719      	str	r1, [r3, #112]	; 0x70
 8002f6e:	6f19      	ldr	r1, [r3, #112]	; 0x70
 8002f70:	f421 3180 	bic.w	r1, r1, #65536	; 0x10000
 8002f74:	6719      	str	r1, [r3, #112]	; 0x70
 8002f76:	671a      	str	r2, [r3, #112]	; 0x70
 8002f78:	f5b0 7f80 	cmp.w	r0, #256	; 0x100
 8002f7c:	d041      	beq.n	8003002 <HAL_RCCEx_PeriphCLKConfig+0x516>
 8002f7e:	f8d5 30b4 	ldr.w	r3, [r5, #180]	; 0xb4
 8002f82:	493a      	ldr	r1, [pc, #232]	; (800306c <HAL_RCCEx_PeriphCLKConfig+0x580>)
 8002f84:	f403 7240 	and.w	r2, r3, #768	; 0x300
 8002f88:	f5b2 7f40 	cmp.w	r2, #768	; 0x300
 8002f8c:	d14a      	bne.n	8003024 <HAL_RCCEx_PeriphCLKConfig+0x538>
 8002f8e:	6908      	ldr	r0, [r1, #16]
 8002f90:	4a38      	ldr	r2, [pc, #224]	; (8003074 <HAL_RCCEx_PeriphCLKConfig+0x588>)
 8002f92:	f420 507c 	bic.w	r0, r0, #16128	; 0x3f00
 8002f96:	ea02 1213 	and.w	r2, r2, r3, lsr #4
 8002f9a:	4302      	orrs	r2, r0
 8002f9c:	610a      	str	r2, [r1, #16]
 8002f9e:	f3c3 030b 	ubfx	r3, r3, #0, #12
 8002fa2:	4a32      	ldr	r2, [pc, #200]	; (800306c <HAL_RCCEx_PeriphCLKConfig+0x580>)
 8002fa4:	6f11      	ldr	r1, [r2, #112]	; 0x70
 8002fa6:	430b      	orrs	r3, r1
 8002fa8:	6713      	str	r3, [r2, #112]	; 0x70
 8002faa:	e013      	b.n	8002fd4 <HAL_RCCEx_PeriphCLKConfig+0x4e8>
 8002fac:	2102      	movs	r1, #2
 8002fae:	f105 0008 	add.w	r0, r5, #8
 8002fb2:	f7ff fcab 	bl	800290c <RCCEx_PLL2_Config>
 8002fb6:	4604      	mov	r4, r0
 8002fb8:	e7b1      	b.n	8002f1e <HAL_RCCEx_PeriphCLKConfig+0x432>
 8002fba:	2601      	movs	r6, #1
 8002fbc:	4634      	mov	r4, r6
 8002fbe:	e7b7      	b.n	8002f30 <HAL_RCCEx_PeriphCLKConfig+0x444>
 8002fc0:	4626      	mov	r6, r4
 8002fc2:	e7b5      	b.n	8002f30 <HAL_RCCEx_PeriphCLKConfig+0x444>
 8002fc4:	f7fd ffda 	bl	8000f7c <HAL_GetTick>
 8002fc8:	eba0 0008 	sub.w	r0, r0, r8
 8002fcc:	2864      	cmp	r0, #100	; 0x64
 8002fce:	d9ba      	bls.n	8002f46 <HAL_RCCEx_PeriphCLKConfig+0x45a>
 8002fd0:	2603      	movs	r6, #3
 8002fd2:	4634      	mov	r4, r6
 8002fd4:	682b      	ldr	r3, [r5, #0]
 8002fd6:	07d8      	lsls	r0, r3, #31
 8002fd8:	d508      	bpl.n	8002fec <HAL_RCCEx_PeriphCLKConfig+0x500>
 8002fda:	6feb      	ldr	r3, [r5, #124]	; 0x7c
 8002fdc:	2b10      	cmp	r3, #16
 8002fde:	d03d      	beq.n	800305c <HAL_RCCEx_PeriphCLKConfig+0x570>
 8002fe0:	d826      	bhi.n	8003030 <HAL_RCCEx_PeriphCLKConfig+0x544>
 8002fe2:	b35b      	cbz	r3, 800303c <HAL_RCCEx_PeriphCLKConfig+0x550>
 8002fe4:	2b08      	cmp	r3, #8
 8002fe6:	d032      	beq.n	800304e <HAL_RCCEx_PeriphCLKConfig+0x562>
 8002fe8:	2601      	movs	r6, #1
 8002fea:	4634      	mov	r4, r6
 8002fec:	682b      	ldr	r3, [r5, #0]
 8002fee:	0799      	lsls	r1, r3, #30
 8002ff0:	d550      	bpl.n	8003094 <HAL_RCCEx_PeriphCLKConfig+0x5a8>
 8002ff2:	6fab      	ldr	r3, [r5, #120]	; 0x78
 8002ff4:	2b05      	cmp	r3, #5
 8002ff6:	d863      	bhi.n	80030c0 <HAL_RCCEx_PeriphCLKConfig+0x5d4>
 8002ff8:	e8df f003 	tbb	[pc, r3]
 8002ffc:	445c3e44 	.word	0x445c3e44
 8003000:	4444      	.short	0x4444
 8003002:	f7fd ffbb 	bl	8000f7c <HAL_GetTick>
 8003006:	f8df 8064 	ldr.w	r8, [pc, #100]	; 800306c <HAL_RCCEx_PeriphCLKConfig+0x580>
 800300a:	4607      	mov	r7, r0
 800300c:	f241 3988 	movw	r9, #5000	; 0x1388
 8003010:	f8d8 3070 	ldr.w	r3, [r8, #112]	; 0x70
 8003014:	079b      	lsls	r3, r3, #30
 8003016:	d4b2      	bmi.n	8002f7e <HAL_RCCEx_PeriphCLKConfig+0x492>
 8003018:	f7fd ffb0 	bl	8000f7c <HAL_GetTick>
 800301c:	1bc0      	subs	r0, r0, r7
 800301e:	4548      	cmp	r0, r9
 8003020:	d9f6      	bls.n	8003010 <HAL_RCCEx_PeriphCLKConfig+0x524>
 8003022:	e7d5      	b.n	8002fd0 <HAL_RCCEx_PeriphCLKConfig+0x4e4>
 8003024:	690a      	ldr	r2, [r1, #16]
 8003026:	f422 527c 	bic.w	r2, r2, #16128	; 0x3f00
 800302a:	e7b7      	b.n	8002f9c <HAL_RCCEx_PeriphCLKConfig+0x4b0>
 800302c:	4626      	mov	r6, r4
 800302e:	e7d1      	b.n	8002fd4 <HAL_RCCEx_PeriphCLKConfig+0x4e8>
 8003030:	f023 0208 	bic.w	r2, r3, #8
 8003034:	2a20      	cmp	r2, #32
 8003036:	d001      	beq.n	800303c <HAL_RCCEx_PeriphCLKConfig+0x550>
 8003038:	2b18      	cmp	r3, #24
 800303a:	d1d5      	bne.n	8002fe8 <HAL_RCCEx_PeriphCLKConfig+0x4fc>
 800303c:	b9a4      	cbnz	r4, 8003068 <HAL_RCCEx_PeriphCLKConfig+0x57c>
 800303e:	4a0b      	ldr	r2, [pc, #44]	; (800306c <HAL_RCCEx_PeriphCLKConfig+0x580>)
 8003040:	6fe9      	ldr	r1, [r5, #124]	; 0x7c
 8003042:	6d53      	ldr	r3, [r2, #84]	; 0x54
 8003044:	f023 0338 	bic.w	r3, r3, #56	; 0x38
 8003048:	430b      	orrs	r3, r1
 800304a:	6553      	str	r3, [r2, #84]	; 0x54
 800304c:	e7ce      	b.n	8002fec <HAL_RCCEx_PeriphCLKConfig+0x500>
 800304e:	2101      	movs	r1, #1
 8003050:	f105 0008 	add.w	r0, r5, #8
 8003054:	f7ff fc5a 	bl	800290c <RCCEx_PLL2_Config>
 8003058:	4604      	mov	r4, r0
 800305a:	e7ef      	b.n	800303c <HAL_RCCEx_PeriphCLKConfig+0x550>
 800305c:	2101      	movs	r1, #1
 800305e:	f105 0028 	add.w	r0, r5, #40	; 0x28
 8003062:	f7ff fccb 	bl	80029fc <RCCEx_PLL3_Config>
 8003066:	e7f7      	b.n	8003058 <HAL_RCCEx_PeriphCLKConfig+0x56c>
 8003068:	4626      	mov	r6, r4
 800306a:	e7bf      	b.n	8002fec <HAL_RCCEx_PeriphCLKConfig+0x500>
 800306c:	58024400 	.word	0x58024400
 8003070:	58024800 	.word	0x58024800
 8003074:	00ffffcf 	.word	0x00ffffcf
 8003078:	2101      	movs	r1, #1
 800307a:	f105 0008 	add.w	r0, r5, #8
 800307e:	f7ff fc45 	bl	800290c <RCCEx_PLL2_Config>
 8003082:	4604      	mov	r4, r0
 8003084:	b9fc      	cbnz	r4, 80030c6 <HAL_RCCEx_PeriphCLKConfig+0x5da>
 8003086:	4a11      	ldr	r2, [pc, #68]	; (80030cc <HAL_RCCEx_PeriphCLKConfig+0x5e0>)
 8003088:	6fa9      	ldr	r1, [r5, #120]	; 0x78
 800308a:	6d53      	ldr	r3, [r2, #84]	; 0x54
 800308c:	f023 0307 	bic.w	r3, r3, #7
 8003090:	430b      	orrs	r3, r1
 8003092:	6553      	str	r3, [r2, #84]	; 0x54
 8003094:	682b      	ldr	r3, [r5, #0]
 8003096:	075a      	lsls	r2, r3, #29
 8003098:	d52b      	bpl.n	80030f2 <HAL_RCCEx_PeriphCLKConfig+0x606>
 800309a:	f8d5 3094 	ldr.w	r3, [r5, #148]	; 0x94
 800309e:	2b05      	cmp	r3, #5
 80030a0:	f200 817c 	bhi.w	800339c <HAL_RCCEx_PeriphCLKConfig+0x8b0>
 80030a4:	e8df f013 	tbh	[pc, r3, lsl #1]
 80030a8:	0014001a 	.word	0x0014001a
 80030ac:	001a0174 	.word	0x001a0174
 80030b0:	001a001a 	.word	0x001a001a
 80030b4:	2101      	movs	r1, #1
 80030b6:	f105 0028 	add.w	r0, r5, #40	; 0x28
 80030ba:	f7ff fc9f 	bl	80029fc <RCCEx_PLL3_Config>
 80030be:	e7e0      	b.n	8003082 <HAL_RCCEx_PeriphCLKConfig+0x596>
 80030c0:	2601      	movs	r6, #1
 80030c2:	4634      	mov	r4, r6
 80030c4:	e7e6      	b.n	8003094 <HAL_RCCEx_PeriphCLKConfig+0x5a8>
 80030c6:	4626      	mov	r6, r4
 80030c8:	e7e4      	b.n	8003094 <HAL_RCCEx_PeriphCLKConfig+0x5a8>
 80030ca:	bf00      	nop
 80030cc:	58024400 	.word	0x58024400
 80030d0:	2101      	movs	r1, #1
 80030d2:	f105 0008 	add.w	r0, r5, #8
 80030d6:	f7ff fc19 	bl	800290c <RCCEx_PLL2_Config>
 80030da:	4604      	mov	r4, r0
 80030dc:	2c00      	cmp	r4, #0
 80030de:	f040 8160 	bne.w	80033a2 <HAL_RCCEx_PeriphCLKConfig+0x8b6>
 80030e2:	4aaa      	ldr	r2, [pc, #680]	; (800338c <HAL_RCCEx_PeriphCLKConfig+0x8a0>)
 80030e4:	f8d5 1094 	ldr.w	r1, [r5, #148]	; 0x94
 80030e8:	6d93      	ldr	r3, [r2, #88]	; 0x58
 80030ea:	f023 0307 	bic.w	r3, r3, #7
 80030ee:	430b      	orrs	r3, r1
 80030f0:	6593      	str	r3, [r2, #88]	; 0x58
 80030f2:	682b      	ldr	r3, [r5, #0]
 80030f4:	069b      	lsls	r3, r3, #26
 80030f6:	d510      	bpl.n	800311a <HAL_RCCEx_PeriphCLKConfig+0x62e>
 80030f8:	f8d5 3090 	ldr.w	r3, [r5, #144]	; 0x90
 80030fc:	f1b3 5f00 	cmp.w	r3, #536870912	; 0x20000000
 8003100:	f000 816b 	beq.w	80033da <HAL_RCCEx_PeriphCLKConfig+0x8ee>
 8003104:	f200 814f 	bhi.w	80033a6 <HAL_RCCEx_PeriphCLKConfig+0x8ba>
 8003108:	2b00      	cmp	r3, #0
 800310a:	f000 8155 	beq.w	80033b8 <HAL_RCCEx_PeriphCLKConfig+0x8cc>
 800310e:	f1b3 5f80 	cmp.w	r3, #268435456	; 0x10000000
 8003112:	f000 815b 	beq.w	80033cc <HAL_RCCEx_PeriphCLKConfig+0x8e0>
 8003116:	2601      	movs	r6, #1
 8003118:	4634      	mov	r4, r6
 800311a:	682b      	ldr	r3, [r5, #0]
 800311c:	065f      	lsls	r7, r3, #25
 800311e:	d510      	bpl.n	8003142 <HAL_RCCEx_PeriphCLKConfig+0x656>
 8003120:	f8d5 309c 	ldr.w	r3, [r5, #156]	; 0x9c
 8003124:	f5b3 6f00 	cmp.w	r3, #2048	; 0x800
 8003128:	f000 8179 	beq.w	800341e <HAL_RCCEx_PeriphCLKConfig+0x932>
 800312c:	f200 815d 	bhi.w	80033ea <HAL_RCCEx_PeriphCLKConfig+0x8fe>
 8003130:	2b00      	cmp	r3, #0
 8003132:	f000 8163 	beq.w	80033fc <HAL_RCCEx_PeriphCLKConfig+0x910>
 8003136:	f5b3 6f80 	cmp.w	r3, #1024	; 0x400
 800313a:	f000 8169 	beq.w	8003410 <HAL_RCCEx_PeriphCLKConfig+0x924>
 800313e:	2601      	movs	r6, #1
 8003140:	4634      	mov	r4, r6
 8003142:	682b      	ldr	r3, [r5, #0]
 8003144:	0618      	lsls	r0, r3, #24
 8003146:	d510      	bpl.n	800316a <HAL_RCCEx_PeriphCLKConfig+0x67e>
 8003148:	f8d5 30a0 	ldr.w	r3, [r5, #160]	; 0xa0
 800314c:	f5b3 4f80 	cmp.w	r3, #16384	; 0x4000
 8003150:	f000 8187 	beq.w	8003462 <HAL_RCCEx_PeriphCLKConfig+0x976>
 8003154:	f200 816b 	bhi.w	800342e <HAL_RCCEx_PeriphCLKConfig+0x942>
 8003158:	2b00      	cmp	r3, #0
 800315a:	f000 8171 	beq.w	8003440 <HAL_RCCEx_PeriphCLKConfig+0x954>
 800315e:	f5b3 5f00 	cmp.w	r3, #8192	; 0x2000
 8003162:	f000 8177 	beq.w	8003454 <HAL_RCCEx_PeriphCLKConfig+0x968>
 8003166:	2601      	movs	r6, #1
 8003168:	4634      	mov	r4, r6
 800316a:	682b      	ldr	r3, [r5, #0]
 800316c:	0719      	lsls	r1, r3, #28
 800316e:	d514      	bpl.n	800319a <HAL_RCCEx_PeriphCLKConfig+0x6ae>
 8003170:	f8d5 3084 	ldr.w	r3, [r5, #132]	; 0x84
 8003174:	f5b3 5f80 	cmp.w	r3, #4096	; 0x1000
 8003178:	d107      	bne.n	800318a <HAL_RCCEx_PeriphCLKConfig+0x69e>
 800317a:	2102      	movs	r1, #2
 800317c:	f105 0028 	add.w	r0, r5, #40	; 0x28
 8003180:	f7ff fc3c 	bl	80029fc <RCCEx_PLL3_Config>
 8003184:	2800      	cmp	r0, #0
 8003186:	bf18      	it	ne
 8003188:	2601      	movne	r6, #1
 800318a:	4a80      	ldr	r2, [pc, #512]	; (800338c <HAL_RCCEx_PeriphCLKConfig+0x8a0>)
 800318c:	f8d5 1084 	ldr.w	r1, [r5, #132]	; 0x84
 8003190:	6d53      	ldr	r3, [r2, #84]	; 0x54
 8003192:	f423 5340 	bic.w	r3, r3, #12288	; 0x3000
 8003196:	430b      	orrs	r3, r1
 8003198:	6553      	str	r3, [r2, #84]	; 0x54
 800319a:	682b      	ldr	r3, [r5, #0]
 800319c:	06da      	lsls	r2, r3, #27
 800319e:	d514      	bpl.n	80031ca <HAL_RCCEx_PeriphCLKConfig+0x6de>
 80031a0:	f8d5 3098 	ldr.w	r3, [r5, #152]	; 0x98
 80031a4:	f5b3 7f80 	cmp.w	r3, #256	; 0x100
 80031a8:	d107      	bne.n	80031ba <HAL_RCCEx_PeriphCLKConfig+0x6ce>
 80031aa:	2102      	movs	r1, #2
 80031ac:	f105 0028 	add.w	r0, r5, #40	; 0x28
 80031b0:	f7ff fc24 	bl	80029fc <RCCEx_PLL3_Config>
 80031b4:	2800      	cmp	r0, #0
 80031b6:	bf18      	it	ne
 80031b8:	2601      	movne	r6, #1
 80031ba:	4a74      	ldr	r2, [pc, #464]	; (800338c <HAL_RCCEx_PeriphCLKConfig+0x8a0>)
 80031bc:	f8d5 1098 	ldr.w	r1, [r5, #152]	; 0x98
 80031c0:	6d93      	ldr	r3, [r2, #88]	; 0x58
 80031c2:	f423 7340 	bic.w	r3, r3, #768	; 0x300
 80031c6:	430b      	orrs	r3, r1
 80031c8:	6593      	str	r3, [r2, #88]	; 0x58
 80031ca:	682b      	ldr	r3, [r5, #0]
 80031cc:	031b      	lsls	r3, r3, #12
 80031ce:	d51b      	bpl.n	8003208 <HAL_RCCEx_PeriphCLKConfig+0x71c>
 80031d0:	f8d5 10a4 	ldr.w	r1, [r5, #164]	; 0xa4
 80031d4:	f5b1 3f80 	cmp.w	r1, #65536	; 0x10000
 80031d8:	f000 814b 	beq.w	8003472 <HAL_RCCEx_PeriphCLKConfig+0x986>
 80031dc:	f5b1 3f00 	cmp.w	r1, #131072	; 0x20000
 80031e0:	d007      	beq.n	80031f2 <HAL_RCCEx_PeriphCLKConfig+0x706>
 80031e2:	2900      	cmp	r1, #0
 80031e4:	f040 814b 	bne.w	800347e <HAL_RCCEx_PeriphCLKConfig+0x992>
 80031e8:	f105 0008 	add.w	r0, r5, #8
 80031ec:	f7ff fb8e 	bl	800290c <RCCEx_PLL2_Config>
 80031f0:	4604      	mov	r4, r0
 80031f2:	2c00      	cmp	r4, #0
 80031f4:	f040 8146 	bne.w	8003484 <HAL_RCCEx_PeriphCLKConfig+0x998>
 80031f8:	4a64      	ldr	r2, [pc, #400]	; (800338c <HAL_RCCEx_PeriphCLKConfig+0x8a0>)
 80031fa:	f8d5 10a4 	ldr.w	r1, [r5, #164]	; 0xa4
 80031fe:	6d93      	ldr	r3, [r2, #88]	; 0x58
 8003200:	f423 3340 	bic.w	r3, r3, #196608	; 0x30000
 8003204:	430b      	orrs	r3, r1
 8003206:	6593      	str	r3, [r2, #88]	; 0x58
 8003208:	682b      	ldr	r3, [r5, #0]
 800320a:	035f      	lsls	r7, r3, #13
 800320c:	d51c      	bpl.n	8003248 <HAL_RCCEx_PeriphCLKConfig+0x75c>
 800320e:	f8d5 3088 	ldr.w	r3, [r5, #136]	; 0x88
 8003212:	f5b3 1f00 	cmp.w	r3, #2097152	; 0x200000
 8003216:	f000 8137 	beq.w	8003488 <HAL_RCCEx_PeriphCLKConfig+0x99c>
 800321a:	f5b3 1f40 	cmp.w	r3, #3145728	; 0x300000
 800321e:	d008      	beq.n	8003232 <HAL_RCCEx_PeriphCLKConfig+0x746>
 8003220:	f5b3 1f80 	cmp.w	r3, #1048576	; 0x100000
 8003224:	f040 8137 	bne.w	8003496 <HAL_RCCEx_PeriphCLKConfig+0x9aa>
 8003228:	4a58      	ldr	r2, [pc, #352]	; (800338c <HAL_RCCEx_PeriphCLKConfig+0x8a0>)
 800322a:	6ad3      	ldr	r3, [r2, #44]	; 0x2c
 800322c:	f443 3300 	orr.w	r3, r3, #131072	; 0x20000
 8003230:	62d3      	str	r3, [r2, #44]	; 0x2c
 8003232:	2c00      	cmp	r4, #0
 8003234:	f040 8132 	bne.w	800349c <HAL_RCCEx_PeriphCLKConfig+0x9b0>
 8003238:	4a54      	ldr	r2, [pc, #336]	; (800338c <HAL_RCCEx_PeriphCLKConfig+0x8a0>)
 800323a:	f8d5 1088 	ldr.w	r1, [r5, #136]	; 0x88
 800323e:	6d53      	ldr	r3, [r2, #84]	; 0x54
 8003240:	f423 1340 	bic.w	r3, r3, #3145728	; 0x300000
 8003244:	430b      	orrs	r3, r1
 8003246:	6553      	str	r3, [r2, #84]	; 0x54
 8003248:	682b      	ldr	r3, [r5, #0]
 800324a:	03d8      	lsls	r0, r3, #15
 800324c:	d509      	bpl.n	8003262 <HAL_RCCEx_PeriphCLKConfig+0x776>
 800324e:	6d2b      	ldr	r3, [r5, #80]	; 0x50
 8003250:	2b00      	cmp	r3, #0
 8003252:	f000 8125 	beq.w	80034a0 <HAL_RCCEx_PeriphCLKConfig+0x9b4>
 8003256:	f5b3 3f80 	cmp.w	r3, #65536	; 0x10000
 800325a:	f000 812f 	beq.w	80034bc <HAL_RCCEx_PeriphCLKConfig+0x9d0>
 800325e:	2601      	movs	r6, #1
 8003260:	4634      	mov	r4, r6
 8003262:	682b      	ldr	r3, [r5, #0]
 8003264:	0099      	lsls	r1, r3, #2
 8003266:	d507      	bpl.n	8003278 <HAL_RCCEx_PeriphCLKConfig+0x78c>
 8003268:	2102      	movs	r1, #2
 800326a:	f105 0028 	add.w	r0, r5, #40	; 0x28
 800326e:	f7ff fbc5 	bl	80029fc <RCCEx_PLL3_Config>
 8003272:	2800      	cmp	r0, #0
 8003274:	bf18      	it	ne
 8003276:	2601      	movne	r6, #1
 8003278:	e9d5 3100 	ldrd	r3, r1, [r5]
 800327c:	039a      	lsls	r2, r3, #14
 800327e:	d50b      	bpl.n	8003298 <HAL_RCCEx_PeriphCLKConfig+0x7ac>
 8003280:	f8d5 0080 	ldr.w	r0, [r5, #128]	; 0x80
 8003284:	f5b0 7f80 	cmp.w	r0, #256	; 0x100
 8003288:	f000 812f 	beq.w	80034ea <HAL_RCCEx_PeriphCLKConfig+0x9fe>
 800328c:	f200 811f 	bhi.w	80034ce <HAL_RCCEx_PeriphCLKConfig+0x9e2>
 8003290:	2800      	cmp	r0, #0
 8003292:	f000 8122 	beq.w	80034da <HAL_RCCEx_PeriphCLKConfig+0x9ee>
 8003296:	2601      	movs	r6, #1
 8003298:	02df      	lsls	r7, r3, #11
 800329a:	d506      	bpl.n	80032aa <HAL_RCCEx_PeriphCLKConfig+0x7be>
 800329c:	483b      	ldr	r0, [pc, #236]	; (800338c <HAL_RCCEx_PeriphCLKConfig+0x8a0>)
 800329e:	6f6c      	ldr	r4, [r5, #116]	; 0x74
 80032a0:	6d02      	ldr	r2, [r0, #80]	; 0x50
 80032a2:	f022 4200 	bic.w	r2, r2, #2147483648	; 0x80000000
 80032a6:	4322      	orrs	r2, r4
 80032a8:	6502      	str	r2, [r0, #80]	; 0x50
 80032aa:	00dc      	lsls	r4, r3, #3
 80032ac:	d507      	bpl.n	80032be <HAL_RCCEx_PeriphCLKConfig+0x7d2>
 80032ae:	4837      	ldr	r0, [pc, #220]	; (800338c <HAL_RCCEx_PeriphCLKConfig+0x8a0>)
 80032b0:	f8d5 40b8 	ldr.w	r4, [r5, #184]	; 0xb8
 80032b4:	6902      	ldr	r2, [r0, #16]
 80032b6:	f422 4280 	bic.w	r2, r2, #16384	; 0x4000
 80032ba:	4322      	orrs	r2, r4
 80032bc:	6102      	str	r2, [r0, #16]
 80032be:	0298      	lsls	r0, r3, #10
 80032c0:	d506      	bpl.n	80032d0 <HAL_RCCEx_PeriphCLKConfig+0x7e4>
 80032c2:	4832      	ldr	r0, [pc, #200]	; (800338c <HAL_RCCEx_PeriphCLKConfig+0x8a0>)
 80032c4:	6eec      	ldr	r4, [r5, #108]	; 0x6c
 80032c6:	6d02      	ldr	r2, [r0, #80]	; 0x50
 80032c8:	f022 7280 	bic.w	r2, r2, #16777216	; 0x1000000
 80032cc:	4322      	orrs	r2, r4
 80032ce:	6502      	str	r2, [r0, #80]	; 0x50
 80032d0:	005a      	lsls	r2, r3, #1
 80032d2:	d509      	bpl.n	80032e8 <HAL_RCCEx_PeriphCLKConfig+0x7fc>
 80032d4:	4a2d      	ldr	r2, [pc, #180]	; (800338c <HAL_RCCEx_PeriphCLKConfig+0x8a0>)
 80032d6:	6910      	ldr	r0, [r2, #16]
 80032d8:	f420 4000 	bic.w	r0, r0, #32768	; 0x8000
 80032dc:	6110      	str	r0, [r2, #16]
 80032de:	6910      	ldr	r0, [r2, #16]
 80032e0:	f8d5 40bc 	ldr.w	r4, [r5, #188]	; 0xbc
 80032e4:	4320      	orrs	r0, r4
 80032e6:	6110      	str	r0, [r2, #16]
 80032e8:	2b00      	cmp	r3, #0
 80032ea:	da06      	bge.n	80032fa <HAL_RCCEx_PeriphCLKConfig+0x80e>
 80032ec:	4827      	ldr	r0, [pc, #156]	; (800338c <HAL_RCCEx_PeriphCLKConfig+0x8a0>)
 80032ee:	6d6c      	ldr	r4, [r5, #84]	; 0x54
 80032f0:	6cc2      	ldr	r2, [r0, #76]	; 0x4c
 80032f2:	f022 5240 	bic.w	r2, r2, #805306368	; 0x30000000
 80032f6:	4322      	orrs	r2, r4
 80032f8:	64c2      	str	r2, [r0, #76]	; 0x4c
 80032fa:	021b      	lsls	r3, r3, #8
 80032fc:	d507      	bpl.n	800330e <HAL_RCCEx_PeriphCLKConfig+0x822>
 80032fe:	4a23      	ldr	r2, [pc, #140]	; (800338c <HAL_RCCEx_PeriphCLKConfig+0x8a0>)
 8003300:	f8d5 008c 	ldr.w	r0, [r5, #140]	; 0x8c
 8003304:	6d53      	ldr	r3, [r2, #84]	; 0x54
 8003306:	f423 0340 	bic.w	r3, r3, #12582912	; 0xc00000
 800330a:	4303      	orrs	r3, r0
 800330c:	6553      	str	r3, [r2, #84]	; 0x54
 800330e:	07cf      	lsls	r7, r1, #31
 8003310:	d507      	bpl.n	8003322 <HAL_RCCEx_PeriphCLKConfig+0x836>
 8003312:	2100      	movs	r1, #0
 8003314:	f105 0008 	add.w	r0, r5, #8
 8003318:	f7ff faf8 	bl	800290c <RCCEx_PLL2_Config>
 800331c:	2800      	cmp	r0, #0
 800331e:	bf18      	it	ne
 8003320:	4606      	movne	r6, r0
 8003322:	686b      	ldr	r3, [r5, #4]
 8003324:	079c      	lsls	r4, r3, #30
 8003326:	d507      	bpl.n	8003338 <HAL_RCCEx_PeriphCLKConfig+0x84c>
 8003328:	2101      	movs	r1, #1
 800332a:	f105 0008 	add.w	r0, r5, #8
 800332e:	f7ff faed 	bl	800290c <RCCEx_PLL2_Config>
 8003332:	2800      	cmp	r0, #0
 8003334:	bf18      	it	ne
 8003336:	4606      	movne	r6, r0
 8003338:	686b      	ldr	r3, [r5, #4]
 800333a:	0758      	lsls	r0, r3, #29
 800333c:	d507      	bpl.n	800334e <HAL_RCCEx_PeriphCLKConfig+0x862>
 800333e:	2102      	movs	r1, #2
 8003340:	f105 0008 	add.w	r0, r5, #8
 8003344:	f7ff fae2 	bl	800290c <RCCEx_PLL2_Config>
 8003348:	2800      	cmp	r0, #0
 800334a:	bf18      	it	ne
 800334c:	4606      	movne	r6, r0
 800334e:	686b      	ldr	r3, [r5, #4]
 8003350:	0719      	lsls	r1, r3, #28
 8003352:	d507      	bpl.n	8003364 <HAL_RCCEx_PeriphCLKConfig+0x878>
 8003354:	2100      	movs	r1, #0
 8003356:	f105 0028 	add.w	r0, r5, #40	; 0x28
 800335a:	f7ff fb4f 	bl	80029fc <RCCEx_PLL3_Config>
 800335e:	2800      	cmp	r0, #0
 8003360:	bf18      	it	ne
 8003362:	4606      	movne	r6, r0
 8003364:	686b      	ldr	r3, [r5, #4]
 8003366:	06da      	lsls	r2, r3, #27
 8003368:	d507      	bpl.n	800337a <HAL_RCCEx_PeriphCLKConfig+0x88e>
 800336a:	2101      	movs	r1, #1
 800336c:	f105 0028 	add.w	r0, r5, #40	; 0x28
 8003370:	f7ff fb44 	bl	80029fc <RCCEx_PLL3_Config>
 8003374:	2800      	cmp	r0, #0
 8003376:	bf18      	it	ne
 8003378:	4606      	movne	r6, r0
 800337a:	686b      	ldr	r3, [r5, #4]
 800337c:	069b      	lsls	r3, r3, #26
 800337e:	f100 80bc 	bmi.w	80034fa <HAL_RCCEx_PeriphCLKConfig+0xa0e>
 8003382:	1e30      	subs	r0, r6, #0
 8003384:	bf18      	it	ne
 8003386:	2001      	movne	r0, #1
 8003388:	e8bd 83f8 	ldmia.w	sp!, {r3, r4, r5, r6, r7, r8, r9, pc}
 800338c:	58024400 	.word	0x58024400
 8003390:	2101      	movs	r1, #1
 8003392:	f105 0028 	add.w	r0, r5, #40	; 0x28
 8003396:	f7ff fb31 	bl	80029fc <RCCEx_PLL3_Config>
 800339a:	e69e      	b.n	80030da <HAL_RCCEx_PeriphCLKConfig+0x5ee>
 800339c:	2601      	movs	r6, #1
 800339e:	4634      	mov	r4, r6
 80033a0:	e6a7      	b.n	80030f2 <HAL_RCCEx_PeriphCLKConfig+0x606>
 80033a2:	4626      	mov	r6, r4
 80033a4:	e6a5      	b.n	80030f2 <HAL_RCCEx_PeriphCLKConfig+0x606>
 80033a6:	f023 5280 	bic.w	r2, r3, #268435456	; 0x10000000
 80033aa:	f1b2 4f80 	cmp.w	r2, #1073741824	; 0x40000000
 80033ae:	d003      	beq.n	80033b8 <HAL_RCCEx_PeriphCLKConfig+0x8cc>
 80033b0:	f1b3 5f40 	cmp.w	r3, #805306368	; 0x30000000
 80033b4:	f47f aeaf 	bne.w	8003116 <HAL_RCCEx_PeriphCLKConfig+0x62a>
 80033b8:	b9ac      	cbnz	r4, 80033e6 <HAL_RCCEx_PeriphCLKConfig+0x8fa>
 80033ba:	4a55      	ldr	r2, [pc, #340]	; (8003510 <HAL_RCCEx_PeriphCLKConfig+0xa24>)
 80033bc:	f8d5 1090 	ldr.w	r1, [r5, #144]	; 0x90
 80033c0:	6d53      	ldr	r3, [r2, #84]	; 0x54
 80033c2:	f023 43e0 	bic.w	r3, r3, #1879048192	; 0x70000000
 80033c6:	430b      	orrs	r3, r1
 80033c8:	6553      	str	r3, [r2, #84]	; 0x54
 80033ca:	e6a6      	b.n	800311a <HAL_RCCEx_PeriphCLKConfig+0x62e>
 80033cc:	2100      	movs	r1, #0
 80033ce:	f105 0008 	add.w	r0, r5, #8
 80033d2:	f7ff fa9b 	bl	800290c <RCCEx_PLL2_Config>
 80033d6:	4604      	mov	r4, r0
 80033d8:	e7ee      	b.n	80033b8 <HAL_RCCEx_PeriphCLKConfig+0x8cc>
 80033da:	2102      	movs	r1, #2
 80033dc:	f105 0028 	add.w	r0, r5, #40	; 0x28
 80033e0:	f7ff fb0c 	bl	80029fc <RCCEx_PLL3_Config>
 80033e4:	e7f7      	b.n	80033d6 <HAL_RCCEx_PeriphCLKConfig+0x8ea>
 80033e6:	4626      	mov	r6, r4
 80033e8:	e697      	b.n	800311a <HAL_RCCEx_PeriphCLKConfig+0x62e>
 80033ea:	f423 6280 	bic.w	r2, r3, #1024	; 0x400
 80033ee:	f5b2 5f80 	cmp.w	r2, #4096	; 0x1000
 80033f2:	d003      	beq.n	80033fc <HAL_RCCEx_PeriphCLKConfig+0x910>
 80033f4:	f5b3 6f40 	cmp.w	r3, #3072	; 0xc00
 80033f8:	f47f aea1 	bne.w	800313e <HAL_RCCEx_PeriphCLKConfig+0x652>
 80033fc:	b9ac      	cbnz	r4, 800342a <HAL_RCCEx_PeriphCLKConfig+0x93e>
 80033fe:	4a44      	ldr	r2, [pc, #272]	; (8003510 <HAL_RCCEx_PeriphCLKConfig+0xa24>)
 8003400:	f8d5 109c 	ldr.w	r1, [r5, #156]	; 0x9c
 8003404:	6d93      	ldr	r3, [r2, #88]	; 0x58
 8003406:	f423 53e0 	bic.w	r3, r3, #7168	; 0x1c00
 800340a:	430b      	orrs	r3, r1
 800340c:	6593      	str	r3, [r2, #88]	; 0x58
 800340e:	e698      	b.n	8003142 <HAL_RCCEx_PeriphCLKConfig+0x656>
 8003410:	2100      	movs	r1, #0
 8003412:	f105 0008 	add.w	r0, r5, #8
 8003416:	f7ff fa79 	bl	800290c <RCCEx_PLL2_Config>
 800341a:	4604      	mov	r4, r0
 800341c:	e7ee      	b.n	80033fc <HAL_RCCEx_PeriphCLKConfig+0x910>
 800341e:	2102      	movs	r1, #2
 8003420:	f105 0028 	add.w	r0, r5, #40	; 0x28
 8003424:	f7ff faea 	bl	80029fc <RCCEx_PLL3_Config>
 8003428:	e7f7      	b.n	800341a <HAL_RCCEx_PeriphCLKConfig+0x92e>
 800342a:	4626      	mov	r6, r4
 800342c:	e689      	b.n	8003142 <HAL_RCCEx_PeriphCLKConfig+0x656>
 800342e:	f423 5200 	bic.w	r2, r3, #8192	; 0x2000
 8003432:	f5b2 4f00 	cmp.w	r2, #32768	; 0x8000
 8003436:	d003      	beq.n	8003440 <HAL_RCCEx_PeriphCLKConfig+0x954>
 8003438:	f5b3 4fc0 	cmp.w	r3, #24576	; 0x6000
 800343c:	f47f ae93 	bne.w	8003166 <HAL_RCCEx_PeriphCLKConfig+0x67a>
 8003440:	b9ac      	cbnz	r4, 800346e <HAL_RCCEx_PeriphCLKConfig+0x982>
 8003442:	4a33      	ldr	r2, [pc, #204]	; (8003510 <HAL_RCCEx_PeriphCLKConfig+0xa24>)
 8003444:	f8d5 10a0 	ldr.w	r1, [r5, #160]	; 0xa0
 8003448:	6d93      	ldr	r3, [r2, #88]	; 0x58
 800344a:	f423 4360 	bic.w	r3, r3, #57344	; 0xe000
 800344e:	430b      	orrs	r3, r1
 8003450:	6593      	str	r3, [r2, #88]	; 0x58
 8003452:	e68a      	b.n	800316a <HAL_RCCEx_PeriphCLKConfig+0x67e>
 8003454:	2100      	movs	r1, #0
 8003456:	f105 0008 	add.w	r0, r5, #8
 800345a:	f7ff fa57 	bl	800290c <RCCEx_PLL2_Config>
 800345e:	4604      	mov	r4, r0
 8003460:	e7ee      	b.n	8003440 <HAL_RCCEx_PeriphCLKConfig+0x954>
 8003462:	2102      	movs	r1, #2
 8003464:	f105 0028 	add.w	r0, r5, #40	; 0x28
 8003468:	f7ff fac8 	bl	80029fc <RCCEx_PLL3_Config>
 800346c:	e7f7      	b.n	800345e <HAL_RCCEx_PeriphCLKConfig+0x972>
 800346e:	4626      	mov	r6, r4
 8003470:	e67b      	b.n	800316a <HAL_RCCEx_PeriphCLKConfig+0x67e>
 8003472:	2102      	movs	r1, #2
 8003474:	f105 0028 	add.w	r0, r5, #40	; 0x28
 8003478:	f7ff fac0 	bl	80029fc <RCCEx_PLL3_Config>
 800347c:	e6b8      	b.n	80031f0 <HAL_RCCEx_PeriphCLKConfig+0x704>
 800347e:	2601      	movs	r6, #1
 8003480:	4634      	mov	r4, r6
 8003482:	e6c1      	b.n	8003208 <HAL_RCCEx_PeriphCLKConfig+0x71c>
 8003484:	4626      	mov	r6, r4
 8003486:	e6bf      	b.n	8003208 <HAL_RCCEx_PeriphCLKConfig+0x71c>
 8003488:	2101      	movs	r1, #1
 800348a:	f105 0028 	add.w	r0, r5, #40	; 0x28
 800348e:	f7ff fab5 	bl	80029fc <RCCEx_PLL3_Config>
 8003492:	4604      	mov	r4, r0
 8003494:	e6cd      	b.n	8003232 <HAL_RCCEx_PeriphCLKConfig+0x746>
 8003496:	2601      	movs	r6, #1
 8003498:	4634      	mov	r4, r6
 800349a:	e6d5      	b.n	8003248 <HAL_RCCEx_PeriphCLKConfig+0x75c>
 800349c:	4626      	mov	r6, r4
 800349e:	e6d3      	b.n	8003248 <HAL_RCCEx_PeriphCLKConfig+0x75c>
 80034a0:	4a1b      	ldr	r2, [pc, #108]	; (8003510 <HAL_RCCEx_PeriphCLKConfig+0xa24>)
 80034a2:	6ad3      	ldr	r3, [r2, #44]	; 0x2c
 80034a4:	f443 3300 	orr.w	r3, r3, #131072	; 0x20000
 80034a8:	62d3      	str	r3, [r2, #44]	; 0x2c
 80034aa:	b974      	cbnz	r4, 80034ca <HAL_RCCEx_PeriphCLKConfig+0x9de>
 80034ac:	4a18      	ldr	r2, [pc, #96]	; (8003510 <HAL_RCCEx_PeriphCLKConfig+0xa24>)
 80034ae:	6d29      	ldr	r1, [r5, #80]	; 0x50
 80034b0:	6cd3      	ldr	r3, [r2, #76]	; 0x4c
 80034b2:	f423 3380 	bic.w	r3, r3, #65536	; 0x10000
 80034b6:	430b      	orrs	r3, r1
 80034b8:	64d3      	str	r3, [r2, #76]	; 0x4c
 80034ba:	e6d2      	b.n	8003262 <HAL_RCCEx_PeriphCLKConfig+0x776>
 80034bc:	2102      	movs	r1, #2
 80034be:	f105 0008 	add.w	r0, r5, #8
 80034c2:	f7ff fa23 	bl	800290c <RCCEx_PLL2_Config>
 80034c6:	4604      	mov	r4, r0
 80034c8:	e7ef      	b.n	80034aa <HAL_RCCEx_PeriphCLKConfig+0x9be>
 80034ca:	4626      	mov	r6, r4
 80034cc:	e6c9      	b.n	8003262 <HAL_RCCEx_PeriphCLKConfig+0x776>
 80034ce:	f420 7280 	bic.w	r2, r0, #256	; 0x100
 80034d2:	f5b2 7f00 	cmp.w	r2, #512	; 0x200
 80034d6:	f47f aede 	bne.w	8003296 <HAL_RCCEx_PeriphCLKConfig+0x7aa>
 80034da:	b964      	cbnz	r4, 80034f6 <HAL_RCCEx_PeriphCLKConfig+0xa0a>
 80034dc:	4c0c      	ldr	r4, [pc, #48]	; (8003510 <HAL_RCCEx_PeriphCLKConfig+0xa24>)
 80034de:	6d62      	ldr	r2, [r4, #84]	; 0x54
 80034e0:	f422 7240 	bic.w	r2, r2, #768	; 0x300
 80034e4:	4302      	orrs	r2, r0
 80034e6:	6562      	str	r2, [r4, #84]	; 0x54
 80034e8:	e6d6      	b.n	8003298 <HAL_RCCEx_PeriphCLKConfig+0x7ac>
 80034ea:	4f09      	ldr	r7, [pc, #36]	; (8003510 <HAL_RCCEx_PeriphCLKConfig+0xa24>)
 80034ec:	6afa      	ldr	r2, [r7, #44]	; 0x2c
 80034ee:	f442 3200 	orr.w	r2, r2, #131072	; 0x20000
 80034f2:	62fa      	str	r2, [r7, #44]	; 0x2c
 80034f4:	e7f1      	b.n	80034da <HAL_RCCEx_PeriphCLKConfig+0x9ee>
 80034f6:	4626      	mov	r6, r4
 80034f8:	e6ce      	b.n	8003298 <HAL_RCCEx_PeriphCLKConfig+0x7ac>
 80034fa:	2102      	movs	r1, #2
 80034fc:	f105 0028 	add.w	r0, r5, #40	; 0x28
 8003500:	f7ff fa7c 	bl	80029fc <RCCEx_PLL3_Config>
 8003504:	2800      	cmp	r0, #0
 8003506:	f43f af3c 	beq.w	8003382 <HAL_RCCEx_PeriphCLKConfig+0x896>
 800350a:	2001      	movs	r0, #1
 800350c:	e73c      	b.n	8003388 <HAL_RCCEx_PeriphCLKConfig+0x89c>
 800350e:	bf00      	nop
 8003510:	58024400 	.word	0x58024400

08003514 <HAL_RCCEx_GetD3PCLK1Freq>:
 8003514:	b508      	push	{r3, lr}
 8003516:	f7ff f989 	bl	800282c <HAL_RCC_GetHCLKFreq>
 800351a:	4b05      	ldr	r3, [pc, #20]	; (8003530 <HAL_RCCEx_GetD3PCLK1Freq+0x1c>)
 800351c:	4a05      	ldr	r2, [pc, #20]	; (8003534 <HAL_RCCEx_GetD3PCLK1Freq+0x20>)
 800351e:	6a1b      	ldr	r3, [r3, #32]
 8003520:	f3c3 1302 	ubfx	r3, r3, #4, #3
 8003524:	5cd3      	ldrb	r3, [r2, r3]
 8003526:	f003 031f 	and.w	r3, r3, #31
 800352a:	40d8      	lsrs	r0, r3
 800352c:	bd08      	pop	{r3, pc}
 800352e:	bf00      	nop
 8003530:	58024400 	.word	0x58024400
 8003534:	08007718 	.word	0x08007718

08003538 <HAL_RCCEx_GetPLL2ClockFreq>:
 8003538:	494f      	ldr	r1, [pc, #316]	; (8003678 <HAL_RCCEx_GetPLL2ClockFreq+0x140>)
 800353a:	b570      	push	{r4, r5, r6, lr}
 800353c:	6a8c      	ldr	r4, [r1, #40]	; 0x28
 800353e:	6a8e      	ldr	r6, [r1, #40]	; 0x28
 8003540:	6acd      	ldr	r5, [r1, #44]	; 0x2c
 8003542:	f416 3f7c 	tst.w	r6, #258048	; 0x3f000
 8003546:	f3c6 3305 	ubfx	r3, r6, #12, #6
 800354a:	6bca      	ldr	r2, [r1, #60]	; 0x3c
 800354c:	f000 8090 	beq.w	8003670 <HAL_RCCEx_GetPLL2ClockFreq+0x138>
 8003550:	ee07 3a90 	vmov	s15, r3
 8003554:	f3c2 03cc 	ubfx	r3, r2, #3, #13
 8003558:	f3c5 1200 	ubfx	r2, r5, #4, #1
 800355c:	f004 0403 	and.w	r4, r4, #3
 8003560:	eeb8 7ae7 	vcvt.f32.s32	s14, s15
 8003564:	4353      	muls	r3, r2
 8003566:	2c01      	cmp	r4, #1
 8003568:	eeb7 6a00 	vmov.f32	s12, #112	; 0x3f800000  1.0
 800356c:	ee06 3a90 	vmov	s13, r3
 8003570:	eefa 6ae9 	vcvt.f32.s32	s13, s13, #13
 8003574:	d06e      	beq.n	8003654 <HAL_RCCEx_GetPLL2ClockFreq+0x11c>
 8003576:	2c02      	cmp	r4, #2
 8003578:	d05e      	beq.n	8003638 <HAL_RCCEx_GetPLL2ClockFreq+0x100>
 800357a:	2c00      	cmp	r4, #0
 800357c:	d16a      	bne.n	8003654 <HAL_RCCEx_GetPLL2ClockFreq+0x11c>
 800357e:	680b      	ldr	r3, [r1, #0]
 8003580:	069b      	lsls	r3, r3, #26
 8003582:	d547      	bpl.n	8003614 <HAL_RCCEx_GetPLL2ClockFreq+0xdc>
 8003584:	680a      	ldr	r2, [r1, #0]
 8003586:	6b8b      	ldr	r3, [r1, #56]	; 0x38
 8003588:	f3c2 01c1 	ubfx	r1, r2, #3, #2
 800358c:	4a3b      	ldr	r2, [pc, #236]	; (800367c <HAL_RCCEx_GetPLL2ClockFreq+0x144>)
 800358e:	f3c3 0308 	ubfx	r3, r3, #0, #9
 8003592:	40ca      	lsrs	r2, r1
 8003594:	ee07 2a90 	vmov	s15, r2
 8003598:	eef8 5ae7 	vcvt.f32.s32	s11, s15
 800359c:	eec5 7a87 	vdiv.f32	s15, s11, s14
 80035a0:	ee07 3a10 	vmov	s14, r3
 80035a4:	eeb8 7ac7 	vcvt.f32.s32	s14, s14
 80035a8:	ee37 7a26 	vadd.f32	s14, s14, s13
 80035ac:	ee37 7a06 	vadd.f32	s14, s14, s12
 80035b0:	ee67 7a87 	vmul.f32	s15, s15, s14
 80035b4:	4a30      	ldr	r2, [pc, #192]	; (8003678 <HAL_RCCEx_GetPLL2ClockFreq+0x140>)
 80035b6:	6b93      	ldr	r3, [r2, #56]	; 0x38
 80035b8:	f3c3 2346 	ubfx	r3, r3, #9, #7
 80035bc:	ee07 3a10 	vmov	s14, r3
 80035c0:	eeb8 7ac7 	vcvt.f32.s32	s14, s14
 80035c4:	ee37 7a06 	vadd.f32	s14, s14, s12
 80035c8:	eec7 6a87 	vdiv.f32	s13, s15, s14
 80035cc:	eefc 6ae6 	vcvt.u32.f32	s13, s13
 80035d0:	edc0 6a00 	vstr	s13, [r0]
 80035d4:	6b93      	ldr	r3, [r2, #56]	; 0x38
 80035d6:	f3c3 4306 	ubfx	r3, r3, #16, #7
 80035da:	ee07 3a10 	vmov	s14, r3
 80035de:	eeb8 7ac7 	vcvt.f32.s32	s14, s14
 80035e2:	ee37 7a06 	vadd.f32	s14, s14, s12
 80035e6:	eec7 6a87 	vdiv.f32	s13, s15, s14
 80035ea:	eefc 6ae6 	vcvt.u32.f32	s13, s13
 80035ee:	edc0 6a01 	vstr	s13, [r0, #4]
 80035f2:	6b93      	ldr	r3, [r2, #56]	; 0x38
 80035f4:	f3c3 6306 	ubfx	r3, r3, #24, #7
 80035f8:	ee06 3a90 	vmov	s13, r3
 80035fc:	eef8 6ae6 	vcvt.f32.s32	s13, s13
 8003600:	ee76 6a86 	vadd.f32	s13, s13, s12
 8003604:	ee87 7aa6 	vdiv.f32	s14, s15, s13
 8003608:	eefc 7ac7 	vcvt.u32.f32	s15, s14
 800360c:	ee17 3a90 	vmov	r3, s15
 8003610:	6083      	str	r3, [r0, #8]
 8003612:	bd70      	pop	{r4, r5, r6, pc}
 8003614:	6b8b      	ldr	r3, [r1, #56]	; 0x38
 8003616:	eddf 5a1a 	vldr	s11, [pc, #104]	; 8003680 <HAL_RCCEx_GetPLL2ClockFreq+0x148>
 800361a:	f3c3 0308 	ubfx	r3, r3, #0, #9
 800361e:	ee07 3a90 	vmov	s15, r3
 8003622:	eef8 7ae7 	vcvt.f32.s32	s15, s15
 8003626:	ee77 7aa6 	vadd.f32	s15, s15, s13
 800362a:	ee77 7a86 	vadd.f32	s15, s15, s12
 800362e:	eec5 6a87 	vdiv.f32	s13, s11, s14
 8003632:	ee67 7aa6 	vmul.f32	s15, s15, s13
 8003636:	e7bd      	b.n	80035b4 <HAL_RCCEx_GetPLL2ClockFreq+0x7c>
 8003638:	6b8b      	ldr	r3, [r1, #56]	; 0x38
 800363a:	eddf 5a12 	vldr	s11, [pc, #72]	; 8003684 <HAL_RCCEx_GetPLL2ClockFreq+0x14c>
 800363e:	f3c3 0308 	ubfx	r3, r3, #0, #9
 8003642:	ee07 3a90 	vmov	s15, r3
 8003646:	eef8 7ae7 	vcvt.f32.s32	s15, s15
 800364a:	ee77 7aa6 	vadd.f32	s15, s15, s13
 800364e:	ee77 7a86 	vadd.f32	s15, s15, s12
 8003652:	e7ec      	b.n	800362e <HAL_RCCEx_GetPLL2ClockFreq+0xf6>
 8003654:	6b8b      	ldr	r3, [r1, #56]	; 0x38
 8003656:	eddf 5a0c 	vldr	s11, [pc, #48]	; 8003688 <HAL_RCCEx_GetPLL2ClockFreq+0x150>
 800365a:	f3c3 0308 	ubfx	r3, r3, #0, #9
 800365e:	ee07 3a90 	vmov	s15, r3
 8003662:	eef8 7ae7 	vcvt.f32.s32	s15, s15
 8003666:	ee77 7aa6 	vadd.f32	s15, s15, s13
 800366a:	ee77 7a86 	vadd.f32	s15, s15, s12
 800366e:	e7de      	b.n	800362e <HAL_RCCEx_GetPLL2ClockFreq+0xf6>
 8003670:	e9c0 3300 	strd	r3, r3, [r0]
 8003674:	e7cc      	b.n	8003610 <HAL_RCCEx_GetPLL2ClockFreq+0xd8>
 8003676:	bf00      	nop
 8003678:	58024400 	.word	0x58024400
 800367c:	03d09000 	.word	0x03d09000
 8003680:	4c742400 	.word	0x4c742400
 8003684:	4af42400 	.word	0x4af42400
 8003688:	4a742400 	.word	0x4a742400

0800368c <HAL_RCCEx_GetPLL3ClockFreq>:
 800368c:	494f      	ldr	r1, [pc, #316]	; (80037cc <HAL_RCCEx_GetPLL3ClockFreq+0x140>)
 800368e:	b570      	push	{r4, r5, r6, lr}
 8003690:	6a8c      	ldr	r4, [r1, #40]	; 0x28
 8003692:	6a8e      	ldr	r6, [r1, #40]	; 0x28
 8003694:	6acd      	ldr	r5, [r1, #44]	; 0x2c
 8003696:	f016 7f7c 	tst.w	r6, #66060288	; 0x3f00000
 800369a:	f3c6 5305 	ubfx	r3, r6, #20, #6
 800369e:	6c4a      	ldr	r2, [r1, #68]	; 0x44
 80036a0:	f000 8090 	beq.w	80037c4 <HAL_RCCEx_GetPLL3ClockFreq+0x138>
 80036a4:	ee07 3a90 	vmov	s15, r3
 80036a8:	f3c2 03cc 	ubfx	r3, r2, #3, #13
 80036ac:	f3c5 2200 	ubfx	r2, r5, #8, #1
 80036b0:	f004 0403 	and.w	r4, r4, #3
 80036b4:	eeb8 7ae7 	vcvt.f32.s32	s14, s15
 80036b8:	4353      	muls	r3, r2
 80036ba:	2c01      	cmp	r4, #1
 80036bc:	eeb7 6a00 	vmov.f32	s12, #112	; 0x3f800000  1.0
 80036c0:	ee06 3a90 	vmov	s13, r3
 80036c4:	eefa 6ae9 	vcvt.f32.s32	s13, s13, #13
 80036c8:	d06e      	beq.n	80037a8 <HAL_RCCEx_GetPLL3ClockFreq+0x11c>
 80036ca:	2c02      	cmp	r4, #2
 80036cc:	d05e      	beq.n	800378c <HAL_RCCEx_GetPLL3ClockFreq+0x100>
 80036ce:	2c00      	cmp	r4, #0
 80036d0:	d16a      	bne.n	80037a8 <HAL_RCCEx_GetPLL3ClockFreq+0x11c>
 80036d2:	680b      	ldr	r3, [r1, #0]
 80036d4:	069b      	lsls	r3, r3, #26
 80036d6:	d547      	bpl.n	8003768 <HAL_RCCEx_GetPLL3ClockFreq+0xdc>
 80036d8:	680a      	ldr	r2, [r1, #0]
 80036da:	6c0b      	ldr	r3, [r1, #64]	; 0x40
 80036dc:	f3c2 01c1 	ubfx	r1, r2, #3, #2
 80036e0:	4a3b      	ldr	r2, [pc, #236]	; (80037d0 <HAL_RCCEx_GetPLL3ClockFreq+0x144>)
 80036e2:	f3c3 0308 	ubfx	r3, r3, #0, #9
 80036e6:	40ca      	lsrs	r2, r1
 80036e8:	ee07 2a90 	vmov	s15, r2
 80036ec:	eef8 5ae7 	vcvt.f32.s32	s11, s15
 80036f0:	eec5 7a87 	vdiv.f32	s15, s11, s14
 80036f4:	ee07 3a10 	vmov	s14, r3
 80036f8:	eeb8 7ac7 	vcvt.f32.s32	s14, s14
 80036fc:	ee37 7a26 	vadd.f32	s14, s14, s13
 8003700:	ee37 7a06 	vadd.f32	s14, s14, s12
 8003704:	ee67 7a87 	vmul.f32	s15, s15, s14
 8003708:	4a30      	ldr	r2, [pc, #192]	; (80037cc <HAL_RCCEx_GetPLL3ClockFreq+0x140>)
 800370a:	6c13      	ldr	r3, [r2, #64]	; 0x40
 800370c:	f3c3 2346 	ubfx	r3, r3, #9, #7
 8003710:	ee07 3a10 	vmov	s14, r3
 8003714:	eeb8 7ac7 	vcvt.f32.s32	s14, s14
 8003718:	ee37 7a06 	vadd.f32	s14, s14, s12
 800371c:	eec7 6a87 	vdiv.f32	s13, s15, s14
 8003720:	eefc 6ae6 	vcvt.u32.f32	s13, s13
 8003724:	edc0 6a00 	vstr	s13, [r0]
 8003728:	6c13      	ldr	r3, [r2, #64]	; 0x40
 800372a:	f3c3 4306 	ubfx	r3, r3, #16, #7
 800372e:	ee07 3a10 	vmov	s14, r3
 8003732:	eeb8 7ac7 	vcvt.f32.s32	s14, s14
 8003736:	ee37 7a06 	vadd.f32	s14, s14, s12
 800373a:	eec7 6a87 	vdiv.f32	s13, s15, s14
 800373e:	eefc 6ae6 	vcvt.u32.f32	s13, s13
 8003742:	edc0 6a01 	vstr	s13, [r0, #4]
 8003746:	6c13      	ldr	r3, [r2, #64]	; 0x40
 8003748:	f3c3 6306 	ubfx	r3, r3, #24, #7
 800374c:	ee06 3a90 	vmov	s13, r3
 8003750:	eef8 6ae6 	vcvt.f32.s32	s13, s13
 8003754:	ee76 6a86 	vadd.f32	s13, s13, s12
 8003758:	ee87 7aa6 	vdiv.f32	s14, s15, s13
 800375c:	eefc 7ac7 	vcvt.u32.f32	s15, s14
 8003760:	ee17 3a90 	vmov	r3, s15
 8003764:	6083      	str	r3, [r0, #8]
 8003766:	bd70      	pop	{r4, r5, r6, pc}
 8003768:	6c0b      	ldr	r3, [r1, #64]	; 0x40
 800376a:	eddf 5a1a 	vldr	s11, [pc, #104]	; 80037d4 <HAL_RCCEx_GetPLL3ClockFreq+0x148>
 800376e:	f3c3 0308 	ubfx	r3, r3, #0, #9
 8003772:	ee07 3a90 	vmov	s15, r3
 8003776:	eef8 7ae7 	vcvt.f32.s32	s15, s15
 800377a:	ee77 7aa6 	vadd.f32	s15, s15, s13
 800377e:	ee77 7a86 	vadd.f32	s15, s15, s12
 8003782:	eec5 6a87 	vdiv.f32	s13, s11, s14
 8003786:	ee67 7aa6 	vmul.f32	s15, s15, s13
 800378a:	e7bd      	b.n	8003708 <HAL_RCCEx_GetPLL3ClockFreq+0x7c>
 800378c:	6c0b      	ldr	r3, [r1, #64]	; 0x40
 800378e:	eddf 5a12 	vldr	s11, [pc, #72]	; 80037d8 <HAL_RCCEx_GetPLL3ClockFreq+0x14c>
 8003792:	f3c3 0308 	ubfx	r3, r3, #0, #9
 8003796:	ee07 3a90 	vmov	s15, r3
 800379a:	eef8 7ae7 	vcvt.f32.s32	s15, s15
 800379e:	ee77 7aa6 	vadd.f32	s15, s15, s13
 80037a2:	ee77 7a86 	vadd.f32	s15, s15, s12
 80037a6:	e7ec      	b.n	8003782 <HAL_RCCEx_GetPLL3ClockFreq+0xf6>
 80037a8:	6c0b      	ldr	r3, [r1, #64]	; 0x40
 80037aa:	eddf 5a0c 	vldr	s11, [pc, #48]	; 80037dc <HAL_RCCEx_GetPLL3ClockFreq+0x150>
 80037ae:	f3c3 0308 	ubfx	r3, r3, #0, #9
 80037b2:	ee07 3a90 	vmov	s15, r3
 80037b6:	eef8 7ae7 	vcvt.f32.s32	s15, s15
 80037ba:	ee77 7aa6 	vadd.f32	s15, s15, s13
 80037be:	ee77 7a86 	vadd.f32	s15, s15, s12
 80037c2:	e7de      	b.n	8003782 <HAL_RCCEx_GetPLL3ClockFreq+0xf6>
 80037c4:	e9c0 3300 	strd	r3, r3, [r0]
 80037c8:	e7cc      	b.n	8003764 <HAL_RCCEx_GetPLL3ClockFreq+0xd8>
 80037ca:	bf00      	nop
 80037cc:	58024400 	.word	0x58024400
 80037d0:	03d09000 	.word	0x03d09000
 80037d4:	4c742400 	.word	0x4c742400
 80037d8:	4af42400 	.word	0x4af42400
 80037dc:	4a742400 	.word	0x4a742400

080037e0 <HAL_TIM_Base_MspInit>:
 80037e0:	4770      	bx	lr
	...

080037e4 <HAL_TIM_Base_Start_IT>:
 80037e4:	f890 303d 	ldrb.w	r3, [r0, #61]	; 0x3d
 80037e8:	2b01      	cmp	r3, #1
 80037ea:	d133      	bne.n	8003854 <HAL_TIM_Base_Start_IT+0x70>
 80037ec:	2302      	movs	r3, #2
 80037ee:	f880 303d 	strb.w	r3, [r0, #61]	; 0x3d
 80037f2:	6803      	ldr	r3, [r0, #0]
 80037f4:	68da      	ldr	r2, [r3, #12]
 80037f6:	f042 0201 	orr.w	r2, r2, #1
 80037fa:	60da      	str	r2, [r3, #12]
 80037fc:	4a16      	ldr	r2, [pc, #88]	; (8003858 <HAL_TIM_Base_Start_IT+0x74>)
 80037fe:	4293      	cmp	r3, r2
 8003800:	d01a      	beq.n	8003838 <HAL_TIM_Base_Start_IT+0x54>
 8003802:	f1b3 4f80 	cmp.w	r3, #1073741824	; 0x40000000
 8003806:	d017      	beq.n	8003838 <HAL_TIM_Base_Start_IT+0x54>
 8003808:	f5a2 427c 	sub.w	r2, r2, #64512	; 0xfc00
 800380c:	4293      	cmp	r3, r2
 800380e:	d013      	beq.n	8003838 <HAL_TIM_Base_Start_IT+0x54>
 8003810:	f502 6280 	add.w	r2, r2, #1024	; 0x400
 8003814:	4293      	cmp	r3, r2
 8003816:	d00f      	beq.n	8003838 <HAL_TIM_Base_Start_IT+0x54>
 8003818:	f502 6280 	add.w	r2, r2, #1024	; 0x400
 800381c:	4293      	cmp	r3, r2
 800381e:	d00b      	beq.n	8003838 <HAL_TIM_Base_Start_IT+0x54>
 8003820:	f502 4278 	add.w	r2, r2, #63488	; 0xf800
 8003824:	4293      	cmp	r3, r2
 8003826:	d007      	beq.n	8003838 <HAL_TIM_Base_Start_IT+0x54>
 8003828:	f5a2 426c 	sub.w	r2, r2, #60416	; 0xec00
 800382c:	4293      	cmp	r3, r2
 800382e:	d003      	beq.n	8003838 <HAL_TIM_Base_Start_IT+0x54>
 8003830:	f502 3294 	add.w	r2, r2, #75776	; 0x12800
 8003834:	4293      	cmp	r3, r2
 8003836:	d107      	bne.n	8003848 <HAL_TIM_Base_Start_IT+0x64>
 8003838:	6899      	ldr	r1, [r3, #8]
 800383a:	4a08      	ldr	r2, [pc, #32]	; (800385c <HAL_TIM_Base_Start_IT+0x78>)
 800383c:	400a      	ands	r2, r1
 800383e:	2a06      	cmp	r2, #6
 8003840:	d006      	beq.n	8003850 <HAL_TIM_Base_Start_IT+0x6c>
 8003842:	f5b2 3f80 	cmp.w	r2, #65536	; 0x10000
 8003846:	d003      	beq.n	8003850 <HAL_TIM_Base_Start_IT+0x6c>
 8003848:	681a      	ldr	r2, [r3, #0]
 800384a:	f042 0201 	orr.w	r2, r2, #1
 800384e:	601a      	str	r2, [r3, #0]
 8003850:	2000      	movs	r0, #0
 8003852:	4770      	bx	lr
 8003854:	2001      	movs	r0, #1
 8003856:	4770      	bx	lr
 8003858:	40010000 	.word	0x40010000
 800385c:	00010007 	.word	0x00010007

08003860 <HAL_TIM_OC_DelayElapsedCallback>:
 8003860:	4770      	bx	lr

08003862 <HAL_TIM_IC_CaptureCallback>:
 8003862:	4770      	bx	lr

08003864 <HAL_TIM_PWM_PulseFinishedCallback>:
 8003864:	4770      	bx	lr

08003866 <HAL_TIM_TriggerCallback>:
 8003866:	4770      	bx	lr

08003868 <HAL_TIM_IRQHandler>:
 8003868:	6803      	ldr	r3, [r0, #0]
 800386a:	691a      	ldr	r2, [r3, #16]
 800386c:	0791      	lsls	r1, r2, #30
 800386e:	b510      	push	{r4, lr}
 8003870:	4604      	mov	r4, r0
 8003872:	d50f      	bpl.n	8003894 <HAL_TIM_IRQHandler+0x2c>
 8003874:	68da      	ldr	r2, [r3, #12]
 8003876:	0792      	lsls	r2, r2, #30
 8003878:	d50c      	bpl.n	8003894 <HAL_TIM_IRQHandler+0x2c>
 800387a:	f06f 0202 	mvn.w	r2, #2
 800387e:	611a      	str	r2, [r3, #16]
 8003880:	2201      	movs	r2, #1
 8003882:	7702      	strb	r2, [r0, #28]
 8003884:	699b      	ldr	r3, [r3, #24]
 8003886:	0799      	lsls	r1, r3, #30
 8003888:	f000 8085 	beq.w	8003996 <HAL_TIM_IRQHandler+0x12e>
 800388c:	f7ff ffe9 	bl	8003862 <HAL_TIM_IC_CaptureCallback>
 8003890:	2300      	movs	r3, #0
 8003892:	7723      	strb	r3, [r4, #28]
 8003894:	6823      	ldr	r3, [r4, #0]
 8003896:	691a      	ldr	r2, [r3, #16]
 8003898:	0752      	lsls	r2, r2, #29
 800389a:	d510      	bpl.n	80038be <HAL_TIM_IRQHandler+0x56>
 800389c:	68da      	ldr	r2, [r3, #12]
 800389e:	0750      	lsls	r0, r2, #29
 80038a0:	d50d      	bpl.n	80038be <HAL_TIM_IRQHandler+0x56>
 80038a2:	f06f 0204 	mvn.w	r2, #4
 80038a6:	4620      	mov	r0, r4
 80038a8:	611a      	str	r2, [r3, #16]
 80038aa:	2202      	movs	r2, #2
 80038ac:	7722      	strb	r2, [r4, #28]
 80038ae:	699b      	ldr	r3, [r3, #24]
 80038b0:	f413 7f40 	tst.w	r3, #768	; 0x300
 80038b4:	d075      	beq.n	80039a2 <HAL_TIM_IRQHandler+0x13a>
 80038b6:	f7ff ffd4 	bl	8003862 <HAL_TIM_IC_CaptureCallback>
 80038ba:	2300      	movs	r3, #0
 80038bc:	7723      	strb	r3, [r4, #28]
 80038be:	6823      	ldr	r3, [r4, #0]
 80038c0:	691a      	ldr	r2, [r3, #16]
 80038c2:	0711      	lsls	r1, r2, #28
 80038c4:	d50f      	bpl.n	80038e6 <HAL_TIM_IRQHandler+0x7e>
 80038c6:	68da      	ldr	r2, [r3, #12]
 80038c8:	0712      	lsls	r2, r2, #28
 80038ca:	d50c      	bpl.n	80038e6 <HAL_TIM_IRQHandler+0x7e>
 80038cc:	f06f 0208 	mvn.w	r2, #8
 80038d0:	4620      	mov	r0, r4
 80038d2:	611a      	str	r2, [r3, #16]
 80038d4:	2204      	movs	r2, #4
 80038d6:	7722      	strb	r2, [r4, #28]
 80038d8:	69db      	ldr	r3, [r3, #28]
 80038da:	079b      	lsls	r3, r3, #30
 80038dc:	d067      	beq.n	80039ae <HAL_TIM_IRQHandler+0x146>
 80038de:	f7ff ffc0 	bl	8003862 <HAL_TIM_IC_CaptureCallback>
 80038e2:	2300      	movs	r3, #0
 80038e4:	7723      	strb	r3, [r4, #28]
 80038e6:	6823      	ldr	r3, [r4, #0]
 80038e8:	691a      	ldr	r2, [r3, #16]
 80038ea:	06d0      	lsls	r0, r2, #27
 80038ec:	d510      	bpl.n	8003910 <HAL_TIM_IRQHandler+0xa8>
 80038ee:	68da      	ldr	r2, [r3, #12]
 80038f0:	06d1      	lsls	r1, r2, #27
 80038f2:	d50d      	bpl.n	8003910 <HAL_TIM_IRQHandler+0xa8>
 80038f4:	f06f 0210 	mvn.w	r2, #16
 80038f8:	4620      	mov	r0, r4
 80038fa:	611a      	str	r2, [r3, #16]
 80038fc:	2208      	movs	r2, #8
 80038fe:	7722      	strb	r2, [r4, #28]
 8003900:	69db      	ldr	r3, [r3, #28]
 8003902:	f413 7f40 	tst.w	r3, #768	; 0x300
 8003906:	d058      	beq.n	80039ba <HAL_TIM_IRQHandler+0x152>
 8003908:	f7ff ffab 	bl	8003862 <HAL_TIM_IC_CaptureCallback>
 800390c:	2300      	movs	r3, #0
 800390e:	7723      	strb	r3, [r4, #28]
 8003910:	6823      	ldr	r3, [r4, #0]
 8003912:	691a      	ldr	r2, [r3, #16]
 8003914:	07d2      	lsls	r2, r2, #31
 8003916:	d508      	bpl.n	800392a <HAL_TIM_IRQHandler+0xc2>
 8003918:	68da      	ldr	r2, [r3, #12]
 800391a:	07d0      	lsls	r0, r2, #31
 800391c:	d505      	bpl.n	800392a <HAL_TIM_IRQHandler+0xc2>
 800391e:	f06f 0201 	mvn.w	r2, #1
 8003922:	4620      	mov	r0, r4
 8003924:	611a      	str	r2, [r3, #16]
 8003926:	f7fd f8f9 	bl	8000b1c <HAL_TIM_PeriodElapsedCallback>
 800392a:	6823      	ldr	r3, [r4, #0]
 800392c:	691a      	ldr	r2, [r3, #16]
 800392e:	0611      	lsls	r1, r2, #24
 8003930:	d508      	bpl.n	8003944 <HAL_TIM_IRQHandler+0xdc>
 8003932:	68da      	ldr	r2, [r3, #12]
 8003934:	0612      	lsls	r2, r2, #24
 8003936:	d505      	bpl.n	8003944 <HAL_TIM_IRQHandler+0xdc>
 8003938:	f06f 0280 	mvn.w	r2, #128	; 0x80
 800393c:	4620      	mov	r0, r4
 800393e:	611a      	str	r2, [r3, #16]
 8003940:	f000 f8d9 	bl	8003af6 <HAL_TIMEx_BreakCallback>
 8003944:	6823      	ldr	r3, [r4, #0]
 8003946:	691a      	ldr	r2, [r3, #16]
 8003948:	05d0      	lsls	r0, r2, #23
 800394a:	d508      	bpl.n	800395e <HAL_TIM_IRQHandler+0xf6>
 800394c:	68da      	ldr	r2, [r3, #12]
 800394e:	0611      	lsls	r1, r2, #24
 8003950:	d505      	bpl.n	800395e <HAL_TIM_IRQHandler+0xf6>
 8003952:	f46f 7280 	mvn.w	r2, #256	; 0x100
 8003956:	4620      	mov	r0, r4
 8003958:	611a      	str	r2, [r3, #16]
 800395a:	f000 f8cd 	bl	8003af8 <HAL_TIMEx_Break2Callback>
 800395e:	6823      	ldr	r3, [r4, #0]
 8003960:	691a      	ldr	r2, [r3, #16]
 8003962:	0652      	lsls	r2, r2, #25
 8003964:	d508      	bpl.n	8003978 <HAL_TIM_IRQHandler+0x110>
 8003966:	68da      	ldr	r2, [r3, #12]
 8003968:	0650      	lsls	r0, r2, #25
 800396a:	d505      	bpl.n	8003978 <HAL_TIM_IRQHandler+0x110>
 800396c:	f06f 0240 	mvn.w	r2, #64	; 0x40
 8003970:	4620      	mov	r0, r4
 8003972:	611a      	str	r2, [r3, #16]
 8003974:	f7ff ff77 	bl	8003866 <HAL_TIM_TriggerCallback>
 8003978:	6823      	ldr	r3, [r4, #0]
 800397a:	691a      	ldr	r2, [r3, #16]
 800397c:	0691      	lsls	r1, r2, #26
 800397e:	d522      	bpl.n	80039c6 <HAL_TIM_IRQHandler+0x15e>
 8003980:	68da      	ldr	r2, [r3, #12]
 8003982:	0692      	lsls	r2, r2, #26
 8003984:	d51f      	bpl.n	80039c6 <HAL_TIM_IRQHandler+0x15e>
 8003986:	f06f 0220 	mvn.w	r2, #32
 800398a:	4620      	mov	r0, r4
 800398c:	611a      	str	r2, [r3, #16]
 800398e:	e8bd 4010 	ldmia.w	sp!, {r4, lr}
 8003992:	f000 b8af 	b.w	8003af4 <HAL_TIMEx_CommutCallback>
 8003996:	f7ff ff63 	bl	8003860 <HAL_TIM_OC_DelayElapsedCallback>
 800399a:	4620      	mov	r0, r4
 800399c:	f7ff ff62 	bl	8003864 <HAL_TIM_PWM_PulseFinishedCallback>
 80039a0:	e776      	b.n	8003890 <HAL_TIM_IRQHandler+0x28>
 80039a2:	f7ff ff5d 	bl	8003860 <HAL_TIM_OC_DelayElapsedCallback>
 80039a6:	4620      	mov	r0, r4
 80039a8:	f7ff ff5c 	bl	8003864 <HAL_TIM_PWM_PulseFinishedCallback>
 80039ac:	e785      	b.n	80038ba <HAL_TIM_IRQHandler+0x52>
 80039ae:	f7ff ff57 	bl	8003860 <HAL_TIM_OC_DelayElapsedCallback>
 80039b2:	4620      	mov	r0, r4
 80039b4:	f7ff ff56 	bl	8003864 <HAL_TIM_PWM_PulseFinishedCallback>
 80039b8:	e793      	b.n	80038e2 <HAL_TIM_IRQHandler+0x7a>
 80039ba:	f7ff ff51 	bl	8003860 <HAL_TIM_OC_DelayElapsedCallback>
 80039be:	4620      	mov	r0, r4
 80039c0:	f7ff ff50 	bl	8003864 <HAL_TIM_PWM_PulseFinishedCallback>
 80039c4:	e7a2      	b.n	800390c <HAL_TIM_IRQHandler+0xa4>
 80039c6:	bd10      	pop	{r4, pc}

080039c8 <TIM_Base_SetConfig>:
 80039c8:	4a30      	ldr	r2, [pc, #192]	; (8003a8c <TIM_Base_SetConfig+0xc4>)
 80039ca:	6803      	ldr	r3, [r0, #0]
 80039cc:	4290      	cmp	r0, r2
 80039ce:	d012      	beq.n	80039f6 <TIM_Base_SetConfig+0x2e>
 80039d0:	f1b0 4f80 	cmp.w	r0, #1073741824	; 0x40000000
 80039d4:	d00f      	beq.n	80039f6 <TIM_Base_SetConfig+0x2e>
 80039d6:	f5a2 427c 	sub.w	r2, r2, #64512	; 0xfc00
 80039da:	4290      	cmp	r0, r2
 80039dc:	d00b      	beq.n	80039f6 <TIM_Base_SetConfig+0x2e>
 80039de:	f502 6280 	add.w	r2, r2, #1024	; 0x400
 80039e2:	4290      	cmp	r0, r2
 80039e4:	d007      	beq.n	80039f6 <TIM_Base_SetConfig+0x2e>
 80039e6:	f502 6280 	add.w	r2, r2, #1024	; 0x400
 80039ea:	4290      	cmp	r0, r2
 80039ec:	d003      	beq.n	80039f6 <TIM_Base_SetConfig+0x2e>
 80039ee:	f502 4278 	add.w	r2, r2, #63488	; 0xf800
 80039f2:	4290      	cmp	r0, r2
 80039f4:	d119      	bne.n	8003a2a <TIM_Base_SetConfig+0x62>
 80039f6:	684a      	ldr	r2, [r1, #4]
 80039f8:	f023 0370 	bic.w	r3, r3, #112	; 0x70
 80039fc:	4313      	orrs	r3, r2
 80039fe:	4a23      	ldr	r2, [pc, #140]	; (8003a8c <TIM_Base_SetConfig+0xc4>)
 8003a00:	4290      	cmp	r0, r2
 8003a02:	d01d      	beq.n	8003a40 <TIM_Base_SetConfig+0x78>
 8003a04:	f1b0 4f80 	cmp.w	r0, #1073741824	; 0x40000000
 8003a08:	d01a      	beq.n	8003a40 <TIM_Base_SetConfig+0x78>
 8003a0a:	f5a2 427c 	sub.w	r2, r2, #64512	; 0xfc00
 8003a0e:	4290      	cmp	r0, r2
 8003a10:	d016      	beq.n	8003a40 <TIM_Base_SetConfig+0x78>
 8003a12:	f502 6280 	add.w	r2, r2, #1024	; 0x400
 8003a16:	4290      	cmp	r0, r2
 8003a18:	d012      	beq.n	8003a40 <TIM_Base_SetConfig+0x78>
 8003a1a:	f502 6280 	add.w	r2, r2, #1024	; 0x400
 8003a1e:	4290      	cmp	r0, r2
 8003a20:	d00e      	beq.n	8003a40 <TIM_Base_SetConfig+0x78>
 8003a22:	f502 4278 	add.w	r2, r2, #63488	; 0xf800
 8003a26:	4290      	cmp	r0, r2
 8003a28:	d00a      	beq.n	8003a40 <TIM_Base_SetConfig+0x78>
 8003a2a:	4a19      	ldr	r2, [pc, #100]	; (8003a90 <TIM_Base_SetConfig+0xc8>)
 8003a2c:	4290      	cmp	r0, r2
 8003a2e:	d007      	beq.n	8003a40 <TIM_Base_SetConfig+0x78>
 8003a30:	f502 6280 	add.w	r2, r2, #1024	; 0x400
 8003a34:	4290      	cmp	r0, r2
 8003a36:	d003      	beq.n	8003a40 <TIM_Base_SetConfig+0x78>
 8003a38:	f502 6280 	add.w	r2, r2, #1024	; 0x400
 8003a3c:	4290      	cmp	r0, r2
 8003a3e:	d103      	bne.n	8003a48 <TIM_Base_SetConfig+0x80>
 8003a40:	f423 7340 	bic.w	r3, r3, #768	; 0x300
 8003a44:	68ca      	ldr	r2, [r1, #12]
 8003a46:	4313      	orrs	r3, r2
 8003a48:	694a      	ldr	r2, [r1, #20]
 8003a4a:	f023 0380 	bic.w	r3, r3, #128	; 0x80
 8003a4e:	4313      	orrs	r3, r2
 8003a50:	6003      	str	r3, [r0, #0]
 8003a52:	688b      	ldr	r3, [r1, #8]
 8003a54:	62c3      	str	r3, [r0, #44]	; 0x2c
 8003a56:	680b      	ldr	r3, [r1, #0]
 8003a58:	6283      	str	r3, [r0, #40]	; 0x28
 8003a5a:	4b0c      	ldr	r3, [pc, #48]	; (8003a8c <TIM_Base_SetConfig+0xc4>)
 8003a5c:	4298      	cmp	r0, r3
 8003a5e:	d00f      	beq.n	8003a80 <TIM_Base_SetConfig+0xb8>
 8003a60:	f503 6380 	add.w	r3, r3, #1024	; 0x400
 8003a64:	4298      	cmp	r0, r3
 8003a66:	d00b      	beq.n	8003a80 <TIM_Base_SetConfig+0xb8>
 8003a68:	f503 5370 	add.w	r3, r3, #15360	; 0x3c00
 8003a6c:	4298      	cmp	r0, r3
 8003a6e:	d007      	beq.n	8003a80 <TIM_Base_SetConfig+0xb8>
 8003a70:	f503 6380 	add.w	r3, r3, #1024	; 0x400
 8003a74:	4298      	cmp	r0, r3
 8003a76:	d003      	beq.n	8003a80 <TIM_Base_SetConfig+0xb8>
 8003a78:	f503 6380 	add.w	r3, r3, #1024	; 0x400
 8003a7c:	4298      	cmp	r0, r3
 8003a7e:	d101      	bne.n	8003a84 <TIM_Base_SetConfig+0xbc>
 8003a80:	690b      	ldr	r3, [r1, #16]
 8003a82:	6303      	str	r3, [r0, #48]	; 0x30
 8003a84:	2301      	movs	r3, #1
 8003a86:	6143      	str	r3, [r0, #20]
 8003a88:	4770      	bx	lr
 8003a8a:	bf00      	nop
 8003a8c:	40010000 	.word	0x40010000
 8003a90:	40014000 	.word	0x40014000

08003a94 <HAL_TIM_Base_Init>:
 8003a94:	b510      	push	{r4, lr}
 8003a96:	4604      	mov	r4, r0
 8003a98:	b350      	cbz	r0, 8003af0 <HAL_TIM_Base_Init+0x5c>
 8003a9a:	f890 303d 	ldrb.w	r3, [r0, #61]	; 0x3d
 8003a9e:	f003 02ff 	and.w	r2, r3, #255	; 0xff
 8003aa2:	b91b      	cbnz	r3, 8003aac <HAL_TIM_Base_Init+0x18>
 8003aa4:	f880 203c 	strb.w	r2, [r0, #60]	; 0x3c
 8003aa8:	f7ff fe9a 	bl	80037e0 <HAL_TIM_Base_MspInit>
 8003aac:	2302      	movs	r3, #2
 8003aae:	6820      	ldr	r0, [r4, #0]
 8003ab0:	1d21      	adds	r1, r4, #4
 8003ab2:	f884 303d 	strb.w	r3, [r4, #61]	; 0x3d
 8003ab6:	f7ff ff87 	bl	80039c8 <TIM_Base_SetConfig>
 8003aba:	2301      	movs	r3, #1
 8003abc:	2000      	movs	r0, #0
 8003abe:	f884 3048 	strb.w	r3, [r4, #72]	; 0x48
 8003ac2:	f884 303e 	strb.w	r3, [r4, #62]	; 0x3e
 8003ac6:	f884 303f 	strb.w	r3, [r4, #63]	; 0x3f
 8003aca:	f884 3040 	strb.w	r3, [r4, #64]	; 0x40
 8003ace:	f884 3041 	strb.w	r3, [r4, #65]	; 0x41
 8003ad2:	f884 3042 	strb.w	r3, [r4, #66]	; 0x42
 8003ad6:	f884 3043 	strb.w	r3, [r4, #67]	; 0x43
 8003ada:	f884 3044 	strb.w	r3, [r4, #68]	; 0x44
 8003ade:	f884 3045 	strb.w	r3, [r4, #69]	; 0x45
 8003ae2:	f884 3046 	strb.w	r3, [r4, #70]	; 0x46
 8003ae6:	f884 3047 	strb.w	r3, [r4, #71]	; 0x47
 8003aea:	f884 303d 	strb.w	r3, [r4, #61]	; 0x3d
 8003aee:	bd10      	pop	{r4, pc}
 8003af0:	2001      	movs	r0, #1
 8003af2:	e7fc      	b.n	8003aee <HAL_TIM_Base_Init+0x5a>

08003af4 <HAL_TIMEx_CommutCallback>:
 8003af4:	4770      	bx	lr

08003af6 <HAL_TIMEx_BreakCallback>:
 8003af6:	4770      	bx	lr

08003af8 <HAL_TIMEx_Break2Callback>:
 8003af8:	4770      	bx	lr
	...

08003afc <UART_EndRxTransfer>:
 8003afc:	b510      	push	{r4, lr}
 8003afe:	6802      	ldr	r2, [r0, #0]
 8003b00:	e852 3f00 	ldrex	r3, [r2]
 8003b04:	f423 7390 	bic.w	r3, r3, #288	; 0x120
 8003b08:	e842 3100 	strex	r1, r3, [r2]
 8003b0c:	6802      	ldr	r2, [r0, #0]
 8003b0e:	2900      	cmp	r1, #0
 8003b10:	d1f5      	bne.n	8003afe <UART_EndRxTransfer+0x2>
 8003b12:	4c0f      	ldr	r4, [pc, #60]	; (8003b50 <UART_EndRxTransfer+0x54>)
 8003b14:	f102 0308 	add.w	r3, r2, #8
 8003b18:	e853 3f00 	ldrex	r3, [r3]
 8003b1c:	4023      	ands	r3, r4
 8003b1e:	f102 0c08 	add.w	ip, r2, #8
 8003b22:	e84c 3100 	strex	r1, r3, [ip]
 8003b26:	2900      	cmp	r1, #0
 8003b28:	d1f4      	bne.n	8003b14 <UART_EndRxTransfer+0x18>
 8003b2a:	6ec3      	ldr	r3, [r0, #108]	; 0x6c
 8003b2c:	2b01      	cmp	r3, #1
 8003b2e:	d107      	bne.n	8003b40 <UART_EndRxTransfer+0x44>
 8003b30:	e852 3f00 	ldrex	r3, [r2]
 8003b34:	f023 0310 	bic.w	r3, r3, #16
 8003b38:	e842 3100 	strex	r1, r3, [r2]
 8003b3c:	2900      	cmp	r1, #0
 8003b3e:	d1f7      	bne.n	8003b30 <UART_EndRxTransfer+0x34>
 8003b40:	2320      	movs	r3, #32
 8003b42:	f8c0 308c 	str.w	r3, [r0, #140]	; 0x8c
 8003b46:	2300      	movs	r3, #0
 8003b48:	66c3      	str	r3, [r0, #108]	; 0x6c
 8003b4a:	6743      	str	r3, [r0, #116]	; 0x74
 8003b4c:	bd10      	pop	{r4, pc}
 8003b4e:	bf00      	nop
 8003b50:	effffffe 	.word	0xeffffffe

08003b54 <UART_SetConfig>:
 8003b54:	b530      	push	{r4, r5, lr}
 8003b56:	4604      	mov	r4, r0
 8003b58:	6803      	ldr	r3, [r0, #0]
 8003b5a:	69c0      	ldr	r0, [r0, #28]
 8003b5c:	b087      	sub	sp, #28
 8003b5e:	6921      	ldr	r1, [r4, #16]
 8003b60:	68a2      	ldr	r2, [r4, #8]
 8003b62:	681d      	ldr	r5, [r3, #0]
 8003b64:	430a      	orrs	r2, r1
 8003b66:	6961      	ldr	r1, [r4, #20]
 8003b68:	430a      	orrs	r2, r1
 8003b6a:	4997      	ldr	r1, [pc, #604]	; (8003dc8 <UART_SetConfig+0x274>)
 8003b6c:	4302      	orrs	r2, r0
 8003b6e:	4029      	ands	r1, r5
 8003b70:	430a      	orrs	r2, r1
 8003b72:	68e1      	ldr	r1, [r4, #12]
 8003b74:	601a      	str	r2, [r3, #0]
 8003b76:	685a      	ldr	r2, [r3, #4]
 8003b78:	f422 5240 	bic.w	r2, r2, #12288	; 0x3000
 8003b7c:	430a      	orrs	r2, r1
 8003b7e:	69a1      	ldr	r1, [r4, #24]
 8003b80:	605a      	str	r2, [r3, #4]
 8003b82:	4a92      	ldr	r2, [pc, #584]	; (8003dcc <UART_SetConfig+0x278>)
 8003b84:	4293      	cmp	r3, r2
 8003b86:	bf1c      	itt	ne
 8003b88:	6a22      	ldrne	r2, [r4, #32]
 8003b8a:	4311      	orrne	r1, r2
 8003b8c:	689a      	ldr	r2, [r3, #8]
 8003b8e:	f022 426e 	bic.w	r2, r2, #3992977408	; 0xee000000
 8003b92:	f422 6230 	bic.w	r2, r2, #2816	; 0xb00
 8003b96:	430a      	orrs	r2, r1
 8003b98:	6a61      	ldr	r1, [r4, #36]	; 0x24
 8003b9a:	609a      	str	r2, [r3, #8]
 8003b9c:	6ada      	ldr	r2, [r3, #44]	; 0x2c
 8003b9e:	f022 020f 	bic.w	r2, r2, #15
 8003ba2:	430a      	orrs	r2, r1
 8003ba4:	62da      	str	r2, [r3, #44]	; 0x2c
 8003ba6:	4a8a      	ldr	r2, [pc, #552]	; (8003dd0 <UART_SetConfig+0x27c>)
 8003ba8:	4293      	cmp	r3, r2
 8003baa:	d11b      	bne.n	8003be4 <UART_SetConfig+0x90>
 8003bac:	4b89      	ldr	r3, [pc, #548]	; (8003dd4 <UART_SetConfig+0x280>)
 8003bae:	6d5b      	ldr	r3, [r3, #84]	; 0x54
 8003bb0:	f003 0338 	and.w	r3, r3, #56	; 0x38
 8003bb4:	2b28      	cmp	r3, #40	; 0x28
 8003bb6:	d86c      	bhi.n	8003c92 <UART_SetConfig+0x13e>
 8003bb8:	4a87      	ldr	r2, [pc, #540]	; (8003dd8 <UART_SetConfig+0x284>)
 8003bba:	f5b0 4f00 	cmp.w	r0, #32768	; 0x8000
 8003bbe:	5cd3      	ldrb	r3, [r2, r3]
 8003bc0:	f040 8132 	bne.w	8003e28 <UART_SetConfig+0x2d4>
 8003bc4:	2b08      	cmp	r3, #8
 8003bc6:	f200 80c0 	bhi.w	8003d4a <UART_SetConfig+0x1f6>
 8003bca:	2b08      	cmp	r3, #8
 8003bcc:	d861      	bhi.n	8003c92 <UART_SetConfig+0x13e>
 8003bce:	e8df f013 	tbh	[pc, r3, lsl #1]
 8003bd2:	00e7      	.short	0x00e7
 8003bd4:	006000ec 	.word	0x006000ec
 8003bd8:	00ef0060 	.word	0x00ef0060
 8003bdc:	00600060 	.word	0x00600060
 8003be0:	00f40060 	.word	0x00f40060
 8003be4:	4a7d      	ldr	r2, [pc, #500]	; (8003ddc <UART_SetConfig+0x288>)
 8003be6:	4293      	cmp	r3, r2
 8003be8:	d107      	bne.n	8003bfa <UART_SetConfig+0xa6>
 8003bea:	4b7a      	ldr	r3, [pc, #488]	; (8003dd4 <UART_SetConfig+0x280>)
 8003bec:	6d5b      	ldr	r3, [r3, #84]	; 0x54
 8003bee:	f003 0307 	and.w	r3, r3, #7
 8003bf2:	2b05      	cmp	r3, #5
 8003bf4:	d84d      	bhi.n	8003c92 <UART_SetConfig+0x13e>
 8003bf6:	4a7a      	ldr	r2, [pc, #488]	; (8003de0 <UART_SetConfig+0x28c>)
 8003bf8:	e7df      	b.n	8003bba <UART_SetConfig+0x66>
 8003bfa:	4a7a      	ldr	r2, [pc, #488]	; (8003de4 <UART_SetConfig+0x290>)
 8003bfc:	4293      	cmp	r3, r2
 8003bfe:	d107      	bne.n	8003c10 <UART_SetConfig+0xbc>
 8003c00:	4b74      	ldr	r3, [pc, #464]	; (8003dd4 <UART_SetConfig+0x280>)
 8003c02:	6d5b      	ldr	r3, [r3, #84]	; 0x54
 8003c04:	f003 0307 	and.w	r3, r3, #7
 8003c08:	2b05      	cmp	r3, #5
 8003c0a:	d842      	bhi.n	8003c92 <UART_SetConfig+0x13e>
 8003c0c:	4a76      	ldr	r2, [pc, #472]	; (8003de8 <UART_SetConfig+0x294>)
 8003c0e:	e7d4      	b.n	8003bba <UART_SetConfig+0x66>
 8003c10:	4a76      	ldr	r2, [pc, #472]	; (8003dec <UART_SetConfig+0x298>)
 8003c12:	4293      	cmp	r3, r2
 8003c14:	d107      	bne.n	8003c26 <UART_SetConfig+0xd2>
 8003c16:	4b6f      	ldr	r3, [pc, #444]	; (8003dd4 <UART_SetConfig+0x280>)
 8003c18:	6d5b      	ldr	r3, [r3, #84]	; 0x54
 8003c1a:	f003 0307 	and.w	r3, r3, #7
 8003c1e:	2b05      	cmp	r3, #5
 8003c20:	d837      	bhi.n	8003c92 <UART_SetConfig+0x13e>
 8003c22:	4a73      	ldr	r2, [pc, #460]	; (8003df0 <UART_SetConfig+0x29c>)
 8003c24:	e7c9      	b.n	8003bba <UART_SetConfig+0x66>
 8003c26:	4a73      	ldr	r2, [pc, #460]	; (8003df4 <UART_SetConfig+0x2a0>)
 8003c28:	4293      	cmp	r3, r2
 8003c2a:	d107      	bne.n	8003c3c <UART_SetConfig+0xe8>
 8003c2c:	4b69      	ldr	r3, [pc, #420]	; (8003dd4 <UART_SetConfig+0x280>)
 8003c2e:	6d5b      	ldr	r3, [r3, #84]	; 0x54
 8003c30:	f003 0307 	and.w	r3, r3, #7
 8003c34:	2b05      	cmp	r3, #5
 8003c36:	d82c      	bhi.n	8003c92 <UART_SetConfig+0x13e>
 8003c38:	4a6f      	ldr	r2, [pc, #444]	; (8003df8 <UART_SetConfig+0x2a4>)
 8003c3a:	e7be      	b.n	8003bba <UART_SetConfig+0x66>
 8003c3c:	4a6f      	ldr	r2, [pc, #444]	; (8003dfc <UART_SetConfig+0x2a8>)
 8003c3e:	4293      	cmp	r3, r2
 8003c40:	d107      	bne.n	8003c52 <UART_SetConfig+0xfe>
 8003c42:	4b64      	ldr	r3, [pc, #400]	; (8003dd4 <UART_SetConfig+0x280>)
 8003c44:	6d5b      	ldr	r3, [r3, #84]	; 0x54
 8003c46:	f003 0338 	and.w	r3, r3, #56	; 0x38
 8003c4a:	2b28      	cmp	r3, #40	; 0x28
 8003c4c:	d821      	bhi.n	8003c92 <UART_SetConfig+0x13e>
 8003c4e:	4a6c      	ldr	r2, [pc, #432]	; (8003e00 <UART_SetConfig+0x2ac>)
 8003c50:	e7b3      	b.n	8003bba <UART_SetConfig+0x66>
 8003c52:	4a6c      	ldr	r2, [pc, #432]	; (8003e04 <UART_SetConfig+0x2b0>)
 8003c54:	4293      	cmp	r3, r2
 8003c56:	d107      	bne.n	8003c68 <UART_SetConfig+0x114>
 8003c58:	4b5e      	ldr	r3, [pc, #376]	; (8003dd4 <UART_SetConfig+0x280>)
 8003c5a:	6d5b      	ldr	r3, [r3, #84]	; 0x54
 8003c5c:	f003 0307 	and.w	r3, r3, #7
 8003c60:	2b05      	cmp	r3, #5
 8003c62:	d816      	bhi.n	8003c92 <UART_SetConfig+0x13e>
 8003c64:	4a68      	ldr	r2, [pc, #416]	; (8003e08 <UART_SetConfig+0x2b4>)
 8003c66:	e7a8      	b.n	8003bba <UART_SetConfig+0x66>
 8003c68:	4a68      	ldr	r2, [pc, #416]	; (8003e0c <UART_SetConfig+0x2b8>)
 8003c6a:	4293      	cmp	r3, r2
 8003c6c:	d107      	bne.n	8003c7e <UART_SetConfig+0x12a>
 8003c6e:	4b59      	ldr	r3, [pc, #356]	; (8003dd4 <UART_SetConfig+0x280>)
 8003c70:	6d5b      	ldr	r3, [r3, #84]	; 0x54
 8003c72:	f003 0307 	and.w	r3, r3, #7
 8003c76:	2b05      	cmp	r3, #5
 8003c78:	d80b      	bhi.n	8003c92 <UART_SetConfig+0x13e>
 8003c7a:	4a65      	ldr	r2, [pc, #404]	; (8003e10 <UART_SetConfig+0x2bc>)
 8003c7c:	e79d      	b.n	8003bba <UART_SetConfig+0x66>
 8003c7e:	4a53      	ldr	r2, [pc, #332]	; (8003dcc <UART_SetConfig+0x278>)
 8003c80:	4293      	cmp	r3, r2
 8003c82:	d106      	bne.n	8003c92 <UART_SetConfig+0x13e>
 8003c84:	f502 320e 	add.w	r2, r2, #145408	; 0x23800
 8003c88:	6d93      	ldr	r3, [r2, #88]	; 0x58
 8003c8a:	f003 0307 	and.w	r3, r3, #7
 8003c8e:	2b05      	cmp	r3, #5
 8003c90:	d901      	bls.n	8003c96 <UART_SetConfig+0x142>
 8003c92:	2001      	movs	r0, #1
 8003c94:	e00e      	b.n	8003cb4 <UART_SetConfig+0x160>
 8003c96:	495f      	ldr	r1, [pc, #380]	; (8003e14 <UART_SetConfig+0x2c0>)
 8003c98:	5ccb      	ldrb	r3, [r1, r3]
 8003c9a:	2b10      	cmp	r3, #16
 8003c9c:	d023      	beq.n	8003ce6 <UART_SetConfig+0x192>
 8003c9e:	d811      	bhi.n	8003cc4 <UART_SetConfig+0x170>
 8003ca0:	2b04      	cmp	r3, #4
 8003ca2:	d016      	beq.n	8003cd2 <UART_SetConfig+0x17e>
 8003ca4:	2b08      	cmp	r3, #8
 8003ca6:	d019      	beq.n	8003cdc <UART_SetConfig+0x188>
 8003ca8:	2b02      	cmp	r3, #2
 8003caa:	d1f2      	bne.n	8003c92 <UART_SetConfig+0x13e>
 8003cac:	f7ff fc32 	bl	8003514 <HAL_RCCEx_GetD3PCLK1Freq>
 8003cb0:	bb10      	cbnz	r0, 8003cf8 <UART_SetConfig+0x1a4>
 8003cb2:	2000      	movs	r0, #0
 8003cb4:	f04f 1301 	mov.w	r3, #65537	; 0x10001
 8003cb8:	66a3      	str	r3, [r4, #104]	; 0x68
 8003cba:	2300      	movs	r3, #0
 8003cbc:	e9c4 331d 	strd	r3, r3, [r4, #116]	; 0x74
 8003cc0:	b007      	add	sp, #28
 8003cc2:	bd30      	pop	{r4, r5, pc}
 8003cc4:	2b20      	cmp	r3, #32
 8003cc6:	d03e      	beq.n	8003d46 <UART_SetConfig+0x1f2>
 8003cc8:	2b40      	cmp	r3, #64	; 0x40
 8003cca:	d1e2      	bne.n	8003c92 <UART_SetConfig+0x13e>
 8003ccc:	f44f 4000 	mov.w	r0, #32768	; 0x8000
 8003cd0:	e012      	b.n	8003cf8 <UART_SetConfig+0x1a4>
 8003cd2:	4668      	mov	r0, sp
 8003cd4:	f7ff fc30 	bl	8003538 <HAL_RCCEx_GetPLL2ClockFreq>
 8003cd8:	9801      	ldr	r0, [sp, #4]
 8003cda:	e7e9      	b.n	8003cb0 <UART_SetConfig+0x15c>
 8003cdc:	a803      	add	r0, sp, #12
 8003cde:	f7ff fcd5 	bl	800368c <HAL_RCCEx_GetPLL3ClockFreq>
 8003ce2:	9804      	ldr	r0, [sp, #16]
 8003ce4:	e7e4      	b.n	8003cb0 <UART_SetConfig+0x15c>
 8003ce6:	6813      	ldr	r3, [r2, #0]
 8003ce8:	484b      	ldr	r0, [pc, #300]	; (8003e18 <UART_SetConfig+0x2c4>)
 8003cea:	f013 0f20 	tst.w	r3, #32
 8003cee:	d003      	beq.n	8003cf8 <UART_SetConfig+0x1a4>
 8003cf0:	6813      	ldr	r3, [r2, #0]
 8003cf2:	f3c3 03c1 	ubfx	r3, r3, #3, #2
 8003cf6:	40d8      	lsrs	r0, r3
 8003cf8:	4b48      	ldr	r3, [pc, #288]	; (8003e1c <UART_SetConfig+0x2c8>)
 8003cfa:	6a62      	ldr	r2, [r4, #36]	; 0x24
 8003cfc:	6865      	ldr	r5, [r4, #4]
 8003cfe:	f833 2012 	ldrh.w	r2, [r3, r2, lsl #1]
 8003d02:	eb05 0145 	add.w	r1, r5, r5, lsl #1
 8003d06:	fbb0 f3f2 	udiv	r3, r0, r2
 8003d0a:	4299      	cmp	r1, r3
 8003d0c:	d8c1      	bhi.n	8003c92 <UART_SetConfig+0x13e>
 8003d0e:	ebb3 3f05 	cmp.w	r3, r5, lsl #12
 8003d12:	d8be      	bhi.n	8003c92 <UART_SetConfig+0x13e>
 8003d14:	2300      	movs	r3, #0
 8003d16:	4619      	mov	r1, r3
 8003d18:	f7fc fae2 	bl	80002e0 <__aeabi_uldivmod>
 8003d1c:	462a      	mov	r2, r5
 8003d1e:	0209      	lsls	r1, r1, #8
 8003d20:	086b      	lsrs	r3, r5, #1
 8003d22:	ea41 6110 	orr.w	r1, r1, r0, lsr #24
 8003d26:	0200      	lsls	r0, r0, #8
 8003d28:	18c0      	adds	r0, r0, r3
 8003d2a:	f04f 0300 	mov.w	r3, #0
 8003d2e:	f141 0100 	adc.w	r1, r1, #0
 8003d32:	f7fc fad5 	bl	80002e0 <__aeabi_uldivmod>
 8003d36:	4b3a      	ldr	r3, [pc, #232]	; (8003e20 <UART_SetConfig+0x2cc>)
 8003d38:	f5a0 7240 	sub.w	r2, r0, #768	; 0x300
 8003d3c:	429a      	cmp	r2, r3
 8003d3e:	d8a8      	bhi.n	8003c92 <UART_SetConfig+0x13e>
 8003d40:	6823      	ldr	r3, [r4, #0]
 8003d42:	60d8      	str	r0, [r3, #12]
 8003d44:	e7b5      	b.n	8003cb2 <UART_SetConfig+0x15e>
 8003d46:	4837      	ldr	r0, [pc, #220]	; (8003e24 <UART_SetConfig+0x2d0>)
 8003d48:	e7d6      	b.n	8003cf8 <UART_SetConfig+0x1a4>
 8003d4a:	2b20      	cmp	r3, #32
 8003d4c:	d03a      	beq.n	8003dc4 <UART_SetConfig+0x270>
 8003d4e:	2b40      	cmp	r3, #64	; 0x40
 8003d50:	d00b      	beq.n	8003d6a <UART_SetConfig+0x216>
 8003d52:	2b10      	cmp	r3, #16
 8003d54:	d19d      	bne.n	8003c92 <UART_SetConfig+0x13e>
 8003d56:	4b1f      	ldr	r3, [pc, #124]	; (8003dd4 <UART_SetConfig+0x280>)
 8003d58:	482f      	ldr	r0, [pc, #188]	; (8003e18 <UART_SetConfig+0x2c4>)
 8003d5a:	681a      	ldr	r2, [r3, #0]
 8003d5c:	f012 0f20 	tst.w	r2, #32
 8003d60:	d003      	beq.n	8003d6a <UART_SetConfig+0x216>
 8003d62:	681b      	ldr	r3, [r3, #0]
 8003d64:	f3c3 03c1 	ubfx	r3, r3, #3, #2
 8003d68:	40d8      	lsrs	r0, r3
 8003d6a:	4b2c      	ldr	r3, [pc, #176]	; (8003e1c <UART_SetConfig+0x2c8>)
 8003d6c:	6a62      	ldr	r2, [r4, #36]	; 0x24
 8003d6e:	6861      	ldr	r1, [r4, #4]
 8003d70:	f833 2012 	ldrh.w	r2, [r3, r2, lsl #1]
 8003d74:	084b      	lsrs	r3, r1, #1
 8003d76:	fbb0 f2f2 	udiv	r2, r0, r2
 8003d7a:	eb03 0342 	add.w	r3, r3, r2, lsl #1
 8003d7e:	f64f 72ef 	movw	r2, #65519	; 0xffef
 8003d82:	fbb3 f3f1 	udiv	r3, r3, r1
 8003d86:	f1a3 0110 	sub.w	r1, r3, #16
 8003d8a:	4291      	cmp	r1, r2
 8003d8c:	d881      	bhi.n	8003c92 <UART_SetConfig+0x13e>
 8003d8e:	f023 020f 	bic.w	r2, r3, #15
 8003d92:	f3c3 0342 	ubfx	r3, r3, #1, #3
 8003d96:	6821      	ldr	r1, [r4, #0]
 8003d98:	b292      	uxth	r2, r2
 8003d9a:	4313      	orrs	r3, r2
 8003d9c:	60cb      	str	r3, [r1, #12]
 8003d9e:	e788      	b.n	8003cb2 <UART_SetConfig+0x15e>
 8003da0:	f7fe fd66 	bl	8002870 <HAL_RCC_GetPCLK1Freq>
 8003da4:	2800      	cmp	r0, #0
 8003da6:	d084      	beq.n	8003cb2 <UART_SetConfig+0x15e>
 8003da8:	e7df      	b.n	8003d6a <UART_SetConfig+0x216>
 8003daa:	f7fe fd73 	bl	8002894 <HAL_RCC_GetPCLK2Freq>
 8003dae:	e7f9      	b.n	8003da4 <UART_SetConfig+0x250>
 8003db0:	4668      	mov	r0, sp
 8003db2:	f7ff fbc1 	bl	8003538 <HAL_RCCEx_GetPLL2ClockFreq>
 8003db6:	9801      	ldr	r0, [sp, #4]
 8003db8:	e7f4      	b.n	8003da4 <UART_SetConfig+0x250>
 8003dba:	a803      	add	r0, sp, #12
 8003dbc:	f7ff fc66 	bl	800368c <HAL_RCCEx_GetPLL3ClockFreq>
 8003dc0:	9804      	ldr	r0, [sp, #16]
 8003dc2:	e7ef      	b.n	8003da4 <UART_SetConfig+0x250>
 8003dc4:	4817      	ldr	r0, [pc, #92]	; (8003e24 <UART_SetConfig+0x2d0>)
 8003dc6:	e7d0      	b.n	8003d6a <UART_SetConfig+0x216>
 8003dc8:	cfff69f3 	.word	0xcfff69f3
 8003dcc:	58000c00 	.word	0x58000c00
 8003dd0:	40011000 	.word	0x40011000
 8003dd4:	58024400 	.word	0x58024400
 8003dd8:	08007728 	.word	0x08007728
 8003ddc:	40004400 	.word	0x40004400
 8003de0:	08007751 	.word	0x08007751
 8003de4:	40004800 	.word	0x40004800
 8003de8:	08007751 	.word	0x08007751
 8003dec:	40004c00 	.word	0x40004c00
 8003df0:	08007751 	.word	0x08007751
 8003df4:	40005000 	.word	0x40005000
 8003df8:	08007751 	.word	0x08007751
 8003dfc:	40011400 	.word	0x40011400
 8003e00:	08007728 	.word	0x08007728
 8003e04:	40007800 	.word	0x40007800
 8003e08:	08007751 	.word	0x08007751
 8003e0c:	40007c00 	.word	0x40007c00
 8003e10:	08007751 	.word	0x08007751
 8003e14:	08007757 	.word	0x08007757
 8003e18:	03d09000 	.word	0x03d09000
 8003e1c:	0800775e 	.word	0x0800775e
 8003e20:	000ffcff 	.word	0x000ffcff
 8003e24:	003d0900 	.word	0x003d0900
 8003e28:	2b08      	cmp	r3, #8
 8003e2a:	d817      	bhi.n	8003e5c <UART_SetConfig+0x308>
 8003e2c:	2b08      	cmp	r3, #8
 8003e2e:	f63f af30 	bhi.w	8003c92 <UART_SetConfig+0x13e>
 8003e32:	a201      	add	r2, pc, #4	; (adr r2, 8003e38 <UART_SetConfig+0x2e4>)
 8003e34:	f852 f023 	ldr.w	pc, [r2, r3, lsl #2]
 8003e38:	08003e9f 	.word	0x08003e9f
 8003e3c:	08003eab 	.word	0x08003eab
 8003e40:	08003c93 	.word	0x08003c93
 8003e44:	08003c93 	.word	0x08003c93
 8003e48:	08003eb1 	.word	0x08003eb1
 8003e4c:	08003c93 	.word	0x08003c93
 8003e50:	08003c93 	.word	0x08003c93
 8003e54:	08003c93 	.word	0x08003c93
 8003e58:	08003ebb 	.word	0x08003ebb
 8003e5c:	2b20      	cmp	r3, #32
 8003e5e:	d031      	beq.n	8003ec4 <UART_SetConfig+0x370>
 8003e60:	2b40      	cmp	r3, #64	; 0x40
 8003e62:	d031      	beq.n	8003ec8 <UART_SetConfig+0x374>
 8003e64:	2b10      	cmp	r3, #16
 8003e66:	f47f af14 	bne.w	8003c92 <UART_SetConfig+0x13e>
 8003e6a:	4b19      	ldr	r3, [pc, #100]	; (8003ed0 <UART_SetConfig+0x37c>)
 8003e6c:	4819      	ldr	r0, [pc, #100]	; (8003ed4 <UART_SetConfig+0x380>)
 8003e6e:	681a      	ldr	r2, [r3, #0]
 8003e70:	f012 0f20 	tst.w	r2, #32
 8003e74:	d003      	beq.n	8003e7e <UART_SetConfig+0x32a>
 8003e76:	681b      	ldr	r3, [r3, #0]
 8003e78:	f3c3 03c1 	ubfx	r3, r3, #3, #2
 8003e7c:	40d8      	lsrs	r0, r3
 8003e7e:	6a61      	ldr	r1, [r4, #36]	; 0x24
 8003e80:	4a15      	ldr	r2, [pc, #84]	; (8003ed8 <UART_SetConfig+0x384>)
 8003e82:	6863      	ldr	r3, [r4, #4]
 8003e84:	f832 2011 	ldrh.w	r2, [r2, r1, lsl #1]
 8003e88:	fbb0 f0f2 	udiv	r0, r0, r2
 8003e8c:	eb00 0053 	add.w	r0, r0, r3, lsr #1
 8003e90:	fbb0 f0f3 	udiv	r0, r0, r3
 8003e94:	f64f 73ef 	movw	r3, #65519	; 0xffef
 8003e98:	f1a0 0210 	sub.w	r2, r0, #16
 8003e9c:	e74e      	b.n	8003d3c <UART_SetConfig+0x1e8>
 8003e9e:	f7fe fce7 	bl	8002870 <HAL_RCC_GetPCLK1Freq>
 8003ea2:	2800      	cmp	r0, #0
 8003ea4:	f43f af05 	beq.w	8003cb2 <UART_SetConfig+0x15e>
 8003ea8:	e7e9      	b.n	8003e7e <UART_SetConfig+0x32a>
 8003eaa:	f7fe fcf3 	bl	8002894 <HAL_RCC_GetPCLK2Freq>
 8003eae:	e7f8      	b.n	8003ea2 <UART_SetConfig+0x34e>
 8003eb0:	4668      	mov	r0, sp
 8003eb2:	f7ff fb41 	bl	8003538 <HAL_RCCEx_GetPLL2ClockFreq>
 8003eb6:	9801      	ldr	r0, [sp, #4]
 8003eb8:	e7f3      	b.n	8003ea2 <UART_SetConfig+0x34e>
 8003eba:	a803      	add	r0, sp, #12
 8003ebc:	f7ff fbe6 	bl	800368c <HAL_RCCEx_GetPLL3ClockFreq>
 8003ec0:	9804      	ldr	r0, [sp, #16]
 8003ec2:	e7ee      	b.n	8003ea2 <UART_SetConfig+0x34e>
 8003ec4:	4805      	ldr	r0, [pc, #20]	; (8003edc <UART_SetConfig+0x388>)
 8003ec6:	e7da      	b.n	8003e7e <UART_SetConfig+0x32a>
 8003ec8:	f44f 4000 	mov.w	r0, #32768	; 0x8000
 8003ecc:	e7d7      	b.n	8003e7e <UART_SetConfig+0x32a>
 8003ece:	bf00      	nop
 8003ed0:	58024400 	.word	0x58024400
 8003ed4:	03d09000 	.word	0x03d09000
 8003ed8:	0800775e 	.word	0x0800775e
 8003edc:	003d0900 	.word	0x003d0900

08003ee0 <UART_AdvFeatureConfig>:
 8003ee0:	6a83      	ldr	r3, [r0, #40]	; 0x28
 8003ee2:	07da      	lsls	r2, r3, #31
 8003ee4:	b510      	push	{r4, lr}
 8003ee6:	d506      	bpl.n	8003ef6 <UART_AdvFeatureConfig+0x16>
 8003ee8:	6801      	ldr	r1, [r0, #0]
 8003eea:	6ac4      	ldr	r4, [r0, #44]	; 0x2c
 8003eec:	684a      	ldr	r2, [r1, #4]
 8003eee:	f422 3200 	bic.w	r2, r2, #131072	; 0x20000
 8003ef2:	4322      	orrs	r2, r4
 8003ef4:	604a      	str	r2, [r1, #4]
 8003ef6:	079c      	lsls	r4, r3, #30
 8003ef8:	d506      	bpl.n	8003f08 <UART_AdvFeatureConfig+0x28>
 8003efa:	6801      	ldr	r1, [r0, #0]
 8003efc:	6b04      	ldr	r4, [r0, #48]	; 0x30
 8003efe:	684a      	ldr	r2, [r1, #4]
 8003f00:	f422 3280 	bic.w	r2, r2, #65536	; 0x10000
 8003f04:	4322      	orrs	r2, r4
 8003f06:	604a      	str	r2, [r1, #4]
 8003f08:	0759      	lsls	r1, r3, #29
 8003f0a:	d506      	bpl.n	8003f1a <UART_AdvFeatureConfig+0x3a>
 8003f0c:	6801      	ldr	r1, [r0, #0]
 8003f0e:	6b44      	ldr	r4, [r0, #52]	; 0x34
 8003f10:	684a      	ldr	r2, [r1, #4]
 8003f12:	f422 2280 	bic.w	r2, r2, #262144	; 0x40000
 8003f16:	4322      	orrs	r2, r4
 8003f18:	604a      	str	r2, [r1, #4]
 8003f1a:	071a      	lsls	r2, r3, #28
 8003f1c:	d506      	bpl.n	8003f2c <UART_AdvFeatureConfig+0x4c>
 8003f1e:	6801      	ldr	r1, [r0, #0]
 8003f20:	6b84      	ldr	r4, [r0, #56]	; 0x38
 8003f22:	684a      	ldr	r2, [r1, #4]
 8003f24:	f422 4200 	bic.w	r2, r2, #32768	; 0x8000
 8003f28:	4322      	orrs	r2, r4
 8003f2a:	604a      	str	r2, [r1, #4]
 8003f2c:	06dc      	lsls	r4, r3, #27
 8003f2e:	d506      	bpl.n	8003f3e <UART_AdvFeatureConfig+0x5e>
 8003f30:	6801      	ldr	r1, [r0, #0]
 8003f32:	6bc4      	ldr	r4, [r0, #60]	; 0x3c
 8003f34:	688a      	ldr	r2, [r1, #8]
 8003f36:	f422 5280 	bic.w	r2, r2, #4096	; 0x1000
 8003f3a:	4322      	orrs	r2, r4
 8003f3c:	608a      	str	r2, [r1, #8]
 8003f3e:	0699      	lsls	r1, r3, #26
 8003f40:	d506      	bpl.n	8003f50 <UART_AdvFeatureConfig+0x70>
 8003f42:	6801      	ldr	r1, [r0, #0]
 8003f44:	6c04      	ldr	r4, [r0, #64]	; 0x40
 8003f46:	688a      	ldr	r2, [r1, #8]
 8003f48:	f422 5200 	bic.w	r2, r2, #8192	; 0x2000
 8003f4c:	4322      	orrs	r2, r4
 8003f4e:	608a      	str	r2, [r1, #8]
 8003f50:	065a      	lsls	r2, r3, #25
 8003f52:	d510      	bpl.n	8003f76 <UART_AdvFeatureConfig+0x96>
 8003f54:	6801      	ldr	r1, [r0, #0]
 8003f56:	6c44      	ldr	r4, [r0, #68]	; 0x44
 8003f58:	684a      	ldr	r2, [r1, #4]
 8003f5a:	f5b4 1f80 	cmp.w	r4, #1048576	; 0x100000
 8003f5e:	f422 1280 	bic.w	r2, r2, #1048576	; 0x100000
 8003f62:	ea42 0204 	orr.w	r2, r2, r4
 8003f66:	604a      	str	r2, [r1, #4]
 8003f68:	d105      	bne.n	8003f76 <UART_AdvFeatureConfig+0x96>
 8003f6a:	684a      	ldr	r2, [r1, #4]
 8003f6c:	6c84      	ldr	r4, [r0, #72]	; 0x48
 8003f6e:	f422 02c0 	bic.w	r2, r2, #6291456	; 0x600000
 8003f72:	4322      	orrs	r2, r4
 8003f74:	604a      	str	r2, [r1, #4]
 8003f76:	061b      	lsls	r3, r3, #24
 8003f78:	d506      	bpl.n	8003f88 <UART_AdvFeatureConfig+0xa8>
 8003f7a:	6802      	ldr	r2, [r0, #0]
 8003f7c:	6cc1      	ldr	r1, [r0, #76]	; 0x4c
 8003f7e:	6853      	ldr	r3, [r2, #4]
 8003f80:	f423 2300 	bic.w	r3, r3, #524288	; 0x80000
 8003f84:	430b      	orrs	r3, r1
 8003f86:	6053      	str	r3, [r2, #4]
 8003f88:	bd10      	pop	{r4, pc}

08003f8a <UART_WaitOnFlagUntilTimeout>:
 8003f8a:	e92d 43f8 	stmdb	sp!, {r3, r4, r5, r6, r7, r8, r9, lr}
 8003f8e:	f8dd 9020 	ldr.w	r9, [sp, #32]
 8003f92:	4604      	mov	r4, r0
 8003f94:	460f      	mov	r7, r1
 8003f96:	4616      	mov	r6, r2
 8003f98:	4698      	mov	r8, r3
 8003f9a:	6822      	ldr	r2, [r4, #0]
 8003f9c:	69d3      	ldr	r3, [r2, #28]
 8003f9e:	ea37 0303 	bics.w	r3, r7, r3
 8003fa2:	bf0c      	ite	eq
 8003fa4:	2301      	moveq	r3, #1
 8003fa6:	2300      	movne	r3, #0
 8003fa8:	42b3      	cmp	r3, r6
 8003faa:	d001      	beq.n	8003fb0 <UART_WaitOnFlagUntilTimeout+0x26>
 8003fac:	2000      	movs	r0, #0
 8003fae:	e01e      	b.n	8003fee <UART_WaitOnFlagUntilTimeout+0x64>
 8003fb0:	f1b9 3fff 	cmp.w	r9, #4294967295
 8003fb4:	d0f2      	beq.n	8003f9c <UART_WaitOnFlagUntilTimeout+0x12>
 8003fb6:	f7fc ffe1 	bl	8000f7c <HAL_GetTick>
 8003fba:	eba0 0008 	sub.w	r0, r0, r8
 8003fbe:	4548      	cmp	r0, r9
 8003fc0:	d825      	bhi.n	800400e <UART_WaitOnFlagUntilTimeout+0x84>
 8003fc2:	f1b9 0f00 	cmp.w	r9, #0
 8003fc6:	d022      	beq.n	800400e <UART_WaitOnFlagUntilTimeout+0x84>
 8003fc8:	6820      	ldr	r0, [r4, #0]
 8003fca:	6803      	ldr	r3, [r0, #0]
 8003fcc:	075a      	lsls	r2, r3, #29
 8003fce:	d5e4      	bpl.n	8003f9a <UART_WaitOnFlagUntilTimeout+0x10>
 8003fd0:	69c5      	ldr	r5, [r0, #28]
 8003fd2:	f015 0508 	ands.w	r5, r5, #8
 8003fd6:	d00c      	beq.n	8003ff2 <UART_WaitOnFlagUntilTimeout+0x68>
 8003fd8:	2508      	movs	r5, #8
 8003fda:	6205      	str	r5, [r0, #32]
 8003fdc:	4620      	mov	r0, r4
 8003fde:	f7ff fd8d 	bl	8003afc <UART_EndRxTransfer>
 8003fe2:	2300      	movs	r3, #0
 8003fe4:	2001      	movs	r0, #1
 8003fe6:	f8c4 5090 	str.w	r5, [r4, #144]	; 0x90
 8003fea:	f884 3084 	strb.w	r3, [r4, #132]	; 0x84
 8003fee:	e8bd 83f8 	ldmia.w	sp!, {r3, r4, r5, r6, r7, r8, r9, pc}
 8003ff2:	69c3      	ldr	r3, [r0, #28]
 8003ff4:	051b      	lsls	r3, r3, #20
 8003ff6:	d5d0      	bpl.n	8003f9a <UART_WaitOnFlagUntilTimeout+0x10>
 8003ff8:	f44f 6300 	mov.w	r3, #2048	; 0x800
 8003ffc:	6203      	str	r3, [r0, #32]
 8003ffe:	4620      	mov	r0, r4
 8004000:	f7ff fd7c 	bl	8003afc <UART_EndRxTransfer>
 8004004:	2320      	movs	r3, #32
 8004006:	f884 5084 	strb.w	r5, [r4, #132]	; 0x84
 800400a:	f8c4 3090 	str.w	r3, [r4, #144]	; 0x90
 800400e:	2003      	movs	r0, #3
 8004010:	e7ed      	b.n	8003fee <UART_WaitOnFlagUntilTimeout+0x64>

08004012 <UART_CheckIdleState>:
 8004012:	b530      	push	{r4, r5, lr}
 8004014:	2500      	movs	r5, #0
 8004016:	4604      	mov	r4, r0
 8004018:	b085      	sub	sp, #20
 800401a:	f8c0 5090 	str.w	r5, [r0, #144]	; 0x90
 800401e:	f7fc ffad 	bl	8000f7c <HAL_GetTick>
 8004022:	6822      	ldr	r2, [r4, #0]
 8004024:	4603      	mov	r3, r0
 8004026:	6812      	ldr	r2, [r2, #0]
 8004028:	0711      	lsls	r1, r2, #28
 800402a:	d51d      	bpl.n	8004068 <UART_CheckIdleState+0x56>
 800402c:	f06f 427e 	mvn.w	r2, #4261412864	; 0xfe000000
 8004030:	9003      	str	r0, [sp, #12]
 8004032:	f44f 1100 	mov.w	r1, #2097152	; 0x200000
 8004036:	4620      	mov	r0, r4
 8004038:	9200      	str	r2, [sp, #0]
 800403a:	462a      	mov	r2, r5
 800403c:	f7ff ffa5 	bl	8003f8a <UART_WaitOnFlagUntilTimeout>
 8004040:	9b03      	ldr	r3, [sp, #12]
 8004042:	b188      	cbz	r0, 8004068 <UART_CheckIdleState+0x56>
 8004044:	6822      	ldr	r2, [r4, #0]
 8004046:	e852 3f00 	ldrex	r3, [r2]
 800404a:	f023 0380 	bic.w	r3, r3, #128	; 0x80
 800404e:	e842 3100 	strex	r1, r3, [r2]
 8004052:	2900      	cmp	r1, #0
 8004054:	d1f6      	bne.n	8004044 <UART_CheckIdleState+0x32>
 8004056:	2320      	movs	r3, #32
 8004058:	f8c4 3088 	str.w	r3, [r4, #136]	; 0x88
 800405c:	2003      	movs	r0, #3
 800405e:	2300      	movs	r3, #0
 8004060:	f884 3084 	strb.w	r3, [r4, #132]	; 0x84
 8004064:	b005      	add	sp, #20
 8004066:	bd30      	pop	{r4, r5, pc}
 8004068:	6822      	ldr	r2, [r4, #0]
 800406a:	6812      	ldr	r2, [r2, #0]
 800406c:	0752      	lsls	r2, r2, #29
 800406e:	d523      	bpl.n	80040b8 <UART_CheckIdleState+0xa6>
 8004070:	f06f 427e 	mvn.w	r2, #4261412864	; 0xfe000000
 8004074:	f44f 0180 	mov.w	r1, #4194304	; 0x400000
 8004078:	4620      	mov	r0, r4
 800407a:	9200      	str	r2, [sp, #0]
 800407c:	2200      	movs	r2, #0
 800407e:	f7ff ff84 	bl	8003f8a <UART_WaitOnFlagUntilTimeout>
 8004082:	b1c8      	cbz	r0, 80040b8 <UART_CheckIdleState+0xa6>
 8004084:	6822      	ldr	r2, [r4, #0]
 8004086:	e852 3f00 	ldrex	r3, [r2]
 800408a:	f423 7390 	bic.w	r3, r3, #288	; 0x120
 800408e:	e842 3100 	strex	r1, r3, [r2]
 8004092:	6822      	ldr	r2, [r4, #0]
 8004094:	2900      	cmp	r1, #0
 8004096:	d1f5      	bne.n	8004084 <UART_CheckIdleState+0x72>
 8004098:	f102 0308 	add.w	r3, r2, #8
 800409c:	e853 3f00 	ldrex	r3, [r3]
 80040a0:	f023 0301 	bic.w	r3, r3, #1
 80040a4:	f102 0008 	add.w	r0, r2, #8
 80040a8:	e840 3100 	strex	r1, r3, [r0]
 80040ac:	2900      	cmp	r1, #0
 80040ae:	d1f3      	bne.n	8004098 <UART_CheckIdleState+0x86>
 80040b0:	2320      	movs	r3, #32
 80040b2:	f8c4 308c 	str.w	r3, [r4, #140]	; 0x8c
 80040b6:	e7d1      	b.n	800405c <UART_CheckIdleState+0x4a>
 80040b8:	2320      	movs	r3, #32
 80040ba:	2000      	movs	r0, #0
 80040bc:	f8c4 3088 	str.w	r3, [r4, #136]	; 0x88
 80040c0:	f8c4 308c 	str.w	r3, [r4, #140]	; 0x8c
 80040c4:	66e0      	str	r0, [r4, #108]	; 0x6c
 80040c6:	6720      	str	r0, [r4, #112]	; 0x70
 80040c8:	e7c9      	b.n	800405e <UART_CheckIdleState+0x4c>

080040ca <HAL_UART_Init>:
 80040ca:	b510      	push	{r4, lr}
 80040cc:	4604      	mov	r4, r0
 80040ce:	b350      	cbz	r0, 8004126 <HAL_UART_Init+0x5c>
 80040d0:	f8d0 3088 	ldr.w	r3, [r0, #136]	; 0x88
 80040d4:	b91b      	cbnz	r3, 80040de <HAL_UART_Init+0x14>
 80040d6:	f880 3084 	strb.w	r3, [r0, #132]	; 0x84
 80040da:	f7fc fe29 	bl	8000d30 <HAL_UART_MspInit>
 80040de:	6822      	ldr	r2, [r4, #0]
 80040e0:	2324      	movs	r3, #36	; 0x24
 80040e2:	4620      	mov	r0, r4
 80040e4:	f8c4 3088 	str.w	r3, [r4, #136]	; 0x88
 80040e8:	6813      	ldr	r3, [r2, #0]
 80040ea:	f023 0301 	bic.w	r3, r3, #1
 80040ee:	6013      	str	r3, [r2, #0]
 80040f0:	f7ff fd30 	bl	8003b54 <UART_SetConfig>
 80040f4:	2801      	cmp	r0, #1
 80040f6:	d016      	beq.n	8004126 <HAL_UART_Init+0x5c>
 80040f8:	6aa3      	ldr	r3, [r4, #40]	; 0x28
 80040fa:	b113      	cbz	r3, 8004102 <HAL_UART_Init+0x38>
 80040fc:	4620      	mov	r0, r4
 80040fe:	f7ff feef 	bl	8003ee0 <UART_AdvFeatureConfig>
 8004102:	6823      	ldr	r3, [r4, #0]
 8004104:	4620      	mov	r0, r4
 8004106:	685a      	ldr	r2, [r3, #4]
 8004108:	f422 4290 	bic.w	r2, r2, #18432	; 0x4800
 800410c:	605a      	str	r2, [r3, #4]
 800410e:	689a      	ldr	r2, [r3, #8]
 8004110:	f022 022a 	bic.w	r2, r2, #42	; 0x2a
 8004114:	609a      	str	r2, [r3, #8]
 8004116:	681a      	ldr	r2, [r3, #0]
 8004118:	f042 0201 	orr.w	r2, r2, #1
 800411c:	e8bd 4010 	ldmia.w	sp!, {r4, lr}
 8004120:	601a      	str	r2, [r3, #0]
 8004122:	f7ff bf76 	b.w	8004012 <UART_CheckIdleState>
 8004126:	2001      	movs	r0, #1
 8004128:	bd10      	pop	{r4, pc}
	...

0800412c <UARTEx_SetNbDataToProcess>:
 800412c:	6e43      	ldr	r3, [r0, #100]	; 0x64
 800412e:	b530      	push	{r4, r5, lr}
 8004130:	b92b      	cbnz	r3, 800413e <UARTEx_SetNbDataToProcess+0x12>
 8004132:	2301      	movs	r3, #1
 8004134:	f8a0 306a 	strh.w	r3, [r0, #106]	; 0x6a
 8004138:	f8a0 3068 	strh.w	r3, [r0, #104]	; 0x68
 800413c:	bd30      	pop	{r4, r5, pc}
 800413e:	6803      	ldr	r3, [r0, #0]
 8004140:	4d09      	ldr	r5, [pc, #36]	; (8004168 <UARTEx_SetNbDataToProcess+0x3c>)
 8004142:	689a      	ldr	r2, [r3, #8]
 8004144:	6899      	ldr	r1, [r3, #8]
 8004146:	4c09      	ldr	r4, [pc, #36]	; (800416c <UARTEx_SetNbDataToProcess+0x40>)
 8004148:	f3c2 6242 	ubfx	r2, r2, #25, #3
 800414c:	0f49      	lsrs	r1, r1, #29
 800414e:	5c6b      	ldrb	r3, [r5, r1]
 8004150:	5c61      	ldrb	r1, [r4, r1]
 8004152:	011b      	lsls	r3, r3, #4
 8004154:	fbb3 f3f1 	udiv	r3, r3, r1
 8004158:	f8a0 306a 	strh.w	r3, [r0, #106]	; 0x6a
 800415c:	5cab      	ldrb	r3, [r5, r2]
 800415e:	5ca2      	ldrb	r2, [r4, r2]
 8004160:	011b      	lsls	r3, r3, #4
 8004162:	fbb3 f3f2 	udiv	r3, r3, r2
 8004166:	e7e7      	b.n	8004138 <UARTEx_SetNbDataToProcess+0xc>
 8004168:	0800777e 	.word	0x0800777e
 800416c:	08007776 	.word	0x08007776

08004170 <HAL_UARTEx_DisableFifoMode>:
 8004170:	f890 3084 	ldrb.w	r3, [r0, #132]	; 0x84
 8004174:	2b01      	cmp	r3, #1
 8004176:	d014      	beq.n	80041a2 <HAL_UARTEx_DisableFifoMode+0x32>
 8004178:	6802      	ldr	r2, [r0, #0]
 800417a:	2324      	movs	r3, #36	; 0x24
 800417c:	f8c0 3088 	str.w	r3, [r0, #136]	; 0x88
 8004180:	6811      	ldr	r1, [r2, #0]
 8004182:	6813      	ldr	r3, [r2, #0]
 8004184:	f021 5100 	bic.w	r1, r1, #536870912	; 0x20000000
 8004188:	f023 0301 	bic.w	r3, r3, #1
 800418c:	6013      	str	r3, [r2, #0]
 800418e:	2300      	movs	r3, #0
 8004190:	6643      	str	r3, [r0, #100]	; 0x64
 8004192:	6011      	str	r1, [r2, #0]
 8004194:	2220      	movs	r2, #32
 8004196:	f880 3084 	strb.w	r3, [r0, #132]	; 0x84
 800419a:	f8c0 2088 	str.w	r2, [r0, #136]	; 0x88
 800419e:	4618      	mov	r0, r3
 80041a0:	4770      	bx	lr
 80041a2:	2002      	movs	r0, #2
 80041a4:	4770      	bx	lr

080041a6 <HAL_UARTEx_SetTxFifoThreshold>:
 80041a6:	b570      	push	{r4, r5, r6, lr}
 80041a8:	f890 3084 	ldrb.w	r3, [r0, #132]	; 0x84
 80041ac:	4604      	mov	r4, r0
 80041ae:	2b01      	cmp	r3, #1
 80041b0:	d017      	beq.n	80041e2 <HAL_UARTEx_SetTxFifoThreshold+0x3c>
 80041b2:	6805      	ldr	r5, [r0, #0]
 80041b4:	2324      	movs	r3, #36	; 0x24
 80041b6:	f8c0 3088 	str.w	r3, [r0, #136]	; 0x88
 80041ba:	682e      	ldr	r6, [r5, #0]
 80041bc:	682b      	ldr	r3, [r5, #0]
 80041be:	f023 0301 	bic.w	r3, r3, #1
 80041c2:	602b      	str	r3, [r5, #0]
 80041c4:	68ab      	ldr	r3, [r5, #8]
 80041c6:	f023 4360 	bic.w	r3, r3, #3758096384	; 0xe0000000
 80041ca:	4319      	orrs	r1, r3
 80041cc:	60a9      	str	r1, [r5, #8]
 80041ce:	f7ff ffad 	bl	800412c <UARTEx_SetNbDataToProcess>
 80041d2:	2320      	movs	r3, #32
 80041d4:	602e      	str	r6, [r5, #0]
 80041d6:	f8c0 3088 	str.w	r3, [r0, #136]	; 0x88
 80041da:	2000      	movs	r0, #0
 80041dc:	f884 0084 	strb.w	r0, [r4, #132]	; 0x84
 80041e0:	bd70      	pop	{r4, r5, r6, pc}
 80041e2:	2002      	movs	r0, #2
 80041e4:	e7fc      	b.n	80041e0 <HAL_UARTEx_SetTxFifoThreshold+0x3a>

080041e6 <HAL_UARTEx_SetRxFifoThreshold>:
 80041e6:	b570      	push	{r4, r5, r6, lr}
 80041e8:	f890 3084 	ldrb.w	r3, [r0, #132]	; 0x84
 80041ec:	4604      	mov	r4, r0
 80041ee:	2b01      	cmp	r3, #1
 80041f0:	d017      	beq.n	8004222 <HAL_UARTEx_SetRxFifoThreshold+0x3c>
 80041f2:	6805      	ldr	r5, [r0, #0]
 80041f4:	2324      	movs	r3, #36	; 0x24
 80041f6:	f8c0 3088 	str.w	r3, [r0, #136]	; 0x88
 80041fa:	682e      	ldr	r6, [r5, #0]
 80041fc:	682b      	ldr	r3, [r5, #0]
 80041fe:	f023 0301 	bic.w	r3, r3, #1
 8004202:	602b      	str	r3, [r5, #0]
 8004204:	68ab      	ldr	r3, [r5, #8]
 8004206:	f023 6360 	bic.w	r3, r3, #234881024	; 0xe000000
 800420a:	4319      	orrs	r1, r3
 800420c:	60a9      	str	r1, [r5, #8]
 800420e:	f7ff ff8d 	bl	800412c <UARTEx_SetNbDataToProcess>
 8004212:	2320      	movs	r3, #32
 8004214:	602e      	str	r6, [r5, #0]
 8004216:	f8c0 3088 	str.w	r3, [r0, #136]	; 0x88
 800421a:	2000      	movs	r0, #0
 800421c:	f884 0084 	strb.w	r0, [r4, #132]	; 0x84
 8004220:	bd70      	pop	{r4, r5, r6, pc}
 8004222:	2002      	movs	r0, #2
 8004224:	e7fc      	b.n	8004220 <HAL_UARTEx_SetRxFifoThreshold+0x3a>
	...

08004228 <USB_CoreReset>:
 8004228:	b082      	sub	sp, #8
 800422a:	2300      	movs	r3, #0
 800422c:	4a10      	ldr	r2, [pc, #64]	; (8004270 <USB_CoreReset+0x48>)
 800422e:	9301      	str	r3, [sp, #4]
 8004230:	9b01      	ldr	r3, [sp, #4]
 8004232:	3301      	adds	r3, #1
 8004234:	9301      	str	r3, [sp, #4]
 8004236:	9b01      	ldr	r3, [sp, #4]
 8004238:	4293      	cmp	r3, r2
 800423a:	d816      	bhi.n	800426a <USB_CoreReset+0x42>
 800423c:	6903      	ldr	r3, [r0, #16]
 800423e:	2b00      	cmp	r3, #0
 8004240:	daf6      	bge.n	8004230 <USB_CoreReset+0x8>
 8004242:	2300      	movs	r3, #0
 8004244:	4a0a      	ldr	r2, [pc, #40]	; (8004270 <USB_CoreReset+0x48>)
 8004246:	9301      	str	r3, [sp, #4]
 8004248:	6903      	ldr	r3, [r0, #16]
 800424a:	f043 0301 	orr.w	r3, r3, #1
 800424e:	6103      	str	r3, [r0, #16]
 8004250:	9b01      	ldr	r3, [sp, #4]
 8004252:	3301      	adds	r3, #1
 8004254:	9301      	str	r3, [sp, #4]
 8004256:	9b01      	ldr	r3, [sp, #4]
 8004258:	4293      	cmp	r3, r2
 800425a:	d806      	bhi.n	800426a <USB_CoreReset+0x42>
 800425c:	6903      	ldr	r3, [r0, #16]
 800425e:	f013 0301 	ands.w	r3, r3, #1
 8004262:	d1f5      	bne.n	8004250 <USB_CoreReset+0x28>
 8004264:	4618      	mov	r0, r3
 8004266:	b002      	add	sp, #8
 8004268:	4770      	bx	lr
 800426a:	2003      	movs	r0, #3
 800426c:	e7fb      	b.n	8004266 <USB_CoreReset+0x3e>
 800426e:	bf00      	nop
 8004270:	00030d40 	.word	0x00030d40

08004274 <USB_CoreInit>:
 8004274:	b084      	sub	sp, #16
 8004276:	b538      	push	{r3, r4, r5, lr}
 8004278:	ad05      	add	r5, sp, #20
 800427a:	4604      	mov	r4, r0
 800427c:	e885 000e 	stmia.w	r5, {r1, r2, r3}
 8004280:	9b0a      	ldr	r3, [sp, #40]	; 0x28
 8004282:	2b01      	cmp	r3, #1
 8004284:	d12f      	bne.n	80042e6 <USB_CoreInit+0x72>
 8004286:	6b83      	ldr	r3, [r0, #56]	; 0x38
 8004288:	f423 3380 	bic.w	r3, r3, #65536	; 0x10000
 800428c:	6383      	str	r3, [r0, #56]	; 0x38
 800428e:	68c3      	ldr	r3, [r0, #12]
 8004290:	f423 0384 	bic.w	r3, r3, #4325376	; 0x420000
 8004294:	f023 0340 	bic.w	r3, r3, #64	; 0x40
 8004298:	60c3      	str	r3, [r0, #12]
 800429a:	68c3      	ldr	r3, [r0, #12]
 800429c:	f423 1340 	bic.w	r3, r3, #3145728	; 0x300000
 80042a0:	60c3      	str	r3, [r0, #12]
 80042a2:	9b11      	ldr	r3, [sp, #68]	; 0x44
 80042a4:	2b01      	cmp	r3, #1
 80042a6:	d103      	bne.n	80042b0 <USB_CoreInit+0x3c>
 80042a8:	68c3      	ldr	r3, [r0, #12]
 80042aa:	f443 1380 	orr.w	r3, r3, #1048576	; 0x100000
 80042ae:	60c3      	str	r3, [r0, #12]
 80042b0:	4620      	mov	r0, r4
 80042b2:	f7ff ffb9 	bl	8004228 <USB_CoreReset>
 80042b6:	9b07      	ldr	r3, [sp, #28]
 80042b8:	2b01      	cmp	r3, #1
 80042ba:	d110      	bne.n	80042de <USB_CoreInit+0x6a>
 80042bc:	6de3      	ldr	r3, [r4, #92]	; 0x5c
 80042be:	b29b      	uxth	r3, r3
 80042c0:	65e3      	str	r3, [r4, #92]	; 0x5c
 80042c2:	6de3      	ldr	r3, [r4, #92]	; 0x5c
 80042c4:	f043 737b 	orr.w	r3, r3, #65798144	; 0x3ec0000
 80042c8:	f443 3300 	orr.w	r3, r3, #131072	; 0x20000
 80042cc:	65e3      	str	r3, [r4, #92]	; 0x5c
 80042ce:	68a3      	ldr	r3, [r4, #8]
 80042d0:	f043 0306 	orr.w	r3, r3, #6
 80042d4:	60a3      	str	r3, [r4, #8]
 80042d6:	68a3      	ldr	r3, [r4, #8]
 80042d8:	f043 0320 	orr.w	r3, r3, #32
 80042dc:	60a3      	str	r3, [r4, #8]
 80042de:	e8bd 4038 	ldmia.w	sp!, {r3, r4, r5, lr}
 80042e2:	b004      	add	sp, #16
 80042e4:	4770      	bx	lr
 80042e6:	68c3      	ldr	r3, [r0, #12]
 80042e8:	f043 0340 	orr.w	r3, r3, #64	; 0x40
 80042ec:	60c3      	str	r3, [r0, #12]
 80042ee:	f7ff ff9b 	bl	8004228 <USB_CoreReset>
 80042f2:	9b0e      	ldr	r3, [sp, #56]	; 0x38
 80042f4:	b923      	cbnz	r3, 8004300 <USB_CoreInit+0x8c>
 80042f6:	6ba3      	ldr	r3, [r4, #56]	; 0x38
 80042f8:	f443 3380 	orr.w	r3, r3, #65536	; 0x10000
 80042fc:	63a3      	str	r3, [r4, #56]	; 0x38
 80042fe:	e7da      	b.n	80042b6 <USB_CoreInit+0x42>
 8004300:	6ba3      	ldr	r3, [r4, #56]	; 0x38
 8004302:	f423 3380 	bic.w	r3, r3, #65536	; 0x10000
 8004306:	e7f9      	b.n	80042fc <USB_CoreInit+0x88>

08004308 <USB_DisableGlobalInt>:
 8004308:	6883      	ldr	r3, [r0, #8]
 800430a:	f023 0301 	bic.w	r3, r3, #1
 800430e:	6083      	str	r3, [r0, #8]
 8004310:	2000      	movs	r0, #0
 8004312:	4770      	bx	lr

08004314 <USB_SetCurrentMode>:
 8004314:	b538      	push	{r3, r4, r5, lr}
 8004316:	68c3      	ldr	r3, [r0, #12]
 8004318:	2901      	cmp	r1, #1
 800431a:	4605      	mov	r5, r0
 800431c:	f023 43c0 	bic.w	r3, r3, #1610612736	; 0x60000000
 8004320:	60c3      	str	r3, [r0, #12]
 8004322:	d10f      	bne.n	8004344 <USB_SetCurrentMode+0x30>
 8004324:	68c3      	ldr	r3, [r0, #12]
 8004326:	2400      	movs	r4, #0
 8004328:	f043 5300 	orr.w	r3, r3, #536870912	; 0x20000000
 800432c:	60c3      	str	r3, [r0, #12]
 800432e:	2001      	movs	r0, #1
 8004330:	3401      	adds	r4, #1
 8004332:	f7fc fe29 	bl	8000f88 <HAL_Delay>
 8004336:	696b      	ldr	r3, [r5, #20]
 8004338:	07d9      	lsls	r1, r3, #31
 800433a:	d414      	bmi.n	8004366 <USB_SetCurrentMode+0x52>
 800433c:	2c32      	cmp	r4, #50	; 0x32
 800433e:	d1f6      	bne.n	800432e <USB_SetCurrentMode+0x1a>
 8004340:	2001      	movs	r0, #1
 8004342:	bd38      	pop	{r3, r4, r5, pc}
 8004344:	2900      	cmp	r1, #0
 8004346:	d1fb      	bne.n	8004340 <USB_SetCurrentMode+0x2c>
 8004348:	68c3      	ldr	r3, [r0, #12]
 800434a:	460c      	mov	r4, r1
 800434c:	f043 4380 	orr.w	r3, r3, #1073741824	; 0x40000000
 8004350:	60c3      	str	r3, [r0, #12]
 8004352:	2001      	movs	r0, #1
 8004354:	3401      	adds	r4, #1
 8004356:	f7fc fe17 	bl	8000f88 <HAL_Delay>
 800435a:	696b      	ldr	r3, [r5, #20]
 800435c:	07da      	lsls	r2, r3, #31
 800435e:	d502      	bpl.n	8004366 <USB_SetCurrentMode+0x52>
 8004360:	2c32      	cmp	r4, #50	; 0x32
 8004362:	d1f6      	bne.n	8004352 <USB_SetCurrentMode+0x3e>
 8004364:	e7ec      	b.n	8004340 <USB_SetCurrentMode+0x2c>
 8004366:	f1a4 0332 	sub.w	r3, r4, #50	; 0x32
 800436a:	4258      	negs	r0, r3
 800436c:	4158      	adcs	r0, r3
 800436e:	e7e8      	b.n	8004342 <USB_SetCurrentMode+0x2e>

08004370 <USB_FlushTxFifo>:
 8004370:	b082      	sub	sp, #8
 8004372:	2300      	movs	r3, #0
 8004374:	4a10      	ldr	r2, [pc, #64]	; (80043b8 <USB_FlushTxFifo+0x48>)
 8004376:	9301      	str	r3, [sp, #4]
 8004378:	9b01      	ldr	r3, [sp, #4]
 800437a:	3301      	adds	r3, #1
 800437c:	9301      	str	r3, [sp, #4]
 800437e:	9b01      	ldr	r3, [sp, #4]
 8004380:	4293      	cmp	r3, r2
 8004382:	d816      	bhi.n	80043b2 <USB_FlushTxFifo+0x42>
 8004384:	6903      	ldr	r3, [r0, #16]
 8004386:	2b00      	cmp	r3, #0
 8004388:	daf6      	bge.n	8004378 <USB_FlushTxFifo+0x8>
 800438a:	0189      	lsls	r1, r1, #6
 800438c:	2300      	movs	r3, #0
 800438e:	4a0a      	ldr	r2, [pc, #40]	; (80043b8 <USB_FlushTxFifo+0x48>)
 8004390:	f041 0120 	orr.w	r1, r1, #32
 8004394:	9301      	str	r3, [sp, #4]
 8004396:	6101      	str	r1, [r0, #16]
 8004398:	9b01      	ldr	r3, [sp, #4]
 800439a:	3301      	adds	r3, #1
 800439c:	9301      	str	r3, [sp, #4]
 800439e:	9b01      	ldr	r3, [sp, #4]
 80043a0:	4293      	cmp	r3, r2
 80043a2:	d806      	bhi.n	80043b2 <USB_FlushTxFifo+0x42>
 80043a4:	6903      	ldr	r3, [r0, #16]
 80043a6:	f013 0320 	ands.w	r3, r3, #32
 80043aa:	d1f5      	bne.n	8004398 <USB_FlushTxFifo+0x28>
 80043ac:	4618      	mov	r0, r3
 80043ae:	b002      	add	sp, #8
 80043b0:	4770      	bx	lr
 80043b2:	2003      	movs	r0, #3
 80043b4:	e7fb      	b.n	80043ae <USB_FlushTxFifo+0x3e>
 80043b6:	bf00      	nop
 80043b8:	00030d40 	.word	0x00030d40

080043bc <USB_FlushRxFifo>:
 80043bc:	b082      	sub	sp, #8
 80043be:	2300      	movs	r3, #0
 80043c0:	4a0f      	ldr	r2, [pc, #60]	; (8004400 <USB_FlushRxFifo+0x44>)
 80043c2:	9301      	str	r3, [sp, #4]
 80043c4:	9b01      	ldr	r3, [sp, #4]
 80043c6:	3301      	adds	r3, #1
 80043c8:	9301      	str	r3, [sp, #4]
 80043ca:	9b01      	ldr	r3, [sp, #4]
 80043cc:	4293      	cmp	r3, r2
 80043ce:	d814      	bhi.n	80043fa <USB_FlushRxFifo+0x3e>
 80043d0:	6903      	ldr	r3, [r0, #16]
 80043d2:	2b00      	cmp	r3, #0
 80043d4:	daf6      	bge.n	80043c4 <USB_FlushRxFifo+0x8>
 80043d6:	2300      	movs	r3, #0
 80043d8:	4a09      	ldr	r2, [pc, #36]	; (8004400 <USB_FlushRxFifo+0x44>)
 80043da:	9301      	str	r3, [sp, #4]
 80043dc:	2310      	movs	r3, #16
 80043de:	6103      	str	r3, [r0, #16]
 80043e0:	9b01      	ldr	r3, [sp, #4]
 80043e2:	3301      	adds	r3, #1
 80043e4:	9301      	str	r3, [sp, #4]
 80043e6:	9b01      	ldr	r3, [sp, #4]
 80043e8:	4293      	cmp	r3, r2
 80043ea:	d806      	bhi.n	80043fa <USB_FlushRxFifo+0x3e>
 80043ec:	6903      	ldr	r3, [r0, #16]
 80043ee:	f013 0310 	ands.w	r3, r3, #16
 80043f2:	d1f5      	bne.n	80043e0 <USB_FlushRxFifo+0x24>
 80043f4:	4618      	mov	r0, r3
 80043f6:	b002      	add	sp, #8
 80043f8:	4770      	bx	lr
 80043fa:	2003      	movs	r0, #3
 80043fc:	e7fb      	b.n	80043f6 <USB_FlushRxFifo+0x3a>
 80043fe:	bf00      	nop
 8004400:	00030d40 	.word	0x00030d40

08004404 <USB_SetDevSpeed>:
 8004404:	f8d0 3800 	ldr.w	r3, [r0, #2048]	; 0x800
 8004408:	4319      	orrs	r1, r3
 800440a:	f8c0 1800 	str.w	r1, [r0, #2048]	; 0x800
 800440e:	2000      	movs	r0, #0
 8004410:	4770      	bx	lr
	...

08004414 <USB_DevInit>:
 8004414:	b084      	sub	sp, #16
 8004416:	e92d 43f8 	stmdb	sp!, {r3, r4, r5, r6, r7, r8, r9, lr}
 800441a:	4604      	mov	r4, r0
 800441c:	a809      	add	r0, sp, #36	; 0x24
 800441e:	460e      	mov	r6, r1
 8004420:	9d13      	ldr	r5, [sp, #76]	; 0x4c
 8004422:	e880 000e 	stmia.w	r0, {r1, r2, r3}
 8004426:	2300      	movs	r3, #0
 8004428:	4619      	mov	r1, r3
 800442a:	f103 0240 	add.w	r2, r3, #64	; 0x40
 800442e:	3301      	adds	r3, #1
 8004430:	eb04 0282 	add.w	r2, r4, r2, lsl #2
 8004434:	2b0f      	cmp	r3, #15
 8004436:	6051      	str	r1, [r2, #4]
 8004438:	d1f7      	bne.n	800442a <USB_DevInit+0x16>
 800443a:	f504 6700 	add.w	r7, r4, #2048	; 0x800
 800443e:	2d00      	cmp	r5, #0
 8004440:	d16c      	bne.n	800451c <USB_DevInit+0x108>
 8004442:	687b      	ldr	r3, [r7, #4]
 8004444:	f043 0302 	orr.w	r3, r3, #2
 8004448:	607b      	str	r3, [r7, #4]
 800444a:	6ba3      	ldr	r3, [r4, #56]	; 0x38
 800444c:	f423 1300 	bic.w	r3, r3, #2097152	; 0x200000
 8004450:	63a3      	str	r3, [r4, #56]	; 0x38
 8004452:	6823      	ldr	r3, [r4, #0]
 8004454:	f043 0340 	orr.w	r3, r3, #64	; 0x40
 8004458:	6023      	str	r3, [r4, #0]
 800445a:	6823      	ldr	r3, [r4, #0]
 800445c:	f043 0380 	orr.w	r3, r3, #128	; 0x80
 8004460:	6023      	str	r3, [r4, #0]
 8004462:	2300      	movs	r3, #0
 8004464:	f8c4 3e00 	str.w	r3, [r4, #3584]	; 0xe00
 8004468:	f8d4 3800 	ldr.w	r3, [r4, #2048]	; 0x800
 800446c:	f8c4 3800 	str.w	r3, [r4, #2048]	; 0x800
 8004470:	9b0e      	ldr	r3, [sp, #56]	; 0x38
 8004472:	2b01      	cmp	r3, #1
 8004474:	d159      	bne.n	800452a <USB_DevInit+0x116>
 8004476:	990c      	ldr	r1, [sp, #48]	; 0x30
 8004478:	2900      	cmp	r1, #0
 800447a:	d154      	bne.n	8004526 <USB_DevInit+0x112>
 800447c:	4620      	mov	r0, r4
 800447e:	f64f 387f 	movw	r8, #64383	; 0xfb7f
 8004482:	f7ff ffbf 	bl	8004404 <USB_SetDevSpeed>
 8004486:	2110      	movs	r1, #16
 8004488:	4620      	mov	r0, r4
 800448a:	f7ff ff71 	bl	8004370 <USB_FlushTxFifo>
 800448e:	4601      	mov	r1, r0
 8004490:	4620      	mov	r0, r4
 8004492:	f7ff ff93 	bl	80043bc <USB_FlushRxFifo>
 8004496:	4308      	orrs	r0, r1
 8004498:	2300      	movs	r3, #0
 800449a:	f504 6210 	add.w	r2, r4, #2304	; 0x900
 800449e:	b2c0      	uxtb	r0, r0
 80044a0:	f04f 4c90 	mov.w	ip, #1207959552	; 0x48000000
 80044a4:	4619      	mov	r1, r3
 80044a6:	f04f 6e00 	mov.w	lr, #134217728	; 0x8000000
 80044aa:	3800      	subs	r0, #0
 80044ac:	613b      	str	r3, [r7, #16]
 80044ae:	617b      	str	r3, [r7, #20]
 80044b0:	bf18      	it	ne
 80044b2:	2001      	movne	r0, #1
 80044b4:	61fb      	str	r3, [r7, #28]
 80044b6:	42b3      	cmp	r3, r6
 80044b8:	d139      	bne.n	800452e <USB_DevInit+0x11a>
 80044ba:	2200      	movs	r2, #0
 80044bc:	f504 6330 	add.w	r3, r4, #2816	; 0xb00
 80044c0:	f04f 4c90 	mov.w	ip, #1207959552	; 0x48000000
 80044c4:	f04f 6e00 	mov.w	lr, #134217728	; 0x8000000
 80044c8:	4611      	mov	r1, r2
 80044ca:	f64f 387f 	movw	r8, #64383	; 0xfb7f
 80044ce:	42b2      	cmp	r2, r6
 80044d0:	d140      	bne.n	8004554 <USB_DevInit+0x140>
 80044d2:	693b      	ldr	r3, [r7, #16]
 80044d4:	f423 7380 	bic.w	r3, r3, #256	; 0x100
 80044d8:	613b      	str	r3, [r7, #16]
 80044da:	2300      	movs	r3, #0
 80044dc:	61a3      	str	r3, [r4, #24]
 80044de:	f06f 4380 	mvn.w	r3, #1073741824	; 0x40000000
 80044e2:	6163      	str	r3, [r4, #20]
 80044e4:	9b0b      	ldr	r3, [sp, #44]	; 0x2c
 80044e6:	b91b      	cbnz	r3, 80044f0 <USB_DevInit+0xdc>
 80044e8:	69a3      	ldr	r3, [r4, #24]
 80044ea:	f043 0310 	orr.w	r3, r3, #16
 80044ee:	61a3      	str	r3, [r4, #24]
 80044f0:	69a2      	ldr	r2, [r4, #24]
 80044f2:	4b22      	ldr	r3, [pc, #136]	; (800457c <USB_DevInit+0x168>)
 80044f4:	4313      	orrs	r3, r2
 80044f6:	61a3      	str	r3, [r4, #24]
 80044f8:	9b0f      	ldr	r3, [sp, #60]	; 0x3c
 80044fa:	b11b      	cbz	r3, 8004504 <USB_DevInit+0xf0>
 80044fc:	69a3      	ldr	r3, [r4, #24]
 80044fe:	f043 0308 	orr.w	r3, r3, #8
 8004502:	61a3      	str	r3, [r4, #24]
 8004504:	2d01      	cmp	r5, #1
 8004506:	d105      	bne.n	8004514 <USB_DevInit+0x100>
 8004508:	69a3      	ldr	r3, [r4, #24]
 800450a:	f043 4380 	orr.w	r3, r3, #1073741824	; 0x40000000
 800450e:	f043 0304 	orr.w	r3, r3, #4
 8004512:	61a3      	str	r3, [r4, #24]
 8004514:	e8bd 43f8 	ldmia.w	sp!, {r3, r4, r5, r6, r7, r8, r9, lr}
 8004518:	b004      	add	sp, #16
 800451a:	4770      	bx	lr
 800451c:	6ba3      	ldr	r3, [r4, #56]	; 0x38
 800451e:	f443 1300 	orr.w	r3, r3, #2097152	; 0x200000
 8004522:	63a3      	str	r3, [r4, #56]	; 0x38
 8004524:	e79d      	b.n	8004462 <USB_DevInit+0x4e>
 8004526:	4619      	mov	r1, r3
 8004528:	e7a8      	b.n	800447c <USB_DevInit+0x68>
 800452a:	2103      	movs	r1, #3
 800452c:	e7a6      	b.n	800447c <USB_DevInit+0x68>
 800452e:	f8d2 9000 	ldr.w	r9, [r2]
 8004532:	f1b9 0f00 	cmp.w	r9, #0
 8004536:	da0b      	bge.n	8004550 <USB_DevInit+0x13c>
 8004538:	b93b      	cbnz	r3, 800454a <USB_DevInit+0x136>
 800453a:	f8c2 e000 	str.w	lr, [r2]
 800453e:	6111      	str	r1, [r2, #16]
 8004540:	3301      	adds	r3, #1
 8004542:	f8c2 8008 	str.w	r8, [r2, #8]
 8004546:	3220      	adds	r2, #32
 8004548:	e7b5      	b.n	80044b6 <USB_DevInit+0xa2>
 800454a:	f8c2 c000 	str.w	ip, [r2]
 800454e:	e7f6      	b.n	800453e <USB_DevInit+0x12a>
 8004550:	6011      	str	r1, [r2, #0]
 8004552:	e7f4      	b.n	800453e <USB_DevInit+0x12a>
 8004554:	f8d3 9000 	ldr.w	r9, [r3]
 8004558:	f1b9 0f00 	cmp.w	r9, #0
 800455c:	da0b      	bge.n	8004576 <USB_DevInit+0x162>
 800455e:	b93a      	cbnz	r2, 8004570 <USB_DevInit+0x15c>
 8004560:	f8c3 e000 	str.w	lr, [r3]
 8004564:	6119      	str	r1, [r3, #16]
 8004566:	3201      	adds	r2, #1
 8004568:	f8c3 8008 	str.w	r8, [r3, #8]
 800456c:	3320      	adds	r3, #32
 800456e:	e7ae      	b.n	80044ce <USB_DevInit+0xba>
 8004570:	f8c3 c000 	str.w	ip, [r3]
 8004574:	e7f6      	b.n	8004564 <USB_DevInit+0x150>
 8004576:	6019      	str	r1, [r3, #0]
 8004578:	e7f4      	b.n	8004564 <USB_DevInit+0x150>
 800457a:	bf00      	nop
 800457c:	803c3800 	.word	0x803c3800

08004580 <USB_DevDisconnect>:
 8004580:	f8d0 3e00 	ldr.w	r3, [r0, #3584]	; 0xe00
 8004584:	f023 0303 	bic.w	r3, r3, #3
 8004588:	f8c0 3e00 	str.w	r3, [r0, #3584]	; 0xe00
 800458c:	f8d0 3804 	ldr.w	r3, [r0, #2052]	; 0x804
 8004590:	f043 0302 	orr.w	r3, r3, #2
 8004594:	f8c0 3804 	str.w	r3, [r0, #2052]	; 0x804
 8004598:	2000      	movs	r0, #0
 800459a:	4770      	bx	lr

0800459c <SysTick_Handler>:
 800459c:	b508      	push	{r3, lr}
 800459e:	f04f 23e0 	mov.w	r3, #3758153728	; 0xe000e000
 80045a2:	691b      	ldr	r3, [r3, #16]
 80045a4:	f001 f832 	bl	800560c <xTaskGetSchedulerState>
 80045a8:	2801      	cmp	r0, #1
 80045aa:	d003      	beq.n	80045b4 <SysTick_Handler+0x18>
 80045ac:	e8bd 4008 	ldmia.w	sp!, {r3, lr}
 80045b0:	f001 bb38 	b.w	8005c24 <xPortSysTickHandler>
 80045b4:	bd08      	pop	{r3, pc}
	...

080045b8 <osKernelInitialize>:
 80045b8:	f3ef 8305 	mrs	r3, IPSR
 80045bc:	b92b      	cbnz	r3, 80045ca <osKernelInitialize+0x12>
 80045be:	4b06      	ldr	r3, [pc, #24]	; (80045d8 <osKernelInitialize+0x20>)
 80045c0:	6818      	ldr	r0, [r3, #0]
 80045c2:	b928      	cbnz	r0, 80045d0 <osKernelInitialize+0x18>
 80045c4:	2201      	movs	r2, #1
 80045c6:	601a      	str	r2, [r3, #0]
 80045c8:	4770      	bx	lr
 80045ca:	f06f 0005 	mvn.w	r0, #5
 80045ce:	4770      	bx	lr
 80045d0:	f04f 30ff 	mov.w	r0, #4294967295
 80045d4:	4770      	bx	lr
 80045d6:	bf00      	nop
 80045d8:	24000ab0 	.word	0x24000ab0

080045dc <osKernelStart>:
 80045dc:	b510      	push	{r4, lr}
 80045de:	f3ef 8405 	mrs	r4, IPSR
 80045e2:	b95c      	cbnz	r4, 80045fc <osKernelStart+0x20>
 80045e4:	4b08      	ldr	r3, [pc, #32]	; (8004608 <osKernelStart+0x2c>)
 80045e6:	681a      	ldr	r2, [r3, #0]
 80045e8:	2a01      	cmp	r2, #1
 80045ea:	d10a      	bne.n	8004602 <osKernelStart+0x26>
 80045ec:	4a07      	ldr	r2, [pc, #28]	; (800460c <osKernelStart+0x30>)
 80045ee:	77d4      	strb	r4, [r2, #31]
 80045f0:	2202      	movs	r2, #2
 80045f2:	601a      	str	r2, [r3, #0]
 80045f4:	f000 fd84 	bl	8005100 <vTaskStartScheduler>
 80045f8:	4620      	mov	r0, r4
 80045fa:	bd10      	pop	{r4, pc}
 80045fc:	f06f 0005 	mvn.w	r0, #5
 8004600:	e7fb      	b.n	80045fa <osKernelStart+0x1e>
 8004602:	f04f 30ff 	mov.w	r0, #4294967295
 8004606:	e7f8      	b.n	80045fa <osKernelStart+0x1e>
 8004608:	24000ab0 	.word	0x24000ab0
 800460c:	e000ed00 	.word	0xe000ed00

08004610 <osThreadNew>:
 8004610:	b5f0      	push	{r4, r5, r6, r7, lr}
 8004612:	460b      	mov	r3, r1
 8004614:	b087      	sub	sp, #28
 8004616:	2100      	movs	r1, #0
 8004618:	9105      	str	r1, [sp, #20]
 800461a:	f3ef 8405 	mrs	r4, IPSR
 800461e:	b9cc      	cbnz	r4, 8004654 <osThreadNew+0x44>
 8004620:	b1c0      	cbz	r0, 8004654 <osThreadNew+0x44>
 8004622:	b36a      	cbz	r2, 8004680 <osThreadNew+0x70>
 8004624:	6995      	ldr	r5, [r2, #24]
 8004626:	428d      	cmp	r5, r1
 8004628:	bf08      	it	eq
 800462a:	2518      	moveq	r5, #24
 800462c:	1e69      	subs	r1, r5, #1
 800462e:	46ac      	mov	ip, r5
 8004630:	2937      	cmp	r1, #55	; 0x37
 8004632:	d82a      	bhi.n	800468a <osThreadNew+0x7a>
 8004634:	6851      	ldr	r1, [r2, #4]
 8004636:	07c9      	lsls	r1, r1, #31
 8004638:	d427      	bmi.n	800468a <osThreadNew+0x7a>
 800463a:	6956      	ldr	r6, [r2, #20]
 800463c:	b16e      	cbz	r6, 800465a <osThreadNew+0x4a>
 800463e:	08b4      	lsrs	r4, r6, #2
 8004640:	6811      	ldr	r1, [r2, #0]
 8004642:	e9d2 7e02 	ldrd	r7, lr, [r2, #8]
 8004646:	b157      	cbz	r7, 800465e <osThreadNew+0x4e>
 8004648:	f1be 0f5b 	cmp.w	lr, #91	; 0x5b
 800464c:	d902      	bls.n	8004654 <osThreadNew+0x44>
 800464e:	6912      	ldr	r2, [r2, #16]
 8004650:	b102      	cbz	r2, 8004654 <osThreadNew+0x44>
 8004652:	b9e6      	cbnz	r6, 800468e <osThreadNew+0x7e>
 8004654:	9805      	ldr	r0, [sp, #20]
 8004656:	b007      	add	sp, #28
 8004658:	bdf0      	pop	{r4, r5, r6, r7, pc}
 800465a:	2480      	movs	r4, #128	; 0x80
 800465c:	e7f0      	b.n	8004640 <osThreadNew+0x30>
 800465e:	f1be 0f00 	cmp.w	lr, #0
 8004662:	d1f7      	bne.n	8004654 <osThreadNew+0x44>
 8004664:	6912      	ldr	r2, [r2, #16]
 8004666:	2a00      	cmp	r2, #0
 8004668:	d1f4      	bne.n	8004654 <osThreadNew+0x44>
 800466a:	aa05      	add	r2, sp, #20
 800466c:	e9cd c200 	strd	ip, r2, [sp]
 8004670:	b2a2      	uxth	r2, r4
 8004672:	f000 fd18 	bl	80050a6 <xTaskCreate>
 8004676:	2801      	cmp	r0, #1
 8004678:	bf1c      	itt	ne
 800467a:	2300      	movne	r3, #0
 800467c:	9305      	strne	r3, [sp, #20]
 800467e:	e7e9      	b.n	8004654 <osThreadNew+0x44>
 8004680:	4611      	mov	r1, r2
 8004682:	f04f 0c18 	mov.w	ip, #24
 8004686:	2480      	movs	r4, #128	; 0x80
 8004688:	e7ef      	b.n	800466a <osThreadNew+0x5a>
 800468a:	4620      	mov	r0, r4
 800468c:	e7e3      	b.n	8004656 <osThreadNew+0x46>
 800468e:	e9cd 2701 	strd	r2, r7, [sp, #4]
 8004692:	9500      	str	r5, [sp, #0]
 8004694:	4622      	mov	r2, r4
 8004696:	f000 fcce 	bl	8005036 <xTaskCreateStatic>
 800469a:	9005      	str	r0, [sp, #20]
 800469c:	e7da      	b.n	8004654 <osThreadNew+0x44>

0800469e <osDelay>:
 800469e:	b510      	push	{r4, lr}
 80046a0:	f3ef 8405 	mrs	r4, IPSR
 80046a4:	b924      	cbnz	r4, 80046b0 <osDelay+0x12>
 80046a6:	b110      	cbz	r0, 80046ae <osDelay+0x10>
 80046a8:	f000 fe88 	bl	80053bc <vTaskDelay>
 80046ac:	4620      	mov	r0, r4
 80046ae:	bd10      	pop	{r4, pc}
 80046b0:	f06f 0005 	mvn.w	r0, #5
 80046b4:	e7fb      	b.n	80046ae <osDelay+0x10>
	...

080046b8 <vApplicationGetIdleTaskMemory>:
 80046b8:	4b03      	ldr	r3, [pc, #12]	; (80046c8 <vApplicationGetIdleTaskMemory+0x10>)
 80046ba:	6003      	str	r3, [r0, #0]
 80046bc:	4b03      	ldr	r3, [pc, #12]	; (80046cc <vApplicationGetIdleTaskMemory+0x14>)
 80046be:	600b      	str	r3, [r1, #0]
 80046c0:	2380      	movs	r3, #128	; 0x80
 80046c2:	6013      	str	r3, [r2, #0]
 80046c4:	4770      	bx	lr
 80046c6:	bf00      	nop
 80046c8:	24000a54 	.word	0x24000a54
 80046cc:	24000854 	.word	0x24000854

080046d0 <vApplicationGetTimerTaskMemory>:
 80046d0:	4b03      	ldr	r3, [pc, #12]	; (80046e0 <vApplicationGetTimerTaskMemory+0x10>)
 80046d2:	6003      	str	r3, [r0, #0]
 80046d4:	4b03      	ldr	r3, [pc, #12]	; (80046e4 <vApplicationGetTimerTaskMemory+0x14>)
 80046d6:	600b      	str	r3, [r1, #0]
 80046d8:	f44f 7380 	mov.w	r3, #256	; 0x100
 80046dc:	6013      	str	r3, [r2, #0]
 80046de:	4770      	bx	lr
 80046e0:	24000eb4 	.word	0x24000eb4
 80046e4:	24000ab4 	.word	0x24000ab4

080046e8 <vListInitialise>:
 80046e8:	f100 0308 	add.w	r3, r0, #8
 80046ec:	f04f 32ff 	mov.w	r2, #4294967295
 80046f0:	6043      	str	r3, [r0, #4]
 80046f2:	6103      	str	r3, [r0, #16]
 80046f4:	e9c0 2302 	strd	r2, r3, [r0, #8]
 80046f8:	2300      	movs	r3, #0
 80046fa:	6003      	str	r3, [r0, #0]
 80046fc:	4770      	bx	lr

080046fe <vListInitialiseItem>:
 80046fe:	2300      	movs	r3, #0
 8004700:	6103      	str	r3, [r0, #16]
 8004702:	4770      	bx	lr

08004704 <vListInsertEnd>:
 8004704:	6843      	ldr	r3, [r0, #4]
 8004706:	689a      	ldr	r2, [r3, #8]
 8004708:	604b      	str	r3, [r1, #4]
 800470a:	608a      	str	r2, [r1, #8]
 800470c:	689a      	ldr	r2, [r3, #8]
 800470e:	6051      	str	r1, [r2, #4]
 8004710:	6099      	str	r1, [r3, #8]
 8004712:	6803      	ldr	r3, [r0, #0]
 8004714:	6108      	str	r0, [r1, #16]
 8004716:	3301      	adds	r3, #1
 8004718:	6003      	str	r3, [r0, #0]
 800471a:	4770      	bx	lr

0800471c <vListInsert>:
 800471c:	b530      	push	{r4, r5, lr}
 800471e:	680c      	ldr	r4, [r1, #0]
 8004720:	1c63      	adds	r3, r4, #1
 8004722:	d10a      	bne.n	800473a <vListInsert+0x1e>
 8004724:	6903      	ldr	r3, [r0, #16]
 8004726:	685a      	ldr	r2, [r3, #4]
 8004728:	604a      	str	r2, [r1, #4]
 800472a:	6091      	str	r1, [r2, #8]
 800472c:	608b      	str	r3, [r1, #8]
 800472e:	6059      	str	r1, [r3, #4]
 8004730:	6803      	ldr	r3, [r0, #0]
 8004732:	6108      	str	r0, [r1, #16]
 8004734:	3301      	adds	r3, #1
 8004736:	6003      	str	r3, [r0, #0]
 8004738:	bd30      	pop	{r4, r5, pc}
 800473a:	f100 0208 	add.w	r2, r0, #8
 800473e:	4613      	mov	r3, r2
 8004740:	6852      	ldr	r2, [r2, #4]
 8004742:	6815      	ldr	r5, [r2, #0]
 8004744:	42a5      	cmp	r5, r4
 8004746:	d9fa      	bls.n	800473e <vListInsert+0x22>
 8004748:	e7ed      	b.n	8004726 <vListInsert+0xa>

0800474a <uxListRemove>:
 800474a:	6903      	ldr	r3, [r0, #16]
 800474c:	e9d0 1201 	ldrd	r1, r2, [r0, #4]
 8004750:	608a      	str	r2, [r1, #8]
 8004752:	6051      	str	r1, [r2, #4]
 8004754:	6859      	ldr	r1, [r3, #4]
 8004756:	4281      	cmp	r1, r0
 8004758:	bf08      	it	eq
 800475a:	605a      	streq	r2, [r3, #4]
 800475c:	2200      	movs	r2, #0
 800475e:	6102      	str	r2, [r0, #16]
 8004760:	681a      	ldr	r2, [r3, #0]
 8004762:	3a01      	subs	r2, #1
 8004764:	601a      	str	r2, [r3, #0]
 8004766:	6818      	ldr	r0, [r3, #0]
 8004768:	4770      	bx	lr

0800476a <prvIsQueueEmpty>:
 800476a:	b510      	push	{r4, lr}
 800476c:	4604      	mov	r4, r0
 800476e:	f001 f9f1 	bl	8005b54 <vPortEnterCritical>
 8004772:	6ba4      	ldr	r4, [r4, #56]	; 0x38
 8004774:	f001 fa0e 	bl	8005b94 <vPortExitCritical>
 8004778:	fab4 f084 	clz	r0, r4
 800477c:	0940      	lsrs	r0, r0, #5
 800477e:	bd10      	pop	{r4, pc}

08004780 <prvCopyDataToQueue>:
 8004780:	b5f8      	push	{r3, r4, r5, r6, r7, lr}
 8004782:	4615      	mov	r5, r2
 8004784:	6c02      	ldr	r2, [r0, #64]	; 0x40
 8004786:	4604      	mov	r4, r0
 8004788:	6b86      	ldr	r6, [r0, #56]	; 0x38
 800478a:	b952      	cbnz	r2, 80047a2 <prvCopyDataToQueue+0x22>
 800478c:	6807      	ldr	r7, [r0, #0]
 800478e:	bb47      	cbnz	r7, 80047e2 <prvCopyDataToQueue+0x62>
 8004790:	6880      	ldr	r0, [r0, #8]
 8004792:	f000 ff4b 	bl	800562c <xTaskPriorityDisinherit>
 8004796:	4605      	mov	r5, r0
 8004798:	60a7      	str	r7, [r4, #8]
 800479a:	3601      	adds	r6, #1
 800479c:	4628      	mov	r0, r5
 800479e:	63a6      	str	r6, [r4, #56]	; 0x38
 80047a0:	bdf8      	pop	{r3, r4, r5, r6, r7, pc}
 80047a2:	b965      	cbnz	r5, 80047be <prvCopyDataToQueue+0x3e>
 80047a4:	6840      	ldr	r0, [r0, #4]
 80047a6:	f002 ff6b 	bl	8007680 <memcpy>
 80047aa:	6863      	ldr	r3, [r4, #4]
 80047ac:	6c22      	ldr	r2, [r4, #64]	; 0x40
 80047ae:	4413      	add	r3, r2
 80047b0:	68a2      	ldr	r2, [r4, #8]
 80047b2:	4293      	cmp	r3, r2
 80047b4:	6063      	str	r3, [r4, #4]
 80047b6:	d3f0      	bcc.n	800479a <prvCopyDataToQueue+0x1a>
 80047b8:	6823      	ldr	r3, [r4, #0]
 80047ba:	6063      	str	r3, [r4, #4]
 80047bc:	e7ed      	b.n	800479a <prvCopyDataToQueue+0x1a>
 80047be:	68c0      	ldr	r0, [r0, #12]
 80047c0:	f002 ff5e 	bl	8007680 <memcpy>
 80047c4:	6c22      	ldr	r2, [r4, #64]	; 0x40
 80047c6:	68e3      	ldr	r3, [r4, #12]
 80047c8:	4251      	negs	r1, r2
 80047ca:	1a9b      	subs	r3, r3, r2
 80047cc:	6822      	ldr	r2, [r4, #0]
 80047ce:	4293      	cmp	r3, r2
 80047d0:	60e3      	str	r3, [r4, #12]
 80047d2:	bf3e      	ittt	cc
 80047d4:	68a3      	ldrcc	r3, [r4, #8]
 80047d6:	185b      	addcc	r3, r3, r1
 80047d8:	60e3      	strcc	r3, [r4, #12]
 80047da:	2d02      	cmp	r5, #2
 80047dc:	d101      	bne.n	80047e2 <prvCopyDataToQueue+0x62>
 80047de:	b116      	cbz	r6, 80047e6 <prvCopyDataToQueue+0x66>
 80047e0:	3e01      	subs	r6, #1
 80047e2:	2500      	movs	r5, #0
 80047e4:	e7d9      	b.n	800479a <prvCopyDataToQueue+0x1a>
 80047e6:	4635      	mov	r5, r6
 80047e8:	e7d7      	b.n	800479a <prvCopyDataToQueue+0x1a>

080047ea <prvCopyDataFromQueue>:
 80047ea:	4603      	mov	r3, r0
 80047ec:	4608      	mov	r0, r1
 80047ee:	6c1a      	ldr	r2, [r3, #64]	; 0x40
 80047f0:	b410      	push	{r4}
 80047f2:	b162      	cbz	r2, 800480e <prvCopyDataFromQueue+0x24>
 80047f4:	68dc      	ldr	r4, [r3, #12]
 80047f6:	6899      	ldr	r1, [r3, #8]
 80047f8:	4414      	add	r4, r2
 80047fa:	428c      	cmp	r4, r1
 80047fc:	60dc      	str	r4, [r3, #12]
 80047fe:	f85d 4b04 	ldr.w	r4, [sp], #4
 8004802:	bf24      	itt	cs
 8004804:	6819      	ldrcs	r1, [r3, #0]
 8004806:	60d9      	strcs	r1, [r3, #12]
 8004808:	68d9      	ldr	r1, [r3, #12]
 800480a:	f002 bf39 	b.w	8007680 <memcpy>
 800480e:	f85d 4b04 	ldr.w	r4, [sp], #4
 8004812:	4770      	bx	lr

08004814 <prvUnlockQueue>:
 8004814:	b570      	push	{r4, r5, r6, lr}
 8004816:	4604      	mov	r4, r0
 8004818:	f001 f99c 	bl	8005b54 <vPortEnterCritical>
 800481c:	f894 5045 	ldrb.w	r5, [r4, #69]	; 0x45
 8004820:	f104 0624 	add.w	r6, r4, #36	; 0x24
 8004824:	b26d      	sxtb	r5, r5
 8004826:	2d00      	cmp	r5, #0
 8004828:	dc14      	bgt.n	8004854 <prvUnlockQueue+0x40>
 800482a:	23ff      	movs	r3, #255	; 0xff
 800482c:	f104 0610 	add.w	r6, r4, #16
 8004830:	f884 3045 	strb.w	r3, [r4, #69]	; 0x45
 8004834:	f001 f9ae 	bl	8005b94 <vPortExitCritical>
 8004838:	f001 f98c 	bl	8005b54 <vPortEnterCritical>
 800483c:	f894 5044 	ldrb.w	r5, [r4, #68]	; 0x44
 8004840:	b26d      	sxtb	r5, r5
 8004842:	2d00      	cmp	r5, #0
 8004844:	dc12      	bgt.n	800486c <prvUnlockQueue+0x58>
 8004846:	23ff      	movs	r3, #255	; 0xff
 8004848:	f884 3044 	strb.w	r3, [r4, #68]	; 0x44
 800484c:	e8bd 4070 	ldmia.w	sp!, {r4, r5, r6, lr}
 8004850:	f001 b9a0 	b.w	8005b94 <vPortExitCritical>
 8004854:	6a63      	ldr	r3, [r4, #36]	; 0x24
 8004856:	2b00      	cmp	r3, #0
 8004858:	d0e7      	beq.n	800482a <prvUnlockQueue+0x16>
 800485a:	4630      	mov	r0, r6
 800485c:	f000 fe44 	bl	80054e8 <xTaskRemoveFromEventList>
 8004860:	b108      	cbz	r0, 8004866 <prvUnlockQueue+0x52>
 8004862:	f000 fecd 	bl	8005600 <vTaskMissedYield>
 8004866:	3d01      	subs	r5, #1
 8004868:	b26d      	sxtb	r5, r5
 800486a:	e7dc      	b.n	8004826 <prvUnlockQueue+0x12>
 800486c:	6923      	ldr	r3, [r4, #16]
 800486e:	2b00      	cmp	r3, #0
 8004870:	d0e9      	beq.n	8004846 <prvUnlockQueue+0x32>
 8004872:	4630      	mov	r0, r6
 8004874:	f000 fe38 	bl	80054e8 <xTaskRemoveFromEventList>
 8004878:	b108      	cbz	r0, 800487e <prvUnlockQueue+0x6a>
 800487a:	f000 fec1 	bl	8005600 <vTaskMissedYield>
 800487e:	3d01      	subs	r5, #1
 8004880:	b26d      	sxtb	r5, r5
 8004882:	e7de      	b.n	8004842 <prvUnlockQueue+0x2e>

08004884 <xQueueGenericReset>:
 8004884:	b538      	push	{r3, r4, r5, lr}
 8004886:	460d      	mov	r5, r1
 8004888:	4604      	mov	r4, r0
 800488a:	b940      	cbnz	r0, 800489e <xQueueGenericReset+0x1a>
 800488c:	f04f 0350 	mov.w	r3, #80	; 0x50
 8004890:	f383 8811 	msr	BASEPRI, r3
 8004894:	f3bf 8f6f 	isb	sy
 8004898:	f3bf 8f4f 	dsb	sy
 800489c:	e7fe      	b.n	800489c <xQueueGenericReset+0x18>
 800489e:	f001 f959 	bl	8005b54 <vPortEnterCritical>
 80048a2:	6822      	ldr	r2, [r4, #0]
 80048a4:	e9d4 310f 	ldrd	r3, r1, [r4, #60]	; 0x3c
 80048a8:	6062      	str	r2, [r4, #4]
 80048aa:	434b      	muls	r3, r1
 80048ac:	18d0      	adds	r0, r2, r3
 80048ae:	1a5b      	subs	r3, r3, r1
 80048b0:	60a0      	str	r0, [r4, #8]
 80048b2:	441a      	add	r2, r3
 80048b4:	2000      	movs	r0, #0
 80048b6:	23ff      	movs	r3, #255	; 0xff
 80048b8:	60e2      	str	r2, [r4, #12]
 80048ba:	63a0      	str	r0, [r4, #56]	; 0x38
 80048bc:	f884 3044 	strb.w	r3, [r4, #68]	; 0x44
 80048c0:	f884 3045 	strb.w	r3, [r4, #69]	; 0x45
 80048c4:	b9a5      	cbnz	r5, 80048f0 <xQueueGenericReset+0x6c>
 80048c6:	6923      	ldr	r3, [r4, #16]
 80048c8:	b173      	cbz	r3, 80048e8 <xQueueGenericReset+0x64>
 80048ca:	f104 0010 	add.w	r0, r4, #16
 80048ce:	f000 fe0b 	bl	80054e8 <xTaskRemoveFromEventList>
 80048d2:	b148      	cbz	r0, 80048e8 <xQueueGenericReset+0x64>
 80048d4:	f04f 23e0 	mov.w	r3, #3758153728	; 0xe000e000
 80048d8:	f04f 5280 	mov.w	r2, #268435456	; 0x10000000
 80048dc:	f8c3 2d04 	str.w	r2, [r3, #3332]	; 0xd04
 80048e0:	f3bf 8f4f 	dsb	sy
 80048e4:	f3bf 8f6f 	isb	sy
 80048e8:	f001 f954 	bl	8005b94 <vPortExitCritical>
 80048ec:	2001      	movs	r0, #1
 80048ee:	bd38      	pop	{r3, r4, r5, pc}
 80048f0:	f104 0010 	add.w	r0, r4, #16
 80048f4:	f7ff fef8 	bl	80046e8 <vListInitialise>
 80048f8:	f104 0024 	add.w	r0, r4, #36	; 0x24
 80048fc:	f7ff fef4 	bl	80046e8 <vListInitialise>
 8004900:	e7f2      	b.n	80048e8 <xQueueGenericReset+0x64>

08004902 <xQueueGenericCreateStatic>:
 8004902:	b513      	push	{r0, r1, r4, lr}
 8004904:	461c      	mov	r4, r3
 8004906:	b940      	cbnz	r0, 800491a <xQueueGenericCreateStatic+0x18>
 8004908:	f04f 0350 	mov.w	r3, #80	; 0x50
 800490c:	f383 8811 	msr	BASEPRI, r3
 8004910:	f3bf 8f6f 	isb	sy
 8004914:	f3bf 8f4f 	dsb	sy
 8004918:	e7fe      	b.n	8004918 <xQueueGenericCreateStatic+0x16>
 800491a:	b943      	cbnz	r3, 800492e <xQueueGenericCreateStatic+0x2c>
 800491c:	f04f 0350 	mov.w	r3, #80	; 0x50
 8004920:	f383 8811 	msr	BASEPRI, r3
 8004924:	f3bf 8f6f 	isb	sy
 8004928:	f3bf 8f4f 	dsb	sy
 800492c:	e7fe      	b.n	800492c <xQueueGenericCreateStatic+0x2a>
 800492e:	b14a      	cbz	r2, 8004944 <xQueueGenericCreateStatic+0x42>
 8004930:	b991      	cbnz	r1, 8004958 <xQueueGenericCreateStatic+0x56>
 8004932:	f04f 0350 	mov.w	r3, #80	; 0x50
 8004936:	f383 8811 	msr	BASEPRI, r3
 800493a:	f3bf 8f6f 	isb	sy
 800493e:	f3bf 8f4f 	dsb	sy
 8004942:	e7fe      	b.n	8004942 <xQueueGenericCreateStatic+0x40>
 8004944:	b141      	cbz	r1, 8004958 <xQueueGenericCreateStatic+0x56>
 8004946:	f04f 0350 	mov.w	r3, #80	; 0x50
 800494a:	f383 8811 	msr	BASEPRI, r3
 800494e:	f3bf 8f6f 	isb	sy
 8004952:	f3bf 8f4f 	dsb	sy
 8004956:	e7fe      	b.n	8004956 <xQueueGenericCreateStatic+0x54>
 8004958:	2350      	movs	r3, #80	; 0x50
 800495a:	9301      	str	r3, [sp, #4]
 800495c:	9b01      	ldr	r3, [sp, #4]
 800495e:	2b50      	cmp	r3, #80	; 0x50
 8004960:	d008      	beq.n	8004974 <xQueueGenericCreateStatic+0x72>
 8004962:	f04f 0350 	mov.w	r3, #80	; 0x50
 8004966:	f383 8811 	msr	BASEPRI, r3
 800496a:	f3bf 8f6f 	isb	sy
 800496e:	f3bf 8f4f 	dsb	sy
 8004972:	e7fe      	b.n	8004972 <xQueueGenericCreateStatic+0x70>
 8004974:	2900      	cmp	r1, #0
 8004976:	bf08      	it	eq
 8004978:	4622      	moveq	r2, r4
 800497a:	9b01      	ldr	r3, [sp, #4]
 800497c:	2301      	movs	r3, #1
 800497e:	6022      	str	r2, [r4, #0]
 8004980:	f884 3046 	strb.w	r3, [r4, #70]	; 0x46
 8004984:	e9c4 010f 	strd	r0, r1, [r4, #60]	; 0x3c
 8004988:	4619      	mov	r1, r3
 800498a:	4620      	mov	r0, r4
 800498c:	f7ff ff7a 	bl	8004884 <xQueueGenericReset>
 8004990:	f89d 3010 	ldrb.w	r3, [sp, #16]
 8004994:	4620      	mov	r0, r4
 8004996:	f884 304c 	strb.w	r3, [r4, #76]	; 0x4c
 800499a:	b002      	add	sp, #8
 800499c:	bd10      	pop	{r4, pc}

0800499e <xQueueGenericSend>:
 800499e:	e92d 43f0 	stmdb	sp!, {r4, r5, r6, r7, r8, r9, lr}
 80049a2:	b085      	sub	sp, #20
 80049a4:	4688      	mov	r8, r1
 80049a6:	461f      	mov	r7, r3
 80049a8:	4604      	mov	r4, r0
 80049aa:	9201      	str	r2, [sp, #4]
 80049ac:	b940      	cbnz	r0, 80049c0 <xQueueGenericSend+0x22>
 80049ae:	f04f 0350 	mov.w	r3, #80	; 0x50
 80049b2:	f383 8811 	msr	BASEPRI, r3
 80049b6:	f3bf 8f6f 	isb	sy
 80049ba:	f3bf 8f4f 	dsb	sy
 80049be:	e7fe      	b.n	80049be <xQueueGenericSend+0x20>
 80049c0:	b951      	cbnz	r1, 80049d8 <xQueueGenericSend+0x3a>
 80049c2:	6c03      	ldr	r3, [r0, #64]	; 0x40
 80049c4:	b143      	cbz	r3, 80049d8 <xQueueGenericSend+0x3a>
 80049c6:	f04f 0350 	mov.w	r3, #80	; 0x50
 80049ca:	f383 8811 	msr	BASEPRI, r3
 80049ce:	f3bf 8f6f 	isb	sy
 80049d2:	f3bf 8f4f 	dsb	sy
 80049d6:	e7fe      	b.n	80049d6 <xQueueGenericSend+0x38>
 80049d8:	2f02      	cmp	r7, #2
 80049da:	d10b      	bne.n	80049f4 <xQueueGenericSend+0x56>
 80049dc:	6be3      	ldr	r3, [r4, #60]	; 0x3c
 80049de:	2b01      	cmp	r3, #1
 80049e0:	d008      	beq.n	80049f4 <xQueueGenericSend+0x56>
 80049e2:	f04f 0350 	mov.w	r3, #80	; 0x50
 80049e6:	f383 8811 	msr	BASEPRI, r3
 80049ea:	f3bf 8f6f 	isb	sy
 80049ee:	f3bf 8f4f 	dsb	sy
 80049f2:	e7fe      	b.n	80049f2 <xQueueGenericSend+0x54>
 80049f4:	f000 fe0a 	bl	800560c <xTaskGetSchedulerState>
 80049f8:	4606      	mov	r6, r0
 80049fa:	b950      	cbnz	r0, 8004a12 <xQueueGenericSend+0x74>
 80049fc:	9b01      	ldr	r3, [sp, #4]
 80049fe:	b14b      	cbz	r3, 8004a14 <xQueueGenericSend+0x76>
 8004a00:	f04f 0350 	mov.w	r3, #80	; 0x50
 8004a04:	f383 8811 	msr	BASEPRI, r3
 8004a08:	f3bf 8f6f 	isb	sy
 8004a0c:	f3bf 8f4f 	dsb	sy
 8004a10:	e7fe      	b.n	8004a10 <xQueueGenericSend+0x72>
 8004a12:	2600      	movs	r6, #0
 8004a14:	f04f 0900 	mov.w	r9, #0
 8004a18:	e037      	b.n	8004a8a <xQueueGenericSend+0xec>
 8004a1a:	9d01      	ldr	r5, [sp, #4]
 8004a1c:	b91d      	cbnz	r5, 8004a26 <xQueueGenericSend+0x88>
 8004a1e:	f001 f8b9 	bl	8005b94 <vPortExitCritical>
 8004a22:	2000      	movs	r0, #0
 8004a24:	e052      	b.n	8004acc <xQueueGenericSend+0x12e>
 8004a26:	b916      	cbnz	r6, 8004a2e <xQueueGenericSend+0x90>
 8004a28:	a802      	add	r0, sp, #8
 8004a2a:	f000 fda1 	bl	8005570 <vTaskInternalSetTimeOutState>
 8004a2e:	f001 f8b1 	bl	8005b94 <vPortExitCritical>
 8004a32:	f000 fbab 	bl	800518c <vTaskSuspendAll>
 8004a36:	f001 f88d 	bl	8005b54 <vPortEnterCritical>
 8004a3a:	f894 3044 	ldrb.w	r3, [r4, #68]	; 0x44
 8004a3e:	2bff      	cmp	r3, #255	; 0xff
 8004a40:	d101      	bne.n	8004a46 <xQueueGenericSend+0xa8>
 8004a42:	f884 9044 	strb.w	r9, [r4, #68]	; 0x44
 8004a46:	f894 3045 	ldrb.w	r3, [r4, #69]	; 0x45
 8004a4a:	2bff      	cmp	r3, #255	; 0xff
 8004a4c:	d101      	bne.n	8004a52 <xQueueGenericSend+0xb4>
 8004a4e:	f884 9045 	strb.w	r9, [r4, #69]	; 0x45
 8004a52:	f001 f89f 	bl	8005b94 <vPortExitCritical>
 8004a56:	a901      	add	r1, sp, #4
 8004a58:	a802      	add	r0, sp, #8
 8004a5a:	f000 fd95 	bl	8005588 <xTaskCheckForTimeOut>
 8004a5e:	2800      	cmp	r0, #0
 8004a60:	d14a      	bne.n	8004af8 <xQueueGenericSend+0x15a>
 8004a62:	f001 f877 	bl	8005b54 <vPortEnterCritical>
 8004a66:	6ba2      	ldr	r2, [r4, #56]	; 0x38
 8004a68:	6be3      	ldr	r3, [r4, #60]	; 0x3c
 8004a6a:	429a      	cmp	r2, r3
 8004a6c:	d131      	bne.n	8004ad2 <xQueueGenericSend+0x134>
 8004a6e:	f001 f891 	bl	8005b94 <vPortExitCritical>
 8004a72:	9901      	ldr	r1, [sp, #4]
 8004a74:	f104 0010 	add.w	r0, r4, #16
 8004a78:	f000 fcfe 	bl	8005478 <vTaskPlaceOnEventList>
 8004a7c:	4620      	mov	r0, r4
 8004a7e:	f7ff fec9 	bl	8004814 <prvUnlockQueue>
 8004a82:	f000 fc27 	bl	80052d4 <xTaskResumeAll>
 8004a86:	b360      	cbz	r0, 8004ae2 <xQueueGenericSend+0x144>
 8004a88:	2601      	movs	r6, #1
 8004a8a:	f001 f863 	bl	8005b54 <vPortEnterCritical>
 8004a8e:	6ba2      	ldr	r2, [r4, #56]	; 0x38
 8004a90:	6be3      	ldr	r3, [r4, #60]	; 0x3c
 8004a92:	429a      	cmp	r2, r3
 8004a94:	d301      	bcc.n	8004a9a <xQueueGenericSend+0xfc>
 8004a96:	2f02      	cmp	r7, #2
 8004a98:	d1bf      	bne.n	8004a1a <xQueueGenericSend+0x7c>
 8004a9a:	463a      	mov	r2, r7
 8004a9c:	4641      	mov	r1, r8
 8004a9e:	4620      	mov	r0, r4
 8004aa0:	f7ff fe6e 	bl	8004780 <prvCopyDataToQueue>
 8004aa4:	6a63      	ldr	r3, [r4, #36]	; 0x24
 8004aa6:	b11b      	cbz	r3, 8004ab0 <xQueueGenericSend+0x112>
 8004aa8:	f104 0024 	add.w	r0, r4, #36	; 0x24
 8004aac:	f000 fd1c 	bl	80054e8 <xTaskRemoveFromEventList>
 8004ab0:	b148      	cbz	r0, 8004ac6 <xQueueGenericSend+0x128>
 8004ab2:	f04f 23e0 	mov.w	r3, #3758153728	; 0xe000e000
 8004ab6:	f04f 5280 	mov.w	r2, #268435456	; 0x10000000
 8004aba:	f8c3 2d04 	str.w	r2, [r3, #3332]	; 0xd04
 8004abe:	f3bf 8f4f 	dsb	sy
 8004ac2:	f3bf 8f6f 	isb	sy
 8004ac6:	f001 f865 	bl	8005b94 <vPortExitCritical>
 8004aca:	2001      	movs	r0, #1
 8004acc:	b005      	add	sp, #20
 8004ace:	e8bd 83f0 	ldmia.w	sp!, {r4, r5, r6, r7, r8, r9, pc}
 8004ad2:	f001 f85f 	bl	8005b94 <vPortExitCritical>
 8004ad6:	4620      	mov	r0, r4
 8004ad8:	f7ff fe9c 	bl	8004814 <prvUnlockQueue>
 8004adc:	f000 fbfa 	bl	80052d4 <xTaskResumeAll>
 8004ae0:	e7d2      	b.n	8004a88 <xQueueGenericSend+0xea>
 8004ae2:	f04f 23e0 	mov.w	r3, #3758153728	; 0xe000e000
 8004ae6:	f04f 5280 	mov.w	r2, #268435456	; 0x10000000
 8004aea:	f8c3 2d04 	str.w	r2, [r3, #3332]	; 0xd04
 8004aee:	f3bf 8f4f 	dsb	sy
 8004af2:	f3bf 8f6f 	isb	sy
 8004af6:	e7c7      	b.n	8004a88 <xQueueGenericSend+0xea>
 8004af8:	4620      	mov	r0, r4
 8004afa:	f7ff fe8b 	bl	8004814 <prvUnlockQueue>
 8004afe:	f000 fbe9 	bl	80052d4 <xTaskResumeAll>
 8004b02:	e78e      	b.n	8004a22 <xQueueGenericSend+0x84>

08004b04 <xQueueGenericSendFromISR>:
 8004b04:	e92d 43f8 	stmdb	sp!, {r3, r4, r5, r6, r7, r8, r9, lr}
 8004b08:	4689      	mov	r9, r1
 8004b0a:	4690      	mov	r8, r2
 8004b0c:	461f      	mov	r7, r3
 8004b0e:	4604      	mov	r4, r0
 8004b10:	b940      	cbnz	r0, 8004b24 <xQueueGenericSendFromISR+0x20>
 8004b12:	f04f 0350 	mov.w	r3, #80	; 0x50
 8004b16:	f383 8811 	msr	BASEPRI, r3
 8004b1a:	f3bf 8f6f 	isb	sy
 8004b1e:	f3bf 8f4f 	dsb	sy
 8004b22:	e7fe      	b.n	8004b22 <xQueueGenericSendFromISR+0x1e>
 8004b24:	b951      	cbnz	r1, 8004b3c <xQueueGenericSendFromISR+0x38>
 8004b26:	6c03      	ldr	r3, [r0, #64]	; 0x40
 8004b28:	b143      	cbz	r3, 8004b3c <xQueueGenericSendFromISR+0x38>
 8004b2a:	f04f 0350 	mov.w	r3, #80	; 0x50
 8004b2e:	f383 8811 	msr	BASEPRI, r3
 8004b32:	f3bf 8f6f 	isb	sy
 8004b36:	f3bf 8f4f 	dsb	sy
 8004b3a:	e7fe      	b.n	8004b3a <xQueueGenericSendFromISR+0x36>
 8004b3c:	2f02      	cmp	r7, #2
 8004b3e:	d10b      	bne.n	8004b58 <xQueueGenericSendFromISR+0x54>
 8004b40:	6be3      	ldr	r3, [r4, #60]	; 0x3c
 8004b42:	2b01      	cmp	r3, #1
 8004b44:	d008      	beq.n	8004b58 <xQueueGenericSendFromISR+0x54>
 8004b46:	f04f 0350 	mov.w	r3, #80	; 0x50
 8004b4a:	f383 8811 	msr	BASEPRI, r3
 8004b4e:	f3bf 8f6f 	isb	sy
 8004b52:	f3bf 8f4f 	dsb	sy
 8004b56:	e7fe      	b.n	8004b56 <xQueueGenericSendFromISR+0x52>
 8004b58:	f001 f912 	bl	8005d80 <vPortValidateInterruptPriority>
 8004b5c:	f3ef 8611 	mrs	r6, BASEPRI
 8004b60:	f04f 0350 	mov.w	r3, #80	; 0x50
 8004b64:	f383 8811 	msr	BASEPRI, r3
 8004b68:	f3bf 8f6f 	isb	sy
 8004b6c:	f3bf 8f4f 	dsb	sy
 8004b70:	6ba2      	ldr	r2, [r4, #56]	; 0x38
 8004b72:	6be3      	ldr	r3, [r4, #60]	; 0x3c
 8004b74:	429a      	cmp	r2, r3
 8004b76:	d301      	bcc.n	8004b7c <xQueueGenericSendFromISR+0x78>
 8004b78:	2f02      	cmp	r7, #2
 8004b7a:	d123      	bne.n	8004bc4 <xQueueGenericSendFromISR+0xc0>
 8004b7c:	f894 5045 	ldrb.w	r5, [r4, #69]	; 0x45
 8004b80:	463a      	mov	r2, r7
 8004b82:	4649      	mov	r1, r9
 8004b84:	4620      	mov	r0, r4
 8004b86:	b26d      	sxtb	r5, r5
 8004b88:	6ba3      	ldr	r3, [r4, #56]	; 0x38
 8004b8a:	f7ff fdf9 	bl	8004780 <prvCopyDataToQueue>
 8004b8e:	1c6b      	adds	r3, r5, #1
 8004b90:	d113      	bne.n	8004bba <xQueueGenericSendFromISR+0xb6>
 8004b92:	6a63      	ldr	r3, [r4, #36]	; 0x24
 8004b94:	b90b      	cbnz	r3, 8004b9a <xQueueGenericSendFromISR+0x96>
 8004b96:	2001      	movs	r0, #1
 8004b98:	e00b      	b.n	8004bb2 <xQueueGenericSendFromISR+0xae>
 8004b9a:	f104 0024 	add.w	r0, r4, #36	; 0x24
 8004b9e:	f000 fca3 	bl	80054e8 <xTaskRemoveFromEventList>
 8004ba2:	2800      	cmp	r0, #0
 8004ba4:	d0f7      	beq.n	8004b96 <xQueueGenericSendFromISR+0x92>
 8004ba6:	f1b8 0f00 	cmp.w	r8, #0
 8004baa:	d0f4      	beq.n	8004b96 <xQueueGenericSendFromISR+0x92>
 8004bac:	2001      	movs	r0, #1
 8004bae:	f8c8 0000 	str.w	r0, [r8]
 8004bb2:	f386 8811 	msr	BASEPRI, r6
 8004bb6:	e8bd 83f8 	ldmia.w	sp!, {r3, r4, r5, r6, r7, r8, r9, pc}
 8004bba:	3501      	adds	r5, #1
 8004bbc:	b26d      	sxtb	r5, r5
 8004bbe:	f884 5045 	strb.w	r5, [r4, #69]	; 0x45
 8004bc2:	e7e8      	b.n	8004b96 <xQueueGenericSendFromISR+0x92>
 8004bc4:	2000      	movs	r0, #0
 8004bc6:	e7f4      	b.n	8004bb2 <xQueueGenericSendFromISR+0xae>

08004bc8 <xQueueReceive>:
 8004bc8:	e92d 41ff 	stmdb	sp!, {r0, r1, r2, r3, r4, r5, r6, r7, r8, lr}
 8004bcc:	460f      	mov	r7, r1
 8004bce:	4604      	mov	r4, r0
 8004bd0:	9201      	str	r2, [sp, #4]
 8004bd2:	b940      	cbnz	r0, 8004be6 <xQueueReceive+0x1e>
 8004bd4:	f04f 0350 	mov.w	r3, #80	; 0x50
 8004bd8:	f383 8811 	msr	BASEPRI, r3
 8004bdc:	f3bf 8f6f 	isb	sy
 8004be0:	f3bf 8f4f 	dsb	sy
 8004be4:	e7fe      	b.n	8004be4 <xQueueReceive+0x1c>
 8004be6:	b951      	cbnz	r1, 8004bfe <xQueueReceive+0x36>
 8004be8:	6c03      	ldr	r3, [r0, #64]	; 0x40
 8004bea:	b143      	cbz	r3, 8004bfe <xQueueReceive+0x36>
 8004bec:	f04f 0350 	mov.w	r3, #80	; 0x50
 8004bf0:	f383 8811 	msr	BASEPRI, r3
 8004bf4:	f3bf 8f6f 	isb	sy
 8004bf8:	f3bf 8f4f 	dsb	sy
 8004bfc:	e7fe      	b.n	8004bfc <xQueueReceive+0x34>
 8004bfe:	f000 fd05 	bl	800560c <xTaskGetSchedulerState>
 8004c02:	4606      	mov	r6, r0
 8004c04:	b950      	cbnz	r0, 8004c1c <xQueueReceive+0x54>
 8004c06:	9b01      	ldr	r3, [sp, #4]
 8004c08:	b14b      	cbz	r3, 8004c1e <xQueueReceive+0x56>
 8004c0a:	f04f 0350 	mov.w	r3, #80	; 0x50
 8004c0e:	f383 8811 	msr	BASEPRI, r3
 8004c12:	f3bf 8f6f 	isb	sy
 8004c16:	f3bf 8f4f 	dsb	sy
 8004c1a:	e7fe      	b.n	8004c1a <xQueueReceive+0x52>
 8004c1c:	2600      	movs	r6, #0
 8004c1e:	f04f 0800 	mov.w	r8, #0
 8004c22:	e03d      	b.n	8004ca0 <xQueueReceive+0xd8>
 8004c24:	9d01      	ldr	r5, [sp, #4]
 8004c26:	b91d      	cbnz	r5, 8004c30 <xQueueReceive+0x68>
 8004c28:	f000 ffb4 	bl	8005b94 <vPortExitCritical>
 8004c2c:	2000      	movs	r0, #0
 8004c2e:	e056      	b.n	8004cde <xQueueReceive+0x116>
 8004c30:	b916      	cbnz	r6, 8004c38 <xQueueReceive+0x70>
 8004c32:	a802      	add	r0, sp, #8
 8004c34:	f000 fc9c 	bl	8005570 <vTaskInternalSetTimeOutState>
 8004c38:	f000 ffac 	bl	8005b94 <vPortExitCritical>
 8004c3c:	f000 faa6 	bl	800518c <vTaskSuspendAll>
 8004c40:	f000 ff88 	bl	8005b54 <vPortEnterCritical>
 8004c44:	f894 3044 	ldrb.w	r3, [r4, #68]	; 0x44
 8004c48:	2bff      	cmp	r3, #255	; 0xff
 8004c4a:	d101      	bne.n	8004c50 <xQueueReceive+0x88>
 8004c4c:	f884 8044 	strb.w	r8, [r4, #68]	; 0x44
 8004c50:	f894 3045 	ldrb.w	r3, [r4, #69]	; 0x45
 8004c54:	2bff      	cmp	r3, #255	; 0xff
 8004c56:	d101      	bne.n	8004c5c <xQueueReceive+0x94>
 8004c58:	f884 8045 	strb.w	r8, [r4, #69]	; 0x45
 8004c5c:	f000 ff9a 	bl	8005b94 <vPortExitCritical>
 8004c60:	a901      	add	r1, sp, #4
 8004c62:	a802      	add	r0, sp, #8
 8004c64:	f000 fc90 	bl	8005588 <xTaskCheckForTimeOut>
 8004c68:	2800      	cmp	r0, #0
 8004c6a:	d141      	bne.n	8004cf0 <xQueueReceive+0x128>
 8004c6c:	4620      	mov	r0, r4
 8004c6e:	f7ff fd7c 	bl	800476a <prvIsQueueEmpty>
 8004c72:	b3b8      	cbz	r0, 8004ce4 <xQueueReceive+0x11c>
 8004c74:	9901      	ldr	r1, [sp, #4]
 8004c76:	f104 0024 	add.w	r0, r4, #36	; 0x24
 8004c7a:	f000 fbfd 	bl	8005478 <vTaskPlaceOnEventList>
 8004c7e:	4620      	mov	r0, r4
 8004c80:	f7ff fdc8 	bl	8004814 <prvUnlockQueue>
 8004c84:	f000 fb26 	bl	80052d4 <xTaskResumeAll>
 8004c88:	b948      	cbnz	r0, 8004c9e <xQueueReceive+0xd6>
 8004c8a:	f04f 23e0 	mov.w	r3, #3758153728	; 0xe000e000
 8004c8e:	f04f 5280 	mov.w	r2, #268435456	; 0x10000000
 8004c92:	f8c3 2d04 	str.w	r2, [r3, #3332]	; 0xd04
 8004c96:	f3bf 8f4f 	dsb	sy
 8004c9a:	f3bf 8f6f 	isb	sy
 8004c9e:	2601      	movs	r6, #1
 8004ca0:	f000 ff58 	bl	8005b54 <vPortEnterCritical>
 8004ca4:	6ba5      	ldr	r5, [r4, #56]	; 0x38
 8004ca6:	2d00      	cmp	r5, #0
 8004ca8:	d0bc      	beq.n	8004c24 <xQueueReceive+0x5c>
 8004caa:	3d01      	subs	r5, #1
 8004cac:	4639      	mov	r1, r7
 8004cae:	4620      	mov	r0, r4
 8004cb0:	f7ff fd9b 	bl	80047ea <prvCopyDataFromQueue>
 8004cb4:	63a5      	str	r5, [r4, #56]	; 0x38
 8004cb6:	6923      	ldr	r3, [r4, #16]
 8004cb8:	b173      	cbz	r3, 8004cd8 <xQueueReceive+0x110>
 8004cba:	f104 0010 	add.w	r0, r4, #16
 8004cbe:	f000 fc13 	bl	80054e8 <xTaskRemoveFromEventList>
 8004cc2:	b148      	cbz	r0, 8004cd8 <xQueueReceive+0x110>
 8004cc4:	f04f 23e0 	mov.w	r3, #3758153728	; 0xe000e000
 8004cc8:	f04f 5280 	mov.w	r2, #268435456	; 0x10000000
 8004ccc:	f8c3 2d04 	str.w	r2, [r3, #3332]	; 0xd04
 8004cd0:	f3bf 8f4f 	dsb	sy
 8004cd4:	f3bf 8f6f 	isb	sy
 8004cd8:	f000 ff5c 	bl	8005b94 <vPortExitCritical>
 8004cdc:	2001      	movs	r0, #1
 8004cde:	b004      	add	sp, #16
 8004ce0:	e8bd 81f0 	ldmia.w	sp!, {r4, r5, r6, r7, r8, pc}
 8004ce4:	4620      	mov	r0, r4
 8004ce6:	f7ff fd95 	bl	8004814 <prvUnlockQueue>
 8004cea:	f000 faf3 	bl	80052d4 <xTaskResumeAll>
 8004cee:	e7d6      	b.n	8004c9e <xQueueReceive+0xd6>
 8004cf0:	4620      	mov	r0, r4
 8004cf2:	f7ff fd8f 	bl	8004814 <prvUnlockQueue>
 8004cf6:	f000 faed 	bl	80052d4 <xTaskResumeAll>
 8004cfa:	4620      	mov	r0, r4
 8004cfc:	f7ff fd35 	bl	800476a <prvIsQueueEmpty>
 8004d00:	2800      	cmp	r0, #0
 8004d02:	d0cc      	beq.n	8004c9e <xQueueReceive+0xd6>
 8004d04:	e792      	b.n	8004c2c <xQueueReceive+0x64>
	...

08004d08 <vQueueAddToRegistry>:
 8004d08:	2300      	movs	r3, #0
 8004d0a:	4a07      	ldr	r2, [pc, #28]	; (8004d28 <vQueueAddToRegistry+0x20>)
 8004d0c:	b510      	push	{r4, lr}
 8004d0e:	f852 4033 	ldr.w	r4, [r2, r3, lsl #3]
 8004d12:	b92c      	cbnz	r4, 8004d20 <vQueueAddToRegistry+0x18>
 8004d14:	f842 1033 	str.w	r1, [r2, r3, lsl #3]
 8004d18:	eb02 02c3 	add.w	r2, r2, r3, lsl #3
 8004d1c:	6050      	str	r0, [r2, #4]
 8004d1e:	bd10      	pop	{r4, pc}
 8004d20:	3301      	adds	r3, #1
 8004d22:	2b08      	cmp	r3, #8
 8004d24:	d1f3      	bne.n	8004d0e <vQueueAddToRegistry+0x6>
 8004d26:	e7fa      	b.n	8004d1e <vQueueAddToRegistry+0x16>
 8004d28:	24000f10 	.word	0x24000f10

08004d2c <vQueueWaitForMessageRestricted>:
 8004d2c:	b570      	push	{r4, r5, r6, lr}
 8004d2e:	4604      	mov	r4, r0
 8004d30:	460d      	mov	r5, r1
 8004d32:	4616      	mov	r6, r2
 8004d34:	f000 ff0e 	bl	8005b54 <vPortEnterCritical>
 8004d38:	f894 3044 	ldrb.w	r3, [r4, #68]	; 0x44
 8004d3c:	2bff      	cmp	r3, #255	; 0xff
 8004d3e:	d102      	bne.n	8004d46 <vQueueWaitForMessageRestricted+0x1a>
 8004d40:	2300      	movs	r3, #0
 8004d42:	f884 3044 	strb.w	r3, [r4, #68]	; 0x44
 8004d46:	f894 3045 	ldrb.w	r3, [r4, #69]	; 0x45
 8004d4a:	2bff      	cmp	r3, #255	; 0xff
 8004d4c:	d102      	bne.n	8004d54 <vQueueWaitForMessageRestricted+0x28>
 8004d4e:	2300      	movs	r3, #0
 8004d50:	f884 3045 	strb.w	r3, [r4, #69]	; 0x45
 8004d54:	f000 ff1e 	bl	8005b94 <vPortExitCritical>
 8004d58:	6ba3      	ldr	r3, [r4, #56]	; 0x38
 8004d5a:	b92b      	cbnz	r3, 8004d68 <vQueueWaitForMessageRestricted+0x3c>
 8004d5c:	4632      	mov	r2, r6
 8004d5e:	4629      	mov	r1, r5
 8004d60:	f104 0024 	add.w	r0, r4, #36	; 0x24
 8004d64:	f000 fba2 	bl	80054ac <vTaskPlaceOnEventListRestricted>
 8004d68:	4620      	mov	r0, r4
 8004d6a:	e8bd 4070 	ldmia.w	sp!, {r4, r5, r6, lr}
 8004d6e:	f7ff bd51 	b.w	8004814 <prvUnlockQueue>
	...

08004d74 <prvAddNewTaskToReadyList>:
 8004d74:	e92d 41f0 	stmdb	sp!, {r4, r5, r6, r7, r8, lr}
 8004d78:	4604      	mov	r4, r0
 8004d7a:	f000 feeb 	bl	8005b54 <vPortEnterCritical>
 8004d7e:	4b2f      	ldr	r3, [pc, #188]	; (8004e3c <prvAddNewTaskToReadyList+0xc8>)
 8004d80:	4e2f      	ldr	r6, [pc, #188]	; (8004e40 <prvAddNewTaskToReadyList+0xcc>)
 8004d82:	681a      	ldr	r2, [r3, #0]
 8004d84:	4f2f      	ldr	r7, [pc, #188]	; (8004e44 <prvAddNewTaskToReadyList+0xd0>)
 8004d86:	3201      	adds	r2, #1
 8004d88:	601a      	str	r2, [r3, #0]
 8004d8a:	6835      	ldr	r5, [r6, #0]
 8004d8c:	2d00      	cmp	r5, #0
 8004d8e:	d14a      	bne.n	8004e26 <prvAddNewTaskToReadyList+0xb2>
 8004d90:	6034      	str	r4, [r6, #0]
 8004d92:	681b      	ldr	r3, [r3, #0]
 8004d94:	2b01      	cmp	r3, #1
 8004d96:	d11f      	bne.n	8004dd8 <prvAddNewTaskToReadyList+0x64>
 8004d98:	46b8      	mov	r8, r7
 8004d9a:	3501      	adds	r5, #1
 8004d9c:	4640      	mov	r0, r8
 8004d9e:	f7ff fca3 	bl	80046e8 <vListInitialise>
 8004da2:	f108 0814 	add.w	r8, r8, #20
 8004da6:	2d38      	cmp	r5, #56	; 0x38
 8004da8:	d1f7      	bne.n	8004d9a <prvAddNewTaskToReadyList+0x26>
 8004daa:	f8df 80c0 	ldr.w	r8, [pc, #192]	; 8004e6c <prvAddNewTaskToReadyList+0xf8>
 8004dae:	4d26      	ldr	r5, [pc, #152]	; (8004e48 <prvAddNewTaskToReadyList+0xd4>)
 8004db0:	4640      	mov	r0, r8
 8004db2:	f7ff fc99 	bl	80046e8 <vListInitialise>
 8004db6:	4628      	mov	r0, r5
 8004db8:	f7ff fc96 	bl	80046e8 <vListInitialise>
 8004dbc:	4823      	ldr	r0, [pc, #140]	; (8004e4c <prvAddNewTaskToReadyList+0xd8>)
 8004dbe:	f7ff fc93 	bl	80046e8 <vListInitialise>
 8004dc2:	4823      	ldr	r0, [pc, #140]	; (8004e50 <prvAddNewTaskToReadyList+0xdc>)
 8004dc4:	f7ff fc90 	bl	80046e8 <vListInitialise>
 8004dc8:	4822      	ldr	r0, [pc, #136]	; (8004e54 <prvAddNewTaskToReadyList+0xe0>)
 8004dca:	f7ff fc8d 	bl	80046e8 <vListInitialise>
 8004dce:	4b22      	ldr	r3, [pc, #136]	; (8004e58 <prvAddNewTaskToReadyList+0xe4>)
 8004dd0:	f8c3 8000 	str.w	r8, [r3]
 8004dd4:	4b21      	ldr	r3, [pc, #132]	; (8004e5c <prvAddNewTaskToReadyList+0xe8>)
 8004dd6:	601d      	str	r5, [r3, #0]
 8004dd8:	4a21      	ldr	r2, [pc, #132]	; (8004e60 <prvAddNewTaskToReadyList+0xec>)
 8004dda:	6813      	ldr	r3, [r2, #0]
 8004ddc:	3301      	adds	r3, #1
 8004dde:	6013      	str	r3, [r2, #0]
 8004de0:	4a20      	ldr	r2, [pc, #128]	; (8004e64 <prvAddNewTaskToReadyList+0xf0>)
 8004de2:	6463      	str	r3, [r4, #68]	; 0x44
 8004de4:	6811      	ldr	r1, [r2, #0]
 8004de6:	6ae3      	ldr	r3, [r4, #44]	; 0x2c
 8004de8:	428b      	cmp	r3, r1
 8004dea:	d900      	bls.n	8004dee <prvAddNewTaskToReadyList+0x7a>
 8004dec:	6013      	str	r3, [r2, #0]
 8004dee:	2014      	movs	r0, #20
 8004df0:	1d21      	adds	r1, r4, #4
 8004df2:	fb00 7003 	mla	r0, r0, r3, r7
 8004df6:	f7ff fc85 	bl	8004704 <vListInsertEnd>
 8004dfa:	f000 fecb 	bl	8005b94 <vPortExitCritical>
 8004dfe:	4b1a      	ldr	r3, [pc, #104]	; (8004e68 <prvAddNewTaskToReadyList+0xf4>)
 8004e00:	681b      	ldr	r3, [r3, #0]
 8004e02:	b173      	cbz	r3, 8004e22 <prvAddNewTaskToReadyList+0xae>
 8004e04:	6833      	ldr	r3, [r6, #0]
 8004e06:	6ada      	ldr	r2, [r3, #44]	; 0x2c
 8004e08:	6ae3      	ldr	r3, [r4, #44]	; 0x2c
 8004e0a:	429a      	cmp	r2, r3
 8004e0c:	d209      	bcs.n	8004e22 <prvAddNewTaskToReadyList+0xae>
 8004e0e:	f04f 23e0 	mov.w	r3, #3758153728	; 0xe000e000
 8004e12:	f04f 5280 	mov.w	r2, #268435456	; 0x10000000
 8004e16:	f8c3 2d04 	str.w	r2, [r3, #3332]	; 0xd04
 8004e1a:	f3bf 8f4f 	dsb	sy
 8004e1e:	f3bf 8f6f 	isb	sy
 8004e22:	e8bd 81f0 	ldmia.w	sp!, {r4, r5, r6, r7, r8, pc}
 8004e26:	4b10      	ldr	r3, [pc, #64]	; (8004e68 <prvAddNewTaskToReadyList+0xf4>)
 8004e28:	681a      	ldr	r2, [r3, #0]
 8004e2a:	6ae3      	ldr	r3, [r4, #44]	; 0x2c
 8004e2c:	2a00      	cmp	r2, #0
 8004e2e:	d1d3      	bne.n	8004dd8 <prvAddNewTaskToReadyList+0x64>
 8004e30:	6832      	ldr	r2, [r6, #0]
 8004e32:	6ad2      	ldr	r2, [r2, #44]	; 0x2c
 8004e34:	429a      	cmp	r2, r3
 8004e36:	d8cf      	bhi.n	8004dd8 <prvAddNewTaskToReadyList+0x64>
 8004e38:	6034      	str	r4, [r6, #0]
 8004e3a:	e7cd      	b.n	8004dd8 <prvAddNewTaskToReadyList+0x64>
 8004e3c:	240013bc 	.word	0x240013bc
 8004e40:	24000f50 	.word	0x24000f50
 8004e44:	24000f5c 	.word	0x24000f5c
 8004e48:	240013e4 	.word	0x240013e4
 8004e4c:	24001404 	.word	0x24001404
 8004e50:	24001430 	.word	0x24001430
 8004e54:	2400141c 	.word	0x2400141c
 8004e58:	24000f54 	.word	0x24000f54
 8004e5c:	24000f58 	.word	0x24000f58
 8004e60:	240013c8 	.word	0x240013c8
 8004e64:	240013cc 	.word	0x240013cc
 8004e68:	24001418 	.word	0x24001418
 8004e6c:	240013d0 	.word	0x240013d0

08004e70 <prvAddCurrentTaskToDelayedList>:
 8004e70:	b5f8      	push	{r3, r4, r5, r6, r7, lr}
 8004e72:	4b15      	ldr	r3, [pc, #84]	; (8004ec8 <prvAddCurrentTaskToDelayedList+0x58>)
 8004e74:	4606      	mov	r6, r0
 8004e76:	4d15      	ldr	r5, [pc, #84]	; (8004ecc <prvAddCurrentTaskToDelayedList+0x5c>)
 8004e78:	460f      	mov	r7, r1
 8004e7a:	681c      	ldr	r4, [r3, #0]
 8004e7c:	6828      	ldr	r0, [r5, #0]
 8004e7e:	3004      	adds	r0, #4
 8004e80:	f7ff fc63 	bl	800474a <uxListRemove>
 8004e84:	1c73      	adds	r3, r6, #1
 8004e86:	d107      	bne.n	8004e98 <prvAddCurrentTaskToDelayedList+0x28>
 8004e88:	b137      	cbz	r7, 8004e98 <prvAddCurrentTaskToDelayedList+0x28>
 8004e8a:	6829      	ldr	r1, [r5, #0]
 8004e8c:	4810      	ldr	r0, [pc, #64]	; (8004ed0 <prvAddCurrentTaskToDelayedList+0x60>)
 8004e8e:	3104      	adds	r1, #4
 8004e90:	e8bd 40f8 	ldmia.w	sp!, {r3, r4, r5, r6, r7, lr}
 8004e94:	f7ff bc36 	b.w	8004704 <vListInsertEnd>
 8004e98:	19a4      	adds	r4, r4, r6
 8004e9a:	682b      	ldr	r3, [r5, #0]
 8004e9c:	605c      	str	r4, [r3, #4]
 8004e9e:	d307      	bcc.n	8004eb0 <prvAddCurrentTaskToDelayedList+0x40>
 8004ea0:	4b0c      	ldr	r3, [pc, #48]	; (8004ed4 <prvAddCurrentTaskToDelayedList+0x64>)
 8004ea2:	6818      	ldr	r0, [r3, #0]
 8004ea4:	6829      	ldr	r1, [r5, #0]
 8004ea6:	e8bd 40f8 	ldmia.w	sp!, {r3, r4, r5, r6, r7, lr}
 8004eaa:	3104      	adds	r1, #4
 8004eac:	f7ff bc36 	b.w	800471c <vListInsert>
 8004eb0:	4b09      	ldr	r3, [pc, #36]	; (8004ed8 <prvAddCurrentTaskToDelayedList+0x68>)
 8004eb2:	6818      	ldr	r0, [r3, #0]
 8004eb4:	6829      	ldr	r1, [r5, #0]
 8004eb6:	3104      	adds	r1, #4
 8004eb8:	f7ff fc30 	bl	800471c <vListInsert>
 8004ebc:	4b07      	ldr	r3, [pc, #28]	; (8004edc <prvAddCurrentTaskToDelayedList+0x6c>)
 8004ebe:	681a      	ldr	r2, [r3, #0]
 8004ec0:	42a2      	cmp	r2, r4
 8004ec2:	d900      	bls.n	8004ec6 <prvAddCurrentTaskToDelayedList+0x56>
 8004ec4:	601c      	str	r4, [r3, #0]
 8004ec6:	bdf8      	pop	{r3, r4, r5, r6, r7, pc}
 8004ec8:	24001444 	.word	0x24001444
 8004ecc:	24000f50 	.word	0x24000f50
 8004ed0:	2400141c 	.word	0x2400141c
 8004ed4:	24000f58 	.word	0x24000f58
 8004ed8:	24000f54 	.word	0x24000f54
 8004edc:	240013f8 	.word	0x240013f8

08004ee0 <prvResetNextTaskUnblockTime>:
 8004ee0:	4a06      	ldr	r2, [pc, #24]	; (8004efc <prvResetNextTaskUnblockTime+0x1c>)
 8004ee2:	6813      	ldr	r3, [r2, #0]
 8004ee4:	6819      	ldr	r1, [r3, #0]
 8004ee6:	4b06      	ldr	r3, [pc, #24]	; (8004f00 <prvResetNextTaskUnblockTime+0x20>)
 8004ee8:	b919      	cbnz	r1, 8004ef2 <prvResetNextTaskUnblockTime+0x12>
 8004eea:	f04f 32ff 	mov.w	r2, #4294967295
 8004eee:	601a      	str	r2, [r3, #0]
 8004ef0:	4770      	bx	lr
 8004ef2:	6812      	ldr	r2, [r2, #0]
 8004ef4:	68d2      	ldr	r2, [r2, #12]
 8004ef6:	68d2      	ldr	r2, [r2, #12]
 8004ef8:	6852      	ldr	r2, [r2, #4]
 8004efa:	e7f8      	b.n	8004eee <prvResetNextTaskUnblockTime+0xe>
 8004efc:	24000f54 	.word	0x24000f54
 8004f00:	240013f8 	.word	0x240013f8

08004f04 <prvDeleteTCB>:
 8004f04:	b510      	push	{r4, lr}
 8004f06:	f890 3059 	ldrb.w	r3, [r0, #89]	; 0x59
 8004f0a:	4604      	mov	r4, r0
 8004f0c:	b93b      	cbnz	r3, 8004f1e <prvDeleteTCB+0x1a>
 8004f0e:	6b00      	ldr	r0, [r0, #48]	; 0x30
 8004f10:	f001 f822 	bl	8005f58 <vPortFree>
 8004f14:	4620      	mov	r0, r4
 8004f16:	e8bd 4010 	ldmia.w	sp!, {r4, lr}
 8004f1a:	f001 b81d 	b.w	8005f58 <vPortFree>
 8004f1e:	2b01      	cmp	r3, #1
 8004f20:	d0f9      	beq.n	8004f16 <prvDeleteTCB+0x12>
 8004f22:	2b02      	cmp	r3, #2
 8004f24:	d008      	beq.n	8004f38 <prvDeleteTCB+0x34>
 8004f26:	f04f 0350 	mov.w	r3, #80	; 0x50
 8004f2a:	f383 8811 	msr	BASEPRI, r3
 8004f2e:	f3bf 8f6f 	isb	sy
 8004f32:	f3bf 8f4f 	dsb	sy
 8004f36:	e7fe      	b.n	8004f36 <prvDeleteTCB+0x32>
 8004f38:	bd10      	pop	{r4, pc}
	...

08004f3c <prvIdleTask>:
 8004f3c:	b580      	push	{r7, lr}
 8004f3e:	4c13      	ldr	r4, [pc, #76]	; (8004f8c <prvIdleTask+0x50>)
 8004f40:	4f13      	ldr	r7, [pc, #76]	; (8004f90 <prvIdleTask+0x54>)
 8004f42:	4d14      	ldr	r5, [pc, #80]	; (8004f94 <prvIdleTask+0x58>)
 8004f44:	6823      	ldr	r3, [r4, #0]
 8004f46:	b973      	cbnz	r3, 8004f66 <prvIdleTask+0x2a>
 8004f48:	4b13      	ldr	r3, [pc, #76]	; (8004f98 <prvIdleTask+0x5c>)
 8004f4a:	681b      	ldr	r3, [r3, #0]
 8004f4c:	2b01      	cmp	r3, #1
 8004f4e:	d9f8      	bls.n	8004f42 <prvIdleTask+0x6>
 8004f50:	f04f 23e0 	mov.w	r3, #3758153728	; 0xe000e000
 8004f54:	f04f 5280 	mov.w	r2, #268435456	; 0x10000000
 8004f58:	f8c3 2d04 	str.w	r2, [r3, #3332]	; 0xd04
 8004f5c:	f3bf 8f4f 	dsb	sy
 8004f60:	f3bf 8f6f 	isb	sy
 8004f64:	e7ed      	b.n	8004f42 <prvIdleTask+0x6>
 8004f66:	f000 fdf5 	bl	8005b54 <vPortEnterCritical>
 8004f6a:	68fb      	ldr	r3, [r7, #12]
 8004f6c:	68de      	ldr	r6, [r3, #12]
 8004f6e:	1d30      	adds	r0, r6, #4
 8004f70:	f7ff fbeb 	bl	800474a <uxListRemove>
 8004f74:	682b      	ldr	r3, [r5, #0]
 8004f76:	3b01      	subs	r3, #1
 8004f78:	602b      	str	r3, [r5, #0]
 8004f7a:	6823      	ldr	r3, [r4, #0]
 8004f7c:	3b01      	subs	r3, #1
 8004f7e:	6023      	str	r3, [r4, #0]
 8004f80:	f000 fe08 	bl	8005b94 <vPortExitCritical>
 8004f84:	4630      	mov	r0, r6
 8004f86:	f7ff ffbd 	bl	8004f04 <prvDeleteTCB>
 8004f8a:	e7db      	b.n	8004f44 <prvIdleTask+0x8>
 8004f8c:	240013c0 	.word	0x240013c0
 8004f90:	24001430 	.word	0x24001430
 8004f94:	240013bc 	.word	0x240013bc
 8004f98:	24000f5c 	.word	0x24000f5c

08004f9c <prvInitialiseNewTask.constprop.0>:
 8004f9c:	e92d 47f0 	stmdb	sp!, {r4, r5, r6, r7, r8, r9, sl, lr}
 8004fa0:	ea4f 0982 	mov.w	r9, r2, lsl #2
 8004fa4:	4606      	mov	r6, r0
 8004fa6:	460d      	mov	r5, r1
 8004fa8:	21a5      	movs	r1, #165	; 0xa5
 8004faa:	464a      	mov	r2, r9
 8004fac:	461f      	mov	r7, r3
 8004fae:	f1a9 0904 	sub.w	r9, r9, #4
 8004fb2:	e9dd 8409 	ldrd	r8, r4, [sp, #36]	; 0x24
 8004fb6:	6b20      	ldr	r0, [r4, #48]	; 0x30
 8004fb8:	f002 fb36 	bl	8007628 <memset>
 8004fbc:	6b23      	ldr	r3, [r4, #48]	; 0x30
 8004fbe:	444b      	add	r3, r9
 8004fc0:	f023 0907 	bic.w	r9, r3, #7
 8004fc4:	b3a5      	cbz	r5, 8005030 <prvInitialiseNewTask.constprop.0+0x94>
 8004fc6:	1e6b      	subs	r3, r5, #1
 8004fc8:	f104 0233 	add.w	r2, r4, #51	; 0x33
 8004fcc:	350f      	adds	r5, #15
 8004fce:	f813 1f01 	ldrb.w	r1, [r3, #1]!
 8004fd2:	f802 1f01 	strb.w	r1, [r2, #1]!
 8004fd6:	b109      	cbz	r1, 8004fdc <prvInitialiseNewTask.constprop.0+0x40>
 8004fd8:	42ab      	cmp	r3, r5
 8004fda:	d1f8      	bne.n	8004fce <prvInitialiseNewTask.constprop.0+0x32>
 8004fdc:	2300      	movs	r3, #0
 8004fde:	f884 3043 	strb.w	r3, [r4, #67]	; 0x43
 8004fe2:	9d08      	ldr	r5, [sp, #32]
 8004fe4:	f04f 0a00 	mov.w	sl, #0
 8004fe8:	1d20      	adds	r0, r4, #4
 8004fea:	2d37      	cmp	r5, #55	; 0x37
 8004fec:	f8c4 a050 	str.w	sl, [r4, #80]	; 0x50
 8004ff0:	bf28      	it	cs
 8004ff2:	2537      	movcs	r5, #55	; 0x37
 8004ff4:	62e5      	str	r5, [r4, #44]	; 0x2c
 8004ff6:	64e5      	str	r5, [r4, #76]	; 0x4c
 8004ff8:	f1c5 0538 	rsb	r5, r5, #56	; 0x38
 8004ffc:	f7ff fb7f 	bl	80046fe <vListInitialiseItem>
 8005000:	f104 0018 	add.w	r0, r4, #24
 8005004:	f7ff fb7b 	bl	80046fe <vListInitialiseItem>
 8005008:	f8c4 a054 	str.w	sl, [r4, #84]	; 0x54
 800500c:	463a      	mov	r2, r7
 800500e:	4631      	mov	r1, r6
 8005010:	4648      	mov	r0, r9
 8005012:	6124      	str	r4, [r4, #16]
 8005014:	61a5      	str	r5, [r4, #24]
 8005016:	6264      	str	r4, [r4, #36]	; 0x24
 8005018:	f884 a058 	strb.w	sl, [r4, #88]	; 0x58
 800501c:	f000 fd72 	bl	8005b04 <pxPortInitialiseStack>
 8005020:	6020      	str	r0, [r4, #0]
 8005022:	f1b8 0f00 	cmp.w	r8, #0
 8005026:	d001      	beq.n	800502c <prvInitialiseNewTask.constprop.0+0x90>
 8005028:	f8c8 4000 	str.w	r4, [r8]
 800502c:	e8bd 87f0 	ldmia.w	sp!, {r4, r5, r6, r7, r8, r9, sl, pc}
 8005030:	f884 5034 	strb.w	r5, [r4, #52]	; 0x34
 8005034:	e7d5      	b.n	8004fe2 <prvInitialiseNewTask.constprop.0+0x46>

08005036 <xTaskCreateStatic>:
 8005036:	b570      	push	{r4, r5, r6, lr}
 8005038:	b086      	sub	sp, #24
 800503a:	e9dd 540b 	ldrd	r5, r4, [sp, #44]	; 0x2c
 800503e:	b945      	cbnz	r5, 8005052 <xTaskCreateStatic+0x1c>
 8005040:	f04f 0350 	mov.w	r3, #80	; 0x50
 8005044:	f383 8811 	msr	BASEPRI, r3
 8005048:	f3bf 8f6f 	isb	sy
 800504c:	f3bf 8f4f 	dsb	sy
 8005050:	e7fe      	b.n	8005050 <xTaskCreateStatic+0x1a>
 8005052:	b944      	cbnz	r4, 8005066 <xTaskCreateStatic+0x30>
 8005054:	f04f 0350 	mov.w	r3, #80	; 0x50
 8005058:	f383 8811 	msr	BASEPRI, r3
 800505c:	f3bf 8f6f 	isb	sy
 8005060:	f3bf 8f4f 	dsb	sy
 8005064:	e7fe      	b.n	8005064 <xTaskCreateStatic+0x2e>
 8005066:	265c      	movs	r6, #92	; 0x5c
 8005068:	9605      	str	r6, [sp, #20]
 800506a:	9e05      	ldr	r6, [sp, #20]
 800506c:	2e5c      	cmp	r6, #92	; 0x5c
 800506e:	d008      	beq.n	8005082 <xTaskCreateStatic+0x4c>
 8005070:	f04f 0350 	mov.w	r3, #80	; 0x50
 8005074:	f383 8811 	msr	BASEPRI, r3
 8005078:	f3bf 8f6f 	isb	sy
 800507c:	f3bf 8f4f 	dsb	sy
 8005080:	e7fe      	b.n	8005080 <xTaskCreateStatic+0x4a>
 8005082:	6325      	str	r5, [r4, #48]	; 0x30
 8005084:	2502      	movs	r5, #2
 8005086:	9e05      	ldr	r6, [sp, #20]
 8005088:	f884 5059 	strb.w	r5, [r4, #89]	; 0x59
 800508c:	ad04      	add	r5, sp, #16
 800508e:	9402      	str	r4, [sp, #8]
 8005090:	9501      	str	r5, [sp, #4]
 8005092:	9d0a      	ldr	r5, [sp, #40]	; 0x28
 8005094:	9500      	str	r5, [sp, #0]
 8005096:	f7ff ff81 	bl	8004f9c <prvInitialiseNewTask.constprop.0>
 800509a:	4620      	mov	r0, r4
 800509c:	f7ff fe6a 	bl	8004d74 <prvAddNewTaskToReadyList>
 80050a0:	9804      	ldr	r0, [sp, #16]
 80050a2:	b006      	add	sp, #24
 80050a4:	bd70      	pop	{r4, r5, r6, pc}

080050a6 <xTaskCreate>:
 80050a6:	e92d 43f0 	stmdb	sp!, {r4, r5, r6, r7, r8, r9, lr}
 80050aa:	4607      	mov	r7, r0
 80050ac:	b085      	sub	sp, #20
 80050ae:	0090      	lsls	r0, r2, #2
 80050b0:	4688      	mov	r8, r1
 80050b2:	4616      	mov	r6, r2
 80050b4:	4699      	mov	r9, r3
 80050b6:	f000 feb7 	bl	8005e28 <pvPortMalloc>
 80050ba:	4605      	mov	r5, r0
 80050bc:	b1e8      	cbz	r0, 80050fa <xTaskCreate+0x54>
 80050be:	205c      	movs	r0, #92	; 0x5c
 80050c0:	f000 feb2 	bl	8005e28 <pvPortMalloc>
 80050c4:	4604      	mov	r4, r0
 80050c6:	b1a8      	cbz	r0, 80050f4 <xTaskCreate+0x4e>
 80050c8:	2300      	movs	r3, #0
 80050ca:	6305      	str	r5, [r0, #48]	; 0x30
 80050cc:	4632      	mov	r2, r6
 80050ce:	4641      	mov	r1, r8
 80050d0:	f880 3059 	strb.w	r3, [r0, #89]	; 0x59
 80050d4:	9b0d      	ldr	r3, [sp, #52]	; 0x34
 80050d6:	9002      	str	r0, [sp, #8]
 80050d8:	4638      	mov	r0, r7
 80050da:	9301      	str	r3, [sp, #4]
 80050dc:	9b0c      	ldr	r3, [sp, #48]	; 0x30
 80050de:	9300      	str	r3, [sp, #0]
 80050e0:	464b      	mov	r3, r9
 80050e2:	f7ff ff5b 	bl	8004f9c <prvInitialiseNewTask.constprop.0>
 80050e6:	4620      	mov	r0, r4
 80050e8:	f7ff fe44 	bl	8004d74 <prvAddNewTaskToReadyList>
 80050ec:	2001      	movs	r0, #1
 80050ee:	b005      	add	sp, #20
 80050f0:	e8bd 83f0 	ldmia.w	sp!, {r4, r5, r6, r7, r8, r9, pc}
 80050f4:	4628      	mov	r0, r5
 80050f6:	f000 ff2f 	bl	8005f58 <vPortFree>
 80050fa:	f04f 30ff 	mov.w	r0, #4294967295
 80050fe:	e7f6      	b.n	80050ee <xTaskCreate+0x48>

08005100 <vTaskStartScheduler>:
 8005100:	b510      	push	{r4, lr}
 8005102:	b088      	sub	sp, #32
 8005104:	2400      	movs	r4, #0
 8005106:	aa07      	add	r2, sp, #28
 8005108:	a906      	add	r1, sp, #24
 800510a:	a805      	add	r0, sp, #20
 800510c:	e9cd 4405 	strd	r4, r4, [sp, #20]
 8005110:	f7ff fad2 	bl	80046b8 <vApplicationGetIdleTaskMemory>
 8005114:	9b05      	ldr	r3, [sp, #20]
 8005116:	9a07      	ldr	r2, [sp, #28]
 8005118:	9302      	str	r3, [sp, #8]
 800511a:	9b06      	ldr	r3, [sp, #24]
 800511c:	4916      	ldr	r1, [pc, #88]	; (8005178 <vTaskStartScheduler+0x78>)
 800511e:	4817      	ldr	r0, [pc, #92]	; (800517c <vTaskStartScheduler+0x7c>)
 8005120:	e9cd 4300 	strd	r4, r3, [sp]
 8005124:	4623      	mov	r3, r4
 8005126:	f7ff ff86 	bl	8005036 <xTaskCreateStatic>
 800512a:	b318      	cbz	r0, 8005174 <vTaskStartScheduler+0x74>
 800512c:	f000 fb14 	bl	8005758 <xTimerCreateTimerTask>
 8005130:	2801      	cmp	r0, #1
 8005132:	d114      	bne.n	800515e <vTaskStartScheduler+0x5e>
 8005134:	f04f 0350 	mov.w	r3, #80	; 0x50
 8005138:	f383 8811 	msr	BASEPRI, r3
 800513c:	f3bf 8f6f 	isb	sy
 8005140:	f3bf 8f4f 	dsb	sy
 8005144:	4b0e      	ldr	r3, [pc, #56]	; (8005180 <vTaskStartScheduler+0x80>)
 8005146:	f04f 32ff 	mov.w	r2, #4294967295
 800514a:	601a      	str	r2, [r3, #0]
 800514c:	4b0d      	ldr	r3, [pc, #52]	; (8005184 <vTaskStartScheduler+0x84>)
 800514e:	6018      	str	r0, [r3, #0]
 8005150:	4b0d      	ldr	r3, [pc, #52]	; (8005188 <vTaskStartScheduler+0x88>)
 8005152:	601c      	str	r4, [r3, #0]
 8005154:	b008      	add	sp, #32
 8005156:	e8bd 4010 	ldmia.w	sp!, {r4, lr}
 800515a:	f000 bd8b 	b.w	8005c74 <xPortStartScheduler>
 800515e:	3001      	adds	r0, #1
 8005160:	d108      	bne.n	8005174 <vTaskStartScheduler+0x74>
 8005162:	f04f 0350 	mov.w	r3, #80	; 0x50
 8005166:	f383 8811 	msr	BASEPRI, r3
 800516a:	f3bf 8f6f 	isb	sy
 800516e:	f3bf 8f4f 	dsb	sy
 8005172:	e7fe      	b.n	8005172 <vTaskStartScheduler+0x72>
 8005174:	b008      	add	sp, #32
 8005176:	bd10      	pop	{r4, pc}
 8005178:	08007786 	.word	0x08007786
 800517c:	08004f3d 	.word	0x08004f3d
 8005180:	240013f8 	.word	0x240013f8
 8005184:	24001418 	.word	0x24001418
 8005188:	24001444 	.word	0x24001444

0800518c <vTaskSuspendAll>:
 800518c:	4a02      	ldr	r2, [pc, #8]	; (8005198 <vTaskSuspendAll+0xc>)
 800518e:	6813      	ldr	r3, [r2, #0]
 8005190:	3301      	adds	r3, #1
 8005192:	6013      	str	r3, [r2, #0]
 8005194:	4770      	bx	lr
 8005196:	bf00      	nop
 8005198:	240013c4 	.word	0x240013c4

0800519c <xTaskGetTickCount>:
 800519c:	4b01      	ldr	r3, [pc, #4]	; (80051a4 <xTaskGetTickCount+0x8>)
 800519e:	6818      	ldr	r0, [r3, #0]
 80051a0:	4770      	bx	lr
 80051a2:	bf00      	nop
 80051a4:	24001444 	.word	0x24001444

080051a8 <xTaskIncrementTick>:
 80051a8:	4b3f      	ldr	r3, [pc, #252]	; (80052a8 <xTaskIncrementTick+0x100>)
 80051aa:	681b      	ldr	r3, [r3, #0]
 80051ac:	e92d 4ff7 	stmdb	sp!, {r0, r1, r2, r4, r5, r6, r7, r8, r9, sl, fp, lr}
 80051b0:	2b00      	cmp	r3, #0
 80051b2:	d172      	bne.n	800529a <xTaskIncrementTick+0xf2>
 80051b4:	4b3d      	ldr	r3, [pc, #244]	; (80052ac <xTaskIncrementTick+0x104>)
 80051b6:	681d      	ldr	r5, [r3, #0]
 80051b8:	3501      	adds	r5, #1
 80051ba:	601d      	str	r5, [r3, #0]
 80051bc:	b9bd      	cbnz	r5, 80051ee <xTaskIncrementTick+0x46>
 80051be:	4b3c      	ldr	r3, [pc, #240]	; (80052b0 <xTaskIncrementTick+0x108>)
 80051c0:	681a      	ldr	r2, [r3, #0]
 80051c2:	6812      	ldr	r2, [r2, #0]
 80051c4:	b142      	cbz	r2, 80051d8 <xTaskIncrementTick+0x30>
 80051c6:	f04f 0350 	mov.w	r3, #80	; 0x50
 80051ca:	f383 8811 	msr	BASEPRI, r3
 80051ce:	f3bf 8f6f 	isb	sy
 80051d2:	f3bf 8f4f 	dsb	sy
 80051d6:	e7fe      	b.n	80051d6 <xTaskIncrementTick+0x2e>
 80051d8:	4a36      	ldr	r2, [pc, #216]	; (80052b4 <xTaskIncrementTick+0x10c>)
 80051da:	6819      	ldr	r1, [r3, #0]
 80051dc:	6810      	ldr	r0, [r2, #0]
 80051de:	6018      	str	r0, [r3, #0]
 80051e0:	6011      	str	r1, [r2, #0]
 80051e2:	4a35      	ldr	r2, [pc, #212]	; (80052b8 <xTaskIncrementTick+0x110>)
 80051e4:	6813      	ldr	r3, [r2, #0]
 80051e6:	3301      	adds	r3, #1
 80051e8:	6013      	str	r3, [r2, #0]
 80051ea:	f7ff fe79 	bl	8004ee0 <prvResetNextTaskUnblockTime>
 80051ee:	4e33      	ldr	r6, [pc, #204]	; (80052bc <xTaskIncrementTick+0x114>)
 80051f0:	2400      	movs	r4, #0
 80051f2:	4f33      	ldr	r7, [pc, #204]	; (80052c0 <xTaskIncrementTick+0x118>)
 80051f4:	6833      	ldr	r3, [r6, #0]
 80051f6:	f8df 80d4 	ldr.w	r8, [pc, #212]	; 80052cc <xTaskIncrementTick+0x124>
 80051fa:	429d      	cmp	r5, r3
 80051fc:	d211      	bcs.n	8005222 <xTaskIncrementTick+0x7a>
 80051fe:	f8d8 3000 	ldr.w	r3, [r8]
 8005202:	2214      	movs	r2, #20
 8005204:	6adb      	ldr	r3, [r3, #44]	; 0x2c
 8005206:	4353      	muls	r3, r2
 8005208:	58fb      	ldr	r3, [r7, r3]
 800520a:	2b02      	cmp	r3, #2
 800520c:	4b2d      	ldr	r3, [pc, #180]	; (80052c4 <xTaskIncrementTick+0x11c>)
 800520e:	681b      	ldr	r3, [r3, #0]
 8005210:	bf28      	it	cs
 8005212:	2401      	movcs	r4, #1
 8005214:	2b00      	cmp	r3, #0
 8005216:	bf18      	it	ne
 8005218:	2401      	movne	r4, #1
 800521a:	4620      	mov	r0, r4
 800521c:	b003      	add	sp, #12
 800521e:	e8bd 8ff0 	ldmia.w	sp!, {r4, r5, r6, r7, r8, r9, sl, fp, pc}
 8005222:	f8df 908c 	ldr.w	r9, [pc, #140]	; 80052b0 <xTaskIncrementTick+0x108>
 8005226:	f8df a0a8 	ldr.w	sl, [pc, #168]	; 80052d0 <xTaskIncrementTick+0x128>
 800522a:	f8d9 3000 	ldr.w	r3, [r9]
 800522e:	681b      	ldr	r3, [r3, #0]
 8005230:	b91b      	cbnz	r3, 800523a <xTaskIncrementTick+0x92>
 8005232:	f04f 33ff 	mov.w	r3, #4294967295
 8005236:	6033      	str	r3, [r6, #0]
 8005238:	e7e1      	b.n	80051fe <xTaskIncrementTick+0x56>
 800523a:	f8d9 3000 	ldr.w	r3, [r9]
 800523e:	68db      	ldr	r3, [r3, #12]
 8005240:	f8d3 b00c 	ldr.w	fp, [r3, #12]
 8005244:	f8db 2004 	ldr.w	r2, [fp, #4]
 8005248:	4295      	cmp	r5, r2
 800524a:	d201      	bcs.n	8005250 <xTaskIncrementTick+0xa8>
 800524c:	6032      	str	r2, [r6, #0]
 800524e:	e7d6      	b.n	80051fe <xTaskIncrementTick+0x56>
 8005250:	f10b 0104 	add.w	r1, fp, #4
 8005254:	4608      	mov	r0, r1
 8005256:	9101      	str	r1, [sp, #4]
 8005258:	f7ff fa77 	bl	800474a <uxListRemove>
 800525c:	f8db 2028 	ldr.w	r2, [fp, #40]	; 0x28
 8005260:	9901      	ldr	r1, [sp, #4]
 8005262:	b122      	cbz	r2, 800526e <xTaskIncrementTick+0xc6>
 8005264:	f10b 0018 	add.w	r0, fp, #24
 8005268:	f7ff fa6f 	bl	800474a <uxListRemove>
 800526c:	9901      	ldr	r1, [sp, #4]
 800526e:	f8db 002c 	ldr.w	r0, [fp, #44]	; 0x2c
 8005272:	f8da 2000 	ldr.w	r2, [sl]
 8005276:	4290      	cmp	r0, r2
 8005278:	d901      	bls.n	800527e <xTaskIncrementTick+0xd6>
 800527a:	f8ca 0000 	str.w	r0, [sl]
 800527e:	2314      	movs	r3, #20
 8005280:	fb03 7000 	mla	r0, r3, r0, r7
 8005284:	f7ff fa3e 	bl	8004704 <vListInsertEnd>
 8005288:	f8d8 1000 	ldr.w	r1, [r8]
 800528c:	f8db 202c 	ldr.w	r2, [fp, #44]	; 0x2c
 8005290:	6acb      	ldr	r3, [r1, #44]	; 0x2c
 8005292:	429a      	cmp	r2, r3
 8005294:	bf28      	it	cs
 8005296:	2401      	movcs	r4, #1
 8005298:	e7c7      	b.n	800522a <xTaskIncrementTick+0x82>
 800529a:	4a0b      	ldr	r2, [pc, #44]	; (80052c8 <xTaskIncrementTick+0x120>)
 800529c:	2400      	movs	r4, #0
 800529e:	6813      	ldr	r3, [r2, #0]
 80052a0:	3301      	adds	r3, #1
 80052a2:	6013      	str	r3, [r2, #0]
 80052a4:	e7b9      	b.n	800521a <xTaskIncrementTick+0x72>
 80052a6:	bf00      	nop
 80052a8:	240013c4 	.word	0x240013c4
 80052ac:	24001444 	.word	0x24001444
 80052b0:	24000f54 	.word	0x24000f54
 80052b4:	24000f58 	.word	0x24000f58
 80052b8:	240013fc 	.word	0x240013fc
 80052bc:	240013f8 	.word	0x240013f8
 80052c0:	24000f5c 	.word	0x24000f5c
 80052c4:	24001448 	.word	0x24001448
 80052c8:	24001400 	.word	0x24001400
 80052cc:	24000f50 	.word	0x24000f50
 80052d0:	240013cc 	.word	0x240013cc

080052d4 <xTaskResumeAll>:
 80052d4:	b5f7      	push	{r0, r1, r2, r4, r5, r6, r7, lr}
 80052d6:	4c31      	ldr	r4, [pc, #196]	; (800539c <xTaskResumeAll+0xc8>)
 80052d8:	6823      	ldr	r3, [r4, #0]
 80052da:	b943      	cbnz	r3, 80052ee <xTaskResumeAll+0x1a>
 80052dc:	f04f 0350 	mov.w	r3, #80	; 0x50
 80052e0:	f383 8811 	msr	BASEPRI, r3
 80052e4:	f3bf 8f6f 	isb	sy
 80052e8:	f3bf 8f4f 	dsb	sy
 80052ec:	e7fe      	b.n	80052ec <xTaskResumeAll+0x18>
 80052ee:	f000 fc31 	bl	8005b54 <vPortEnterCritical>
 80052f2:	6823      	ldr	r3, [r4, #0]
 80052f4:	3b01      	subs	r3, #1
 80052f6:	6023      	str	r3, [r4, #0]
 80052f8:	6824      	ldr	r4, [r4, #0]
 80052fa:	b12c      	cbz	r4, 8005308 <xTaskResumeAll+0x34>
 80052fc:	2400      	movs	r4, #0
 80052fe:	f000 fc49 	bl	8005b94 <vPortExitCritical>
 8005302:	4620      	mov	r0, r4
 8005304:	b003      	add	sp, #12
 8005306:	bdf0      	pop	{r4, r5, r6, r7, pc}
 8005308:	4b25      	ldr	r3, [pc, #148]	; (80053a0 <xTaskResumeAll+0xcc>)
 800530a:	681b      	ldr	r3, [r3, #0]
 800530c:	2b00      	cmp	r3, #0
 800530e:	d0f5      	beq.n	80052fc <xTaskResumeAll+0x28>
 8005310:	4d24      	ldr	r5, [pc, #144]	; (80053a4 <xTaskResumeAll+0xd0>)
 8005312:	4e25      	ldr	r6, [pc, #148]	; (80053a8 <xTaskResumeAll+0xd4>)
 8005314:	4f25      	ldr	r7, [pc, #148]	; (80053ac <xTaskResumeAll+0xd8>)
 8005316:	e01e      	b.n	8005356 <xTaskResumeAll+0x82>
 8005318:	68eb      	ldr	r3, [r5, #12]
 800531a:	68dc      	ldr	r4, [r3, #12]
 800531c:	f104 0018 	add.w	r0, r4, #24
 8005320:	f7ff fa13 	bl	800474a <uxListRemove>
 8005324:	1d21      	adds	r1, r4, #4
 8005326:	4608      	mov	r0, r1
 8005328:	9101      	str	r1, [sp, #4]
 800532a:	f7ff fa0e 	bl	800474a <uxListRemove>
 800532e:	6ae3      	ldr	r3, [r4, #44]	; 0x2c
 8005330:	6832      	ldr	r2, [r6, #0]
 8005332:	9901      	ldr	r1, [sp, #4]
 8005334:	4293      	cmp	r3, r2
 8005336:	d900      	bls.n	800533a <xTaskResumeAll+0x66>
 8005338:	6033      	str	r3, [r6, #0]
 800533a:	2014      	movs	r0, #20
 800533c:	fb00 7003 	mla	r0, r0, r3, r7
 8005340:	f7ff f9e0 	bl	8004704 <vListInsertEnd>
 8005344:	4b1a      	ldr	r3, [pc, #104]	; (80053b0 <xTaskResumeAll+0xdc>)
 8005346:	6ae2      	ldr	r2, [r4, #44]	; 0x2c
 8005348:	681b      	ldr	r3, [r3, #0]
 800534a:	6adb      	ldr	r3, [r3, #44]	; 0x2c
 800534c:	429a      	cmp	r2, r3
 800534e:	d302      	bcc.n	8005356 <xTaskResumeAll+0x82>
 8005350:	4b18      	ldr	r3, [pc, #96]	; (80053b4 <xTaskResumeAll+0xe0>)
 8005352:	2201      	movs	r2, #1
 8005354:	601a      	str	r2, [r3, #0]
 8005356:	682b      	ldr	r3, [r5, #0]
 8005358:	2b00      	cmp	r3, #0
 800535a:	d1dd      	bne.n	8005318 <xTaskResumeAll+0x44>
 800535c:	b10c      	cbz	r4, 8005362 <xTaskResumeAll+0x8e>
 800535e:	f7ff fdbf 	bl	8004ee0 <prvResetNextTaskUnblockTime>
 8005362:	4d15      	ldr	r5, [pc, #84]	; (80053b8 <xTaskResumeAll+0xe4>)
 8005364:	682c      	ldr	r4, [r5, #0]
 8005366:	b144      	cbz	r4, 800537a <xTaskResumeAll+0xa6>
 8005368:	4e12      	ldr	r6, [pc, #72]	; (80053b4 <xTaskResumeAll+0xe0>)
 800536a:	2701      	movs	r7, #1
 800536c:	f7ff ff1c 	bl	80051a8 <xTaskIncrementTick>
 8005370:	b100      	cbz	r0, 8005374 <xTaskResumeAll+0xa0>
 8005372:	6037      	str	r7, [r6, #0]
 8005374:	3c01      	subs	r4, #1
 8005376:	d1f9      	bne.n	800536c <xTaskResumeAll+0x98>
 8005378:	602c      	str	r4, [r5, #0]
 800537a:	4b0e      	ldr	r3, [pc, #56]	; (80053b4 <xTaskResumeAll+0xe0>)
 800537c:	681b      	ldr	r3, [r3, #0]
 800537e:	2b00      	cmp	r3, #0
 8005380:	d0bc      	beq.n	80052fc <xTaskResumeAll+0x28>
 8005382:	f04f 23e0 	mov.w	r3, #3758153728	; 0xe000e000
 8005386:	f04f 5280 	mov.w	r2, #268435456	; 0x10000000
 800538a:	f8c3 2d04 	str.w	r2, [r3, #3332]	; 0xd04
 800538e:	f3bf 8f4f 	dsb	sy
 8005392:	f3bf 8f6f 	isb	sy
 8005396:	2401      	movs	r4, #1
 8005398:	e7b1      	b.n	80052fe <xTaskResumeAll+0x2a>
 800539a:	bf00      	nop
 800539c:	240013c4 	.word	0x240013c4
 80053a0:	240013bc 	.word	0x240013bc
 80053a4:	24001404 	.word	0x24001404
 80053a8:	240013cc 	.word	0x240013cc
 80053ac:	24000f5c 	.word	0x24000f5c
 80053b0:	24000f50 	.word	0x24000f50
 80053b4:	24001448 	.word	0x24001448
 80053b8:	24001400 	.word	0x24001400

080053bc <vTaskDelay>:
 80053bc:	b508      	push	{r3, lr}
 80053be:	b950      	cbnz	r0, 80053d6 <vTaskDelay+0x1a>
 80053c0:	f04f 23e0 	mov.w	r3, #3758153728	; 0xe000e000
 80053c4:	f04f 5280 	mov.w	r2, #268435456	; 0x10000000
 80053c8:	f8c3 2d04 	str.w	r2, [r3, #3332]	; 0xd04
 80053cc:	f3bf 8f4f 	dsb	sy
 80053d0:	f3bf 8f6f 	isb	sy
 80053d4:	bd08      	pop	{r3, pc}
 80053d6:	4b0a      	ldr	r3, [pc, #40]	; (8005400 <vTaskDelay+0x44>)
 80053d8:	6819      	ldr	r1, [r3, #0]
 80053da:	b141      	cbz	r1, 80053ee <vTaskDelay+0x32>
 80053dc:	f04f 0350 	mov.w	r3, #80	; 0x50
 80053e0:	f383 8811 	msr	BASEPRI, r3
 80053e4:	f3bf 8f6f 	isb	sy
 80053e8:	f3bf 8f4f 	dsb	sy
 80053ec:	e7fe      	b.n	80053ec <vTaskDelay+0x30>
 80053ee:	f7ff fecd 	bl	800518c <vTaskSuspendAll>
 80053f2:	f7ff fd3d 	bl	8004e70 <prvAddCurrentTaskToDelayedList>
 80053f6:	f7ff ff6d 	bl	80052d4 <xTaskResumeAll>
 80053fa:	2800      	cmp	r0, #0
 80053fc:	d0e0      	beq.n	80053c0 <vTaskDelay+0x4>
 80053fe:	e7e9      	b.n	80053d4 <vTaskDelay+0x18>
 8005400:	240013c4 	.word	0x240013c4

08005404 <vTaskSwitchContext>:
 8005404:	4b17      	ldr	r3, [pc, #92]	; (8005464 <vTaskSwitchContext+0x60>)
 8005406:	681a      	ldr	r2, [r3, #0]
 8005408:	4b17      	ldr	r3, [pc, #92]	; (8005468 <vTaskSwitchContext+0x64>)
 800540a:	b570      	push	{r4, r5, r6, lr}
 800540c:	b112      	cbz	r2, 8005414 <vTaskSwitchContext+0x10>
 800540e:	2201      	movs	r2, #1
 8005410:	601a      	str	r2, [r3, #0]
 8005412:	bd70      	pop	{r4, r5, r6, pc}
 8005414:	4d15      	ldr	r5, [pc, #84]	; (800546c <vTaskSwitchContext+0x68>)
 8005416:	2614      	movs	r6, #20
 8005418:	601a      	str	r2, [r3, #0]
 800541a:	4915      	ldr	r1, [pc, #84]	; (8005470 <vTaskSwitchContext+0x6c>)
 800541c:	682a      	ldr	r2, [r5, #0]
 800541e:	fb06 f302 	mul.w	r3, r6, r2
 8005422:	58cc      	ldr	r4, [r1, r3]
 8005424:	18c8      	adds	r0, r1, r3
 8005426:	b18c      	cbz	r4, 800544c <vTaskSwitchContext+0x48>
 8005428:	6844      	ldr	r4, [r0, #4]
 800542a:	3308      	adds	r3, #8
 800542c:	6864      	ldr	r4, [r4, #4]
 800542e:	440b      	add	r3, r1
 8005430:	429c      	cmp	r4, r3
 8005432:	6044      	str	r4, [r0, #4]
 8005434:	bf04      	itt	eq
 8005436:	6863      	ldreq	r3, [r4, #4]
 8005438:	6043      	streq	r3, [r0, #4]
 800543a:	2314      	movs	r3, #20
 800543c:	fb03 1102 	mla	r1, r3, r2, r1
 8005440:	684b      	ldr	r3, [r1, #4]
 8005442:	68d9      	ldr	r1, [r3, #12]
 8005444:	4b0b      	ldr	r3, [pc, #44]	; (8005474 <vTaskSwitchContext+0x70>)
 8005446:	6019      	str	r1, [r3, #0]
 8005448:	602a      	str	r2, [r5, #0]
 800544a:	e7e2      	b.n	8005412 <vTaskSwitchContext+0xe>
 800544c:	b942      	cbnz	r2, 8005460 <vTaskSwitchContext+0x5c>
 800544e:	f04f 0350 	mov.w	r3, #80	; 0x50
 8005452:	f383 8811 	msr	BASEPRI, r3
 8005456:	f3bf 8f6f 	isb	sy
 800545a:	f3bf 8f4f 	dsb	sy
 800545e:	e7fe      	b.n	800545e <vTaskSwitchContext+0x5a>
 8005460:	3a01      	subs	r2, #1
 8005462:	e7dc      	b.n	800541e <vTaskSwitchContext+0x1a>
 8005464:	240013c4 	.word	0x240013c4
 8005468:	24001448 	.word	0x24001448
 800546c:	240013cc 	.word	0x240013cc
 8005470:	24000f5c 	.word	0x24000f5c
 8005474:	24000f50 	.word	0x24000f50

08005478 <vTaskPlaceOnEventList>:
 8005478:	b510      	push	{r4, lr}
 800547a:	460c      	mov	r4, r1
 800547c:	b940      	cbnz	r0, 8005490 <vTaskPlaceOnEventList+0x18>
 800547e:	f04f 0350 	mov.w	r3, #80	; 0x50
 8005482:	f383 8811 	msr	BASEPRI, r3
 8005486:	f3bf 8f6f 	isb	sy
 800548a:	f3bf 8f4f 	dsb	sy
 800548e:	e7fe      	b.n	800548e <vTaskPlaceOnEventList+0x16>
 8005490:	4b05      	ldr	r3, [pc, #20]	; (80054a8 <vTaskPlaceOnEventList+0x30>)
 8005492:	6819      	ldr	r1, [r3, #0]
 8005494:	3118      	adds	r1, #24
 8005496:	f7ff f941 	bl	800471c <vListInsert>
 800549a:	4620      	mov	r0, r4
 800549c:	2101      	movs	r1, #1
 800549e:	e8bd 4010 	ldmia.w	sp!, {r4, lr}
 80054a2:	f7ff bce5 	b.w	8004e70 <prvAddCurrentTaskToDelayedList>
 80054a6:	bf00      	nop
 80054a8:	24000f50 	.word	0x24000f50

080054ac <vTaskPlaceOnEventListRestricted>:
 80054ac:	b538      	push	{r3, r4, r5, lr}
 80054ae:	460d      	mov	r5, r1
 80054b0:	4614      	mov	r4, r2
 80054b2:	b940      	cbnz	r0, 80054c6 <vTaskPlaceOnEventListRestricted+0x1a>
 80054b4:	f04f 0350 	mov.w	r3, #80	; 0x50
 80054b8:	f383 8811 	msr	BASEPRI, r3
 80054bc:	f3bf 8f6f 	isb	sy
 80054c0:	f3bf 8f4f 	dsb	sy
 80054c4:	e7fe      	b.n	80054c4 <vTaskPlaceOnEventListRestricted+0x18>
 80054c6:	4b07      	ldr	r3, [pc, #28]	; (80054e4 <vTaskPlaceOnEventListRestricted+0x38>)
 80054c8:	6819      	ldr	r1, [r3, #0]
 80054ca:	3118      	adds	r1, #24
 80054cc:	f7ff f91a 	bl	8004704 <vListInsertEnd>
 80054d0:	2c00      	cmp	r4, #0
 80054d2:	4621      	mov	r1, r4
 80054d4:	bf0c      	ite	eq
 80054d6:	4628      	moveq	r0, r5
 80054d8:	f04f 30ff 	movne.w	r0, #4294967295
 80054dc:	e8bd 4038 	ldmia.w	sp!, {r3, r4, r5, lr}
 80054e0:	f7ff bcc6 	b.w	8004e70 <prvAddCurrentTaskToDelayedList>
 80054e4:	24000f50 	.word	0x24000f50

080054e8 <xTaskRemoveFromEventList>:
 80054e8:	68c3      	ldr	r3, [r0, #12]
 80054ea:	b513      	push	{r0, r1, r4, lr}
 80054ec:	68dc      	ldr	r4, [r3, #12]
 80054ee:	b944      	cbnz	r4, 8005502 <xTaskRemoveFromEventList+0x1a>
 80054f0:	f04f 0350 	mov.w	r3, #80	; 0x50
 80054f4:	f383 8811 	msr	BASEPRI, r3
 80054f8:	f3bf 8f6f 	isb	sy
 80054fc:	f3bf 8f4f 	dsb	sy
 8005500:	e7fe      	b.n	8005500 <xTaskRemoveFromEventList+0x18>
 8005502:	f104 0118 	add.w	r1, r4, #24
 8005506:	4608      	mov	r0, r1
 8005508:	9101      	str	r1, [sp, #4]
 800550a:	f7ff f91e 	bl	800474a <uxListRemove>
 800550e:	4b12      	ldr	r3, [pc, #72]	; (8005558 <xTaskRemoveFromEventList+0x70>)
 8005510:	9901      	ldr	r1, [sp, #4]
 8005512:	681b      	ldr	r3, [r3, #0]
 8005514:	b9e3      	cbnz	r3, 8005550 <xTaskRemoveFromEventList+0x68>
 8005516:	1d21      	adds	r1, r4, #4
 8005518:	4608      	mov	r0, r1
 800551a:	9101      	str	r1, [sp, #4]
 800551c:	f7ff f915 	bl	800474a <uxListRemove>
 8005520:	4a0e      	ldr	r2, [pc, #56]	; (800555c <xTaskRemoveFromEventList+0x74>)
 8005522:	6ae3      	ldr	r3, [r4, #44]	; 0x2c
 8005524:	6810      	ldr	r0, [r2, #0]
 8005526:	9901      	ldr	r1, [sp, #4]
 8005528:	4283      	cmp	r3, r0
 800552a:	d900      	bls.n	800552e <xTaskRemoveFromEventList+0x46>
 800552c:	6013      	str	r3, [r2, #0]
 800552e:	4a0c      	ldr	r2, [pc, #48]	; (8005560 <xTaskRemoveFromEventList+0x78>)
 8005530:	2014      	movs	r0, #20
 8005532:	fb00 2003 	mla	r0, r0, r3, r2
 8005536:	f7ff f8e5 	bl	8004704 <vListInsertEnd>
 800553a:	4b0a      	ldr	r3, [pc, #40]	; (8005564 <xTaskRemoveFromEventList+0x7c>)
 800553c:	6ae2      	ldr	r2, [r4, #44]	; 0x2c
 800553e:	681b      	ldr	r3, [r3, #0]
 8005540:	6adb      	ldr	r3, [r3, #44]	; 0x2c
 8005542:	429a      	cmp	r2, r3
 8005544:	d906      	bls.n	8005554 <xTaskRemoveFromEventList+0x6c>
 8005546:	2001      	movs	r0, #1
 8005548:	4b07      	ldr	r3, [pc, #28]	; (8005568 <xTaskRemoveFromEventList+0x80>)
 800554a:	6018      	str	r0, [r3, #0]
 800554c:	b002      	add	sp, #8
 800554e:	bd10      	pop	{r4, pc}
 8005550:	4806      	ldr	r0, [pc, #24]	; (800556c <xTaskRemoveFromEventList+0x84>)
 8005552:	e7f0      	b.n	8005536 <xTaskRemoveFromEventList+0x4e>
 8005554:	2000      	movs	r0, #0
 8005556:	e7f9      	b.n	800554c <xTaskRemoveFromEventList+0x64>
 8005558:	240013c4 	.word	0x240013c4
 800555c:	240013cc 	.word	0x240013cc
 8005560:	24000f5c 	.word	0x24000f5c
 8005564:	24000f50 	.word	0x24000f50
 8005568:	24001448 	.word	0x24001448
 800556c:	24001404 	.word	0x24001404

08005570 <vTaskInternalSetTimeOutState>:
 8005570:	4b03      	ldr	r3, [pc, #12]	; (8005580 <vTaskInternalSetTimeOutState+0x10>)
 8005572:	681b      	ldr	r3, [r3, #0]
 8005574:	6003      	str	r3, [r0, #0]
 8005576:	4b03      	ldr	r3, [pc, #12]	; (8005584 <vTaskInternalSetTimeOutState+0x14>)
 8005578:	681b      	ldr	r3, [r3, #0]
 800557a:	6043      	str	r3, [r0, #4]
 800557c:	4770      	bx	lr
 800557e:	bf00      	nop
 8005580:	240013fc 	.word	0x240013fc
 8005584:	24001444 	.word	0x24001444

08005588 <xTaskCheckForTimeOut>:
 8005588:	b570      	push	{r4, r5, r6, lr}
 800558a:	460c      	mov	r4, r1
 800558c:	4605      	mov	r5, r0
 800558e:	b940      	cbnz	r0, 80055a2 <xTaskCheckForTimeOut+0x1a>
 8005590:	f04f 0350 	mov.w	r3, #80	; 0x50
 8005594:	f383 8811 	msr	BASEPRI, r3
 8005598:	f3bf 8f6f 	isb	sy
 800559c:	f3bf 8f4f 	dsb	sy
 80055a0:	e7fe      	b.n	80055a0 <xTaskCheckForTimeOut+0x18>
 80055a2:	b941      	cbnz	r1, 80055b6 <xTaskCheckForTimeOut+0x2e>
 80055a4:	f04f 0350 	mov.w	r3, #80	; 0x50
 80055a8:	f383 8811 	msr	BASEPRI, r3
 80055ac:	f3bf 8f6f 	isb	sy
 80055b0:	f3bf 8f4f 	dsb	sy
 80055b4:	e7fe      	b.n	80055b4 <xTaskCheckForTimeOut+0x2c>
 80055b6:	f000 facd 	bl	8005b54 <vPortEnterCritical>
 80055ba:	4b0f      	ldr	r3, [pc, #60]	; (80055f8 <xTaskCheckForTimeOut+0x70>)
 80055bc:	6819      	ldr	r1, [r3, #0]
 80055be:	6823      	ldr	r3, [r4, #0]
 80055c0:	1c5a      	adds	r2, r3, #1
 80055c2:	d010      	beq.n	80055e6 <xTaskCheckForTimeOut+0x5e>
 80055c4:	480d      	ldr	r0, [pc, #52]	; (80055fc <xTaskCheckForTimeOut+0x74>)
 80055c6:	682e      	ldr	r6, [r5, #0]
 80055c8:	6800      	ldr	r0, [r0, #0]
 80055ca:	686a      	ldr	r2, [r5, #4]
 80055cc:	4286      	cmp	r6, r0
 80055ce:	d001      	beq.n	80055d4 <xTaskCheckForTimeOut+0x4c>
 80055d0:	428a      	cmp	r2, r1
 80055d2:	d90f      	bls.n	80055f4 <xTaskCheckForTimeOut+0x6c>
 80055d4:	1a88      	subs	r0, r1, r2
 80055d6:	4283      	cmp	r3, r0
 80055d8:	d90a      	bls.n	80055f0 <xTaskCheckForTimeOut+0x68>
 80055da:	1a5b      	subs	r3, r3, r1
 80055dc:	4628      	mov	r0, r5
 80055de:	4413      	add	r3, r2
 80055e0:	6023      	str	r3, [r4, #0]
 80055e2:	f7ff ffc5 	bl	8005570 <vTaskInternalSetTimeOutState>
 80055e6:	2400      	movs	r4, #0
 80055e8:	f000 fad4 	bl	8005b94 <vPortExitCritical>
 80055ec:	4620      	mov	r0, r4
 80055ee:	bd70      	pop	{r4, r5, r6, pc}
 80055f0:	2300      	movs	r3, #0
 80055f2:	6023      	str	r3, [r4, #0]
 80055f4:	2401      	movs	r4, #1
 80055f6:	e7f7      	b.n	80055e8 <xTaskCheckForTimeOut+0x60>
 80055f8:	24001444 	.word	0x24001444
 80055fc:	240013fc 	.word	0x240013fc

08005600 <vTaskMissedYield>:
 8005600:	4b01      	ldr	r3, [pc, #4]	; (8005608 <vTaskMissedYield+0x8>)
 8005602:	2201      	movs	r2, #1
 8005604:	601a      	str	r2, [r3, #0]
 8005606:	4770      	bx	lr
 8005608:	24001448 	.word	0x24001448

0800560c <xTaskGetSchedulerState>:
 800560c:	4b05      	ldr	r3, [pc, #20]	; (8005624 <xTaskGetSchedulerState+0x18>)
 800560e:	681b      	ldr	r3, [r3, #0]
 8005610:	b133      	cbz	r3, 8005620 <xTaskGetSchedulerState+0x14>
 8005612:	4b05      	ldr	r3, [pc, #20]	; (8005628 <xTaskGetSchedulerState+0x1c>)
 8005614:	6818      	ldr	r0, [r3, #0]
 8005616:	fab0 f080 	clz	r0, r0
 800561a:	0940      	lsrs	r0, r0, #5
 800561c:	0040      	lsls	r0, r0, #1
 800561e:	4770      	bx	lr
 8005620:	2001      	movs	r0, #1
 8005622:	4770      	bx	lr
 8005624:	24001418 	.word	0x24001418
 8005628:	240013c4 	.word	0x240013c4

0800562c <xTaskPriorityDisinherit>:
 800562c:	b513      	push	{r0, r1, r4, lr}
 800562e:	b910      	cbnz	r0, 8005636 <xTaskPriorityDisinherit+0xa>
 8005630:	2000      	movs	r0, #0
 8005632:	b002      	add	sp, #8
 8005634:	bd10      	pop	{r4, pc}
 8005636:	4b1c      	ldr	r3, [pc, #112]	; (80056a8 <xTaskPriorityDisinherit+0x7c>)
 8005638:	681c      	ldr	r4, [r3, #0]
 800563a:	4284      	cmp	r4, r0
 800563c:	d008      	beq.n	8005650 <xTaskPriorityDisinherit+0x24>
 800563e:	f04f 0350 	mov.w	r3, #80	; 0x50
 8005642:	f383 8811 	msr	BASEPRI, r3
 8005646:	f3bf 8f6f 	isb	sy
 800564a:	f3bf 8f4f 	dsb	sy
 800564e:	e7fe      	b.n	800564e <xTaskPriorityDisinherit+0x22>
 8005650:	6d23      	ldr	r3, [r4, #80]	; 0x50
 8005652:	b943      	cbnz	r3, 8005666 <xTaskPriorityDisinherit+0x3a>
 8005654:	f04f 0350 	mov.w	r3, #80	; 0x50
 8005658:	f383 8811 	msr	BASEPRI, r3
 800565c:	f3bf 8f6f 	isb	sy
 8005660:	f3bf 8f4f 	dsb	sy
 8005664:	e7fe      	b.n	8005664 <xTaskPriorityDisinherit+0x38>
 8005666:	6ae1      	ldr	r1, [r4, #44]	; 0x2c
 8005668:	3b01      	subs	r3, #1
 800566a:	6ce2      	ldr	r2, [r4, #76]	; 0x4c
 800566c:	6523      	str	r3, [r4, #80]	; 0x50
 800566e:	4291      	cmp	r1, r2
 8005670:	d0de      	beq.n	8005630 <xTaskPriorityDisinherit+0x4>
 8005672:	2b00      	cmp	r3, #0
 8005674:	d1dc      	bne.n	8005630 <xTaskPriorityDisinherit+0x4>
 8005676:	1d21      	adds	r1, r4, #4
 8005678:	4608      	mov	r0, r1
 800567a:	9101      	str	r1, [sp, #4]
 800567c:	f7ff f865 	bl	800474a <uxListRemove>
 8005680:	6ce3      	ldr	r3, [r4, #76]	; 0x4c
 8005682:	9901      	ldr	r1, [sp, #4]
 8005684:	f1c3 0238 	rsb	r2, r3, #56	; 0x38
 8005688:	62e3      	str	r3, [r4, #44]	; 0x2c
 800568a:	61a2      	str	r2, [r4, #24]
 800568c:	4a07      	ldr	r2, [pc, #28]	; (80056ac <xTaskPriorityDisinherit+0x80>)
 800568e:	6810      	ldr	r0, [r2, #0]
 8005690:	4283      	cmp	r3, r0
 8005692:	d900      	bls.n	8005696 <xTaskPriorityDisinherit+0x6a>
 8005694:	6013      	str	r3, [r2, #0]
 8005696:	4a06      	ldr	r2, [pc, #24]	; (80056b0 <xTaskPriorityDisinherit+0x84>)
 8005698:	2014      	movs	r0, #20
 800569a:	fb00 2003 	mla	r0, r0, r3, r2
 800569e:	f7ff f831 	bl	8004704 <vListInsertEnd>
 80056a2:	2001      	movs	r0, #1
 80056a4:	e7c5      	b.n	8005632 <xTaskPriorityDisinherit+0x6>
 80056a6:	bf00      	nop
 80056a8:	24000f50 	.word	0x24000f50
 80056ac:	240013cc 	.word	0x240013cc
 80056b0:	24000f5c 	.word	0x24000f5c

080056b4 <prvCheckForValidListAndQueue>:
 80056b4:	b5f7      	push	{r0, r1, r2, r4, r5, r6, r7, lr}
 80056b6:	4c11      	ldr	r4, [pc, #68]	; (80056fc <prvCheckForValidListAndQueue+0x48>)
 80056b8:	f000 fa4c 	bl	8005b54 <vPortEnterCritical>
 80056bc:	6825      	ldr	r5, [r4, #0]
 80056be:	b9bd      	cbnz	r5, 80056f0 <prvCheckForValidListAndQueue+0x3c>
 80056c0:	4f0f      	ldr	r7, [pc, #60]	; (8005700 <prvCheckForValidListAndQueue+0x4c>)
 80056c2:	4e10      	ldr	r6, [pc, #64]	; (8005704 <prvCheckForValidListAndQueue+0x50>)
 80056c4:	4638      	mov	r0, r7
 80056c6:	f7ff f80f 	bl	80046e8 <vListInitialise>
 80056ca:	4630      	mov	r0, r6
 80056cc:	f7ff f80c 	bl	80046e8 <vListInitialise>
 80056d0:	4b0d      	ldr	r3, [pc, #52]	; (8005708 <prvCheckForValidListAndQueue+0x54>)
 80056d2:	4a0e      	ldr	r2, [pc, #56]	; (800570c <prvCheckForValidListAndQueue+0x58>)
 80056d4:	2110      	movs	r1, #16
 80056d6:	601f      	str	r7, [r3, #0]
 80056d8:	200a      	movs	r0, #10
 80056da:	4b0d      	ldr	r3, [pc, #52]	; (8005710 <prvCheckForValidListAndQueue+0x5c>)
 80056dc:	601e      	str	r6, [r3, #0]
 80056de:	4b0d      	ldr	r3, [pc, #52]	; (8005714 <prvCheckForValidListAndQueue+0x60>)
 80056e0:	9500      	str	r5, [sp, #0]
 80056e2:	f7ff f90e 	bl	8004902 <xQueueGenericCreateStatic>
 80056e6:	6020      	str	r0, [r4, #0]
 80056e8:	b110      	cbz	r0, 80056f0 <prvCheckForValidListAndQueue+0x3c>
 80056ea:	490b      	ldr	r1, [pc, #44]	; (8005718 <prvCheckForValidListAndQueue+0x64>)
 80056ec:	f7ff fb0c 	bl	8004d08 <vQueueAddToRegistry>
 80056f0:	b003      	add	sp, #12
 80056f2:	e8bd 40f0 	ldmia.w	sp!, {r4, r5, r6, r7, lr}
 80056f6:	f000 ba4d 	b.w	8005b94 <vPortExitCritical>
 80056fa:	bf00      	nop
 80056fc:	24001570 	.word	0x24001570
 8005700:	240014f4 	.word	0x240014f4
 8005704:	24001508 	.word	0x24001508
 8005708:	2400144c 	.word	0x2400144c
 800570c:	24001454 	.word	0x24001454
 8005710:	24001450 	.word	0x24001450
 8005714:	24001520 	.word	0x24001520
 8005718:	0800778b 	.word	0x0800778b

0800571c <prvInsertTimerInActiveList>:
 800571c:	4291      	cmp	r1, r2
 800571e:	b508      	push	{r3, lr}
 8005720:	6041      	str	r1, [r0, #4]
 8005722:	6100      	str	r0, [r0, #16]
 8005724:	d80a      	bhi.n	800573c <prvInsertTimerInActiveList+0x20>
 8005726:	1ad3      	subs	r3, r2, r3
 8005728:	6982      	ldr	r2, [r0, #24]
 800572a:	4293      	cmp	r3, r2
 800572c:	d20d      	bcs.n	800574a <prvInsertTimerInActiveList+0x2e>
 800572e:	1d01      	adds	r1, r0, #4
 8005730:	4b07      	ldr	r3, [pc, #28]	; (8005750 <prvInsertTimerInActiveList+0x34>)
 8005732:	6818      	ldr	r0, [r3, #0]
 8005734:	f7fe fff2 	bl	800471c <vListInsert>
 8005738:	2000      	movs	r0, #0
 800573a:	bd08      	pop	{r3, pc}
 800573c:	429a      	cmp	r2, r3
 800573e:	d201      	bcs.n	8005744 <prvInsertTimerInActiveList+0x28>
 8005740:	4299      	cmp	r1, r3
 8005742:	d202      	bcs.n	800574a <prvInsertTimerInActiveList+0x2e>
 8005744:	1d01      	adds	r1, r0, #4
 8005746:	4b03      	ldr	r3, [pc, #12]	; (8005754 <prvInsertTimerInActiveList+0x38>)
 8005748:	e7f3      	b.n	8005732 <prvInsertTimerInActiveList+0x16>
 800574a:	2001      	movs	r0, #1
 800574c:	e7f5      	b.n	800573a <prvInsertTimerInActiveList+0x1e>
 800574e:	bf00      	nop
 8005750:	24001450 	.word	0x24001450
 8005754:	2400144c 	.word	0x2400144c

08005758 <xTimerCreateTimerTask>:
 8005758:	b510      	push	{r4, lr}
 800575a:	b088      	sub	sp, #32
 800575c:	f7ff ffaa 	bl	80056b4 <prvCheckForValidListAndQueue>
 8005760:	4b12      	ldr	r3, [pc, #72]	; (80057ac <xTimerCreateTimerTask+0x54>)
 8005762:	681b      	ldr	r3, [r3, #0]
 8005764:	b1b3      	cbz	r3, 8005794 <xTimerCreateTimerTask+0x3c>
 8005766:	2400      	movs	r4, #0
 8005768:	aa07      	add	r2, sp, #28
 800576a:	a906      	add	r1, sp, #24
 800576c:	a805      	add	r0, sp, #20
 800576e:	e9cd 4405 	strd	r4, r4, [sp, #20]
 8005772:	f7fe ffad 	bl	80046d0 <vApplicationGetTimerTaskMemory>
 8005776:	9b05      	ldr	r3, [sp, #20]
 8005778:	9a07      	ldr	r2, [sp, #28]
 800577a:	9302      	str	r3, [sp, #8]
 800577c:	9b06      	ldr	r3, [sp, #24]
 800577e:	490c      	ldr	r1, [pc, #48]	; (80057b0 <xTimerCreateTimerTask+0x58>)
 8005780:	9301      	str	r3, [sp, #4]
 8005782:	2302      	movs	r3, #2
 8005784:	480b      	ldr	r0, [pc, #44]	; (80057b4 <xTimerCreateTimerTask+0x5c>)
 8005786:	9300      	str	r3, [sp, #0]
 8005788:	4623      	mov	r3, r4
 800578a:	f7ff fc54 	bl	8005036 <xTaskCreateStatic>
 800578e:	4b0a      	ldr	r3, [pc, #40]	; (80057b8 <xTimerCreateTimerTask+0x60>)
 8005790:	6018      	str	r0, [r3, #0]
 8005792:	b940      	cbnz	r0, 80057a6 <xTimerCreateTimerTask+0x4e>
 8005794:	f04f 0350 	mov.w	r3, #80	; 0x50
 8005798:	f383 8811 	msr	BASEPRI, r3
 800579c:	f3bf 8f6f 	isb	sy
 80057a0:	f3bf 8f4f 	dsb	sy
 80057a4:	e7fe      	b.n	80057a4 <xTimerCreateTimerTask+0x4c>
 80057a6:	2001      	movs	r0, #1
 80057a8:	b008      	add	sp, #32
 80057aa:	bd10      	pop	{r4, pc}
 80057ac:	24001570 	.word	0x24001570
 80057b0:	08007790 	.word	0x08007790
 80057b4:	080058bd 	.word	0x080058bd
 80057b8:	24001574 	.word	0x24001574

080057bc <xTimerGenericCommand>:
 80057bc:	b57f      	push	{r0, r1, r2, r3, r4, r5, r6, lr}
 80057be:	4616      	mov	r6, r2
 80057c0:	4604      	mov	r4, r0
 80057c2:	461a      	mov	r2, r3
 80057c4:	b940      	cbnz	r0, 80057d8 <xTimerGenericCommand+0x1c>
 80057c6:	f04f 0350 	mov.w	r3, #80	; 0x50
 80057ca:	f383 8811 	msr	BASEPRI, r3
 80057ce:	f3bf 8f6f 	isb	sy
 80057d2:	f3bf 8f4f 	dsb	sy
 80057d6:	e7fe      	b.n	80057d6 <xTimerGenericCommand+0x1a>
 80057d8:	4d0c      	ldr	r5, [pc, #48]	; (800580c <xTimerGenericCommand+0x50>)
 80057da:	6828      	ldr	r0, [r5, #0]
 80057dc:	b178      	cbz	r0, 80057fe <xTimerGenericCommand+0x42>
 80057de:	2905      	cmp	r1, #5
 80057e0:	9402      	str	r4, [sp, #8]
 80057e2:	e9cd 1600 	strd	r1, r6, [sp]
 80057e6:	dc0c      	bgt.n	8005802 <xTimerGenericCommand+0x46>
 80057e8:	f7ff ff10 	bl	800560c <xTaskGetSchedulerState>
 80057ec:	2300      	movs	r3, #0
 80057ee:	2802      	cmp	r0, #2
 80057f0:	4669      	mov	r1, sp
 80057f2:	6828      	ldr	r0, [r5, #0]
 80057f4:	bf0c      	ite	eq
 80057f6:	9a08      	ldreq	r2, [sp, #32]
 80057f8:	461a      	movne	r2, r3
 80057fa:	f7ff f8d0 	bl	800499e <xQueueGenericSend>
 80057fe:	b004      	add	sp, #16
 8005800:	bd70      	pop	{r4, r5, r6, pc}
 8005802:	2300      	movs	r3, #0
 8005804:	4669      	mov	r1, sp
 8005806:	f7ff f97d 	bl	8004b04 <xQueueGenericSendFromISR>
 800580a:	e7f8      	b.n	80057fe <xTimerGenericCommand+0x42>
 800580c:	24001570 	.word	0x24001570

08005810 <prvSampleTimeNow>:
 8005810:	e92d 47ff 	stmdb	sp!, {r0, r1, r2, r3, r4, r5, r6, r7, r8, r9, sl, lr}
 8005814:	f8df 80a0 	ldr.w	r8, [pc, #160]	; 80058b8 <prvSampleTimeNow+0xa8>
 8005818:	4606      	mov	r6, r0
 800581a:	f7ff fcbf 	bl	800519c <xTaskGetTickCount>
 800581e:	4605      	mov	r5, r0
 8005820:	f8d8 3000 	ldr.w	r3, [r8]
 8005824:	4283      	cmp	r3, r0
 8005826:	d90b      	bls.n	8005840 <prvSampleTimeNow+0x30>
 8005828:	4f21      	ldr	r7, [pc, #132]	; (80058b0 <prvSampleTimeNow+0xa0>)
 800582a:	f04f 0900 	mov.w	r9, #0
 800582e:	683b      	ldr	r3, [r7, #0]
 8005830:	681a      	ldr	r2, [r3, #0]
 8005832:	b96a      	cbnz	r2, 8005850 <prvSampleTimeNow+0x40>
 8005834:	4a1f      	ldr	r2, [pc, #124]	; (80058b4 <prvSampleTimeNow+0xa4>)
 8005836:	6811      	ldr	r1, [r2, #0]
 8005838:	6013      	str	r3, [r2, #0]
 800583a:	2301      	movs	r3, #1
 800583c:	6039      	str	r1, [r7, #0]
 800583e:	e000      	b.n	8005842 <prvSampleTimeNow+0x32>
 8005840:	2300      	movs	r3, #0
 8005842:	4628      	mov	r0, r5
 8005844:	6033      	str	r3, [r6, #0]
 8005846:	f8c8 5000 	str.w	r5, [r8]
 800584a:	b004      	add	sp, #16
 800584c:	e8bd 87f0 	ldmia.w	sp!, {r4, r5, r6, r7, r8, r9, sl, pc}
 8005850:	68db      	ldr	r3, [r3, #12]
 8005852:	68dc      	ldr	r4, [r3, #12]
 8005854:	f8d3 a000 	ldr.w	sl, [r3]
 8005858:	1d21      	adds	r1, r4, #4
 800585a:	4608      	mov	r0, r1
 800585c:	9103      	str	r1, [sp, #12]
 800585e:	f7fe ff74 	bl	800474a <uxListRemove>
 8005862:	6a23      	ldr	r3, [r4, #32]
 8005864:	4620      	mov	r0, r4
 8005866:	4798      	blx	r3
 8005868:	f894 3028 	ldrb.w	r3, [r4, #40]	; 0x28
 800586c:	9903      	ldr	r1, [sp, #12]
 800586e:	f013 0f04 	tst.w	r3, #4
 8005872:	d0dc      	beq.n	800582e <prvSampleTimeNow+0x1e>
 8005874:	69a3      	ldr	r3, [r4, #24]
 8005876:	4453      	add	r3, sl
 8005878:	459a      	cmp	sl, r3
 800587a:	d205      	bcs.n	8005888 <prvSampleTimeNow+0x78>
 800587c:	6838      	ldr	r0, [r7, #0]
 800587e:	6063      	str	r3, [r4, #4]
 8005880:	6124      	str	r4, [r4, #16]
 8005882:	f7fe ff4b 	bl	800471c <vListInsert>
 8005886:	e7d2      	b.n	800582e <prvSampleTimeNow+0x1e>
 8005888:	2300      	movs	r3, #0
 800588a:	4652      	mov	r2, sl
 800588c:	4620      	mov	r0, r4
 800588e:	f8cd 9000 	str.w	r9, [sp]
 8005892:	4619      	mov	r1, r3
 8005894:	f7ff ff92 	bl	80057bc <xTimerGenericCommand>
 8005898:	2800      	cmp	r0, #0
 800589a:	d1c8      	bne.n	800582e <prvSampleTimeNow+0x1e>
 800589c:	f04f 0350 	mov.w	r3, #80	; 0x50
 80058a0:	f383 8811 	msr	BASEPRI, r3
 80058a4:	f3bf 8f6f 	isb	sy
 80058a8:	f3bf 8f4f 	dsb	sy
 80058ac:	e7fe      	b.n	80058ac <prvSampleTimeNow+0x9c>
 80058ae:	bf00      	nop
 80058b0:	2400144c 	.word	0x2400144c
 80058b4:	24001450 	.word	0x24001450
 80058b8:	2400151c 	.word	0x2400151c

080058bc <prvTimerTask>:
 80058bc:	e92d 43f0 	stmdb	sp!, {r4, r5, r6, r7, r8, r9, lr}
 80058c0:	4d6e      	ldr	r5, [pc, #440]	; (8005a7c <prvTimerTask+0x1c0>)
 80058c2:	b089      	sub	sp, #36	; 0x24
 80058c4:	4e6e      	ldr	r6, [pc, #440]	; (8005a80 <prvTimerTask+0x1c4>)
 80058c6:	682b      	ldr	r3, [r5, #0]
 80058c8:	f8d3 8000 	ldr.w	r8, [r3]
 80058cc:	f1b8 0f00 	cmp.w	r8, #0
 80058d0:	d035      	beq.n	800593e <prvTimerTask+0x82>
 80058d2:	68db      	ldr	r3, [r3, #12]
 80058d4:	2400      	movs	r4, #0
 80058d6:	f8d3 8000 	ldr.w	r8, [r3]
 80058da:	f7ff fc57 	bl	800518c <vTaskSuspendAll>
 80058de:	a804      	add	r0, sp, #16
 80058e0:	f7ff ff96 	bl	8005810 <prvSampleTimeNow>
 80058e4:	9b04      	ldr	r3, [sp, #16]
 80058e6:	4681      	mov	r9, r0
 80058e8:	2b00      	cmp	r3, #0
 80058ea:	d169      	bne.n	80059c0 <prvTimerTask+0x104>
 80058ec:	2c00      	cmp	r4, #0
 80058ee:	d14c      	bne.n	800598a <prvTimerTask+0xce>
 80058f0:	4540      	cmp	r0, r8
 80058f2:	d350      	bcc.n	8005996 <prvTimerTask+0xda>
 80058f4:	f7ff fcee 	bl	80052d4 <xTaskResumeAll>
 80058f8:	682b      	ldr	r3, [r5, #0]
 80058fa:	68db      	ldr	r3, [r3, #12]
 80058fc:	68df      	ldr	r7, [r3, #12]
 80058fe:	1d38      	adds	r0, r7, #4
 8005900:	f7fe ff23 	bl	800474a <uxListRemove>
 8005904:	f897 3028 	ldrb.w	r3, [r7, #40]	; 0x28
 8005908:	0758      	lsls	r0, r3, #29
 800590a:	d51a      	bpl.n	8005942 <prvTimerTask+0x86>
 800590c:	69b9      	ldr	r1, [r7, #24]
 800590e:	4643      	mov	r3, r8
 8005910:	464a      	mov	r2, r9
 8005912:	4638      	mov	r0, r7
 8005914:	4441      	add	r1, r8
 8005916:	f7ff ff01 	bl	800571c <prvInsertTimerInActiveList>
 800591a:	b1b0      	cbz	r0, 800594a <prvTimerTask+0x8e>
 800591c:	4623      	mov	r3, r4
 800591e:	4642      	mov	r2, r8
 8005920:	4621      	mov	r1, r4
 8005922:	4638      	mov	r0, r7
 8005924:	9400      	str	r4, [sp, #0]
 8005926:	f7ff ff49 	bl	80057bc <xTimerGenericCommand>
 800592a:	b970      	cbnz	r0, 800594a <prvTimerTask+0x8e>
 800592c:	f04f 0350 	mov.w	r3, #80	; 0x50
 8005930:	f383 8811 	msr	BASEPRI, r3
 8005934:	f3bf 8f6f 	isb	sy
 8005938:	f3bf 8f4f 	dsb	sy
 800593c:	e7fe      	b.n	800593c <prvTimerTask+0x80>
 800593e:	2401      	movs	r4, #1
 8005940:	e7cb      	b.n	80058da <prvTimerTask+0x1e>
 8005942:	f023 0301 	bic.w	r3, r3, #1
 8005946:	f887 3028 	strb.w	r3, [r7, #40]	; 0x28
 800594a:	6a3b      	ldr	r3, [r7, #32]
 800594c:	4638      	mov	r0, r7
 800594e:	4798      	blx	r3
 8005950:	2200      	movs	r2, #0
 8005952:	a904      	add	r1, sp, #16
 8005954:	6830      	ldr	r0, [r6, #0]
 8005956:	f7ff f937 	bl	8004bc8 <xQueueReceive>
 800595a:	2800      	cmp	r0, #0
 800595c:	d0b3      	beq.n	80058c6 <prvTimerTask+0xa>
 800595e:	9b04      	ldr	r3, [sp, #16]
 8005960:	9806      	ldr	r0, [sp, #24]
 8005962:	2b00      	cmp	r3, #0
 8005964:	db2f      	blt.n	80059c6 <prvTimerTask+0x10a>
 8005966:	9c06      	ldr	r4, [sp, #24]
 8005968:	6963      	ldr	r3, [r4, #20]
 800596a:	2b00      	cmp	r3, #0
 800596c:	d132      	bne.n	80059d4 <prvTimerTask+0x118>
 800596e:	a803      	add	r0, sp, #12
 8005970:	f7ff ff4e 	bl	8005810 <prvSampleTimeNow>
 8005974:	9b04      	ldr	r3, [sp, #16]
 8005976:	4602      	mov	r2, r0
 8005978:	2b09      	cmp	r3, #9
 800597a:	d8e9      	bhi.n	8005950 <prvTimerTask+0x94>
 800597c:	e8df f003 	tbb	[pc, r3]
 8005980:	572e2e2e 	.word	0x572e2e2e
 8005984:	2e2e765e 	.word	0x2e2e765e
 8005988:	5e57      	.short	0x5e57
 800598a:	4b3e      	ldr	r3, [pc, #248]	; (8005a84 <prvTimerTask+0x1c8>)
 800598c:	681b      	ldr	r3, [r3, #0]
 800598e:	681c      	ldr	r4, [r3, #0]
 8005990:	fab4 f484 	clz	r4, r4
 8005994:	0964      	lsrs	r4, r4, #5
 8005996:	4622      	mov	r2, r4
 8005998:	eba8 0109 	sub.w	r1, r8, r9
 800599c:	6830      	ldr	r0, [r6, #0]
 800599e:	f7ff f9c5 	bl	8004d2c <vQueueWaitForMessageRestricted>
 80059a2:	f7ff fc97 	bl	80052d4 <xTaskResumeAll>
 80059a6:	2800      	cmp	r0, #0
 80059a8:	d1d2      	bne.n	8005950 <prvTimerTask+0x94>
 80059aa:	f04f 23e0 	mov.w	r3, #3758153728	; 0xe000e000
 80059ae:	f04f 5280 	mov.w	r2, #268435456	; 0x10000000
 80059b2:	f8c3 2d04 	str.w	r2, [r3, #3332]	; 0xd04
 80059b6:	f3bf 8f4f 	dsb	sy
 80059ba:	f3bf 8f6f 	isb	sy
 80059be:	e7c7      	b.n	8005950 <prvTimerTask+0x94>
 80059c0:	f7ff fc88 	bl	80052d4 <xTaskResumeAll>
 80059c4:	e7c4      	b.n	8005950 <prvTimerTask+0x94>
 80059c6:	9b05      	ldr	r3, [sp, #20]
 80059c8:	9907      	ldr	r1, [sp, #28]
 80059ca:	4798      	blx	r3
 80059cc:	9b04      	ldr	r3, [sp, #16]
 80059ce:	2b00      	cmp	r3, #0
 80059d0:	dbbe      	blt.n	8005950 <prvTimerTask+0x94>
 80059d2:	e7c8      	b.n	8005966 <prvTimerTask+0xaa>
 80059d4:	1d20      	adds	r0, r4, #4
 80059d6:	f7fe feb8 	bl	800474a <uxListRemove>
 80059da:	e7c8      	b.n	800596e <prvTimerTask+0xb2>
 80059dc:	f894 3028 	ldrb.w	r3, [r4, #40]	; 0x28
 80059e0:	4620      	mov	r0, r4
 80059e2:	69a1      	ldr	r1, [r4, #24]
 80059e4:	f043 0301 	orr.w	r3, r3, #1
 80059e8:	f884 3028 	strb.w	r3, [r4, #40]	; 0x28
 80059ec:	9b05      	ldr	r3, [sp, #20]
 80059ee:	4419      	add	r1, r3
 80059f0:	f7ff fe94 	bl	800571c <prvInsertTimerInActiveList>
 80059f4:	2800      	cmp	r0, #0
 80059f6:	d0ab      	beq.n	8005950 <prvTimerTask+0x94>
 80059f8:	6a23      	ldr	r3, [r4, #32]
 80059fa:	4620      	mov	r0, r4
 80059fc:	4798      	blx	r3
 80059fe:	f894 3028 	ldrb.w	r3, [r4, #40]	; 0x28
 8005a02:	0759      	lsls	r1, r3, #29
 8005a04:	d5a4      	bpl.n	8005950 <prvTimerTask+0x94>
 8005a06:	69a2      	ldr	r2, [r4, #24]
 8005a08:	2300      	movs	r3, #0
 8005a0a:	9905      	ldr	r1, [sp, #20]
 8005a0c:	4620      	mov	r0, r4
 8005a0e:	9300      	str	r3, [sp, #0]
 8005a10:	440a      	add	r2, r1
 8005a12:	4619      	mov	r1, r3
 8005a14:	f7ff fed2 	bl	80057bc <xTimerGenericCommand>
 8005a18:	2800      	cmp	r0, #0
 8005a1a:	d199      	bne.n	8005950 <prvTimerTask+0x94>
 8005a1c:	f04f 0350 	mov.w	r3, #80	; 0x50
 8005a20:	f383 8811 	msr	BASEPRI, r3
 8005a24:	f3bf 8f6f 	isb	sy
 8005a28:	f3bf 8f4f 	dsb	sy
 8005a2c:	e7fe      	b.n	8005a2c <prvTimerTask+0x170>
 8005a2e:	f894 3028 	ldrb.w	r3, [r4, #40]	; 0x28
 8005a32:	f023 0301 	bic.w	r3, r3, #1
 8005a36:	f884 3028 	strb.w	r3, [r4, #40]	; 0x28
 8005a3a:	e789      	b.n	8005950 <prvTimerTask+0x94>
 8005a3c:	f894 3028 	ldrb.w	r3, [r4, #40]	; 0x28
 8005a40:	f043 0301 	orr.w	r3, r3, #1
 8005a44:	f884 3028 	strb.w	r3, [r4, #40]	; 0x28
 8005a48:	9905      	ldr	r1, [sp, #20]
 8005a4a:	61a1      	str	r1, [r4, #24]
 8005a4c:	b941      	cbnz	r1, 8005a60 <prvTimerTask+0x1a4>
 8005a4e:	f04f 0350 	mov.w	r3, #80	; 0x50
 8005a52:	f383 8811 	msr	BASEPRI, r3
 8005a56:	f3bf 8f6f 	isb	sy
 8005a5a:	f3bf 8f4f 	dsb	sy
 8005a5e:	e7fe      	b.n	8005a5e <prvTimerTask+0x1a2>
 8005a60:	4603      	mov	r3, r0
 8005a62:	4401      	add	r1, r0
 8005a64:	4620      	mov	r0, r4
 8005a66:	f7ff fe59 	bl	800571c <prvInsertTimerInActiveList>
 8005a6a:	e771      	b.n	8005950 <prvTimerTask+0x94>
 8005a6c:	f894 3028 	ldrb.w	r3, [r4, #40]	; 0x28
 8005a70:	079a      	lsls	r2, r3, #30
 8005a72:	d4de      	bmi.n	8005a32 <prvTimerTask+0x176>
 8005a74:	4620      	mov	r0, r4
 8005a76:	f000 fa6f 	bl	8005f58 <vPortFree>
 8005a7a:	e769      	b.n	8005950 <prvTimerTask+0x94>
 8005a7c:	2400144c 	.word	0x2400144c
 8005a80:	24001570 	.word	0x24001570
 8005a84:	24001450 	.word	0x24001450

08005a88 <prvPortStartFirstTask>:
 8005a88:	4808      	ldr	r0, [pc, #32]	; (8005aac <prvPortStartFirstTask+0x24>)
 8005a8a:	6800      	ldr	r0, [r0, #0]
 8005a8c:	6800      	ldr	r0, [r0, #0]
 8005a8e:	f380 8808 	msr	MSP, r0
 8005a92:	f04f 0000 	mov.w	r0, #0
 8005a96:	f380 8814 	msr	CONTROL, r0
 8005a9a:	b662      	cpsie	i
 8005a9c:	b661      	cpsie	f
 8005a9e:	f3bf 8f4f 	dsb	sy
 8005aa2:	f3bf 8f6f 	isb	sy
 8005aa6:	df00      	svc	0
 8005aa8:	bf00      	nop
 8005aaa:	0000      	.short	0x0000
 8005aac:	e000ed08 	.word	0xe000ed08

08005ab0 <vPortEnableVFP>:
 8005ab0:	f8df 000c 	ldr.w	r0, [pc, #12]	; 8005ac0 <vPortEnableVFP+0x10>
 8005ab4:	6801      	ldr	r1, [r0, #0]
 8005ab6:	f441 0170 	orr.w	r1, r1, #15728640	; 0xf00000
 8005aba:	6001      	str	r1, [r0, #0]
 8005abc:	4770      	bx	lr
 8005abe:	0000      	.short	0x0000
 8005ac0:	e000ed88 	.word	0xe000ed88

08005ac4 <prvTaskExitError>:
 8005ac4:	2300      	movs	r3, #0
 8005ac6:	b082      	sub	sp, #8
 8005ac8:	9301      	str	r3, [sp, #4]
 8005aca:	4b0d      	ldr	r3, [pc, #52]	; (8005b00 <prvTaskExitError+0x3c>)
 8005acc:	681b      	ldr	r3, [r3, #0]
 8005ace:	3301      	adds	r3, #1
 8005ad0:	d008      	beq.n	8005ae4 <prvTaskExitError+0x20>
 8005ad2:	f04f 0350 	mov.w	r3, #80	; 0x50
 8005ad6:	f383 8811 	msr	BASEPRI, r3
 8005ada:	f3bf 8f6f 	isb	sy
 8005ade:	f3bf 8f4f 	dsb	sy
 8005ae2:	e7fe      	b.n	8005ae2 <prvTaskExitError+0x1e>
 8005ae4:	f04f 0350 	mov.w	r3, #80	; 0x50
 8005ae8:	f383 8811 	msr	BASEPRI, r3
 8005aec:	f3bf 8f6f 	isb	sy
 8005af0:	f3bf 8f4f 	dsb	sy
 8005af4:	9b01      	ldr	r3, [sp, #4]
 8005af6:	2b00      	cmp	r3, #0
 8005af8:	d0fc      	beq.n	8005af4 <prvTaskExitError+0x30>
 8005afa:	b002      	add	sp, #8
 8005afc:	4770      	bx	lr
 8005afe:	bf00      	nop
 8005b00:	24000010 	.word	0x24000010

08005b04 <pxPortInitialiseStack>:
 8005b04:	f04f 7380 	mov.w	r3, #16777216	; 0x1000000
 8005b08:	f021 0101 	bic.w	r1, r1, #1
 8005b0c:	f840 2c20 	str.w	r2, [r0, #-32]
 8005b10:	3844      	subs	r0, #68	; 0x44
 8005b12:	6403      	str	r3, [r0, #64]	; 0x40
 8005b14:	4b03      	ldr	r3, [pc, #12]	; (8005b24 <pxPortInitialiseStack+0x20>)
 8005b16:	63c1      	str	r1, [r0, #60]	; 0x3c
 8005b18:	6383      	str	r3, [r0, #56]	; 0x38
 8005b1a:	f06f 0302 	mvn.w	r3, #2
 8005b1e:	6203      	str	r3, [r0, #32]
 8005b20:	4770      	bx	lr
 8005b22:	bf00      	nop
 8005b24:	08005ac5 	.word	0x08005ac5
	...

08005b30 <SVC_Handler>:
 8005b30:	4b07      	ldr	r3, [pc, #28]	; (8005b50 <pxCurrentTCBConst2>)
 8005b32:	6819      	ldr	r1, [r3, #0]
 8005b34:	6808      	ldr	r0, [r1, #0]
 8005b36:	e8b0 4ff0 	ldmia.w	r0!, {r4, r5, r6, r7, r8, r9, sl, fp, lr}
 8005b3a:	f380 8809 	msr	PSP, r0
 8005b3e:	f3bf 8f6f 	isb	sy
 8005b42:	f04f 0000 	mov.w	r0, #0
 8005b46:	f380 8811 	msr	BASEPRI, r0
 8005b4a:	4770      	bx	lr
 8005b4c:	f3af 8000 	nop.w

08005b50 <pxCurrentTCBConst2>:
 8005b50:	24000f50 	.word	0x24000f50

08005b54 <vPortEnterCritical>:
 8005b54:	f04f 0350 	mov.w	r3, #80	; 0x50
 8005b58:	f383 8811 	msr	BASEPRI, r3
 8005b5c:	f3bf 8f6f 	isb	sy
 8005b60:	f3bf 8f4f 	dsb	sy
 8005b64:	4a0a      	ldr	r2, [pc, #40]	; (8005b90 <vPortEnterCritical+0x3c>)
 8005b66:	6813      	ldr	r3, [r2, #0]
 8005b68:	3301      	adds	r3, #1
 8005b6a:	2b01      	cmp	r3, #1
 8005b6c:	6013      	str	r3, [r2, #0]
 8005b6e:	d10e      	bne.n	8005b8e <vPortEnterCritical+0x3a>
 8005b70:	f04f 23e0 	mov.w	r3, #3758153728	; 0xe000e000
 8005b74:	f8d3 3d04 	ldr.w	r3, [r3, #3332]	; 0xd04
 8005b78:	b2db      	uxtb	r3, r3
 8005b7a:	b143      	cbz	r3, 8005b8e <vPortEnterCritical+0x3a>
 8005b7c:	f04f 0350 	mov.w	r3, #80	; 0x50
 8005b80:	f383 8811 	msr	BASEPRI, r3
 8005b84:	f3bf 8f6f 	isb	sy
 8005b88:	f3bf 8f4f 	dsb	sy
 8005b8c:	e7fe      	b.n	8005b8c <vPortEnterCritical+0x38>
 8005b8e:	4770      	bx	lr
 8005b90:	24000010 	.word	0x24000010

08005b94 <vPortExitCritical>:
 8005b94:	4a08      	ldr	r2, [pc, #32]	; (8005bb8 <vPortExitCritical+0x24>)
 8005b96:	6813      	ldr	r3, [r2, #0]
 8005b98:	b943      	cbnz	r3, 8005bac <vPortExitCritical+0x18>
 8005b9a:	f04f 0350 	mov.w	r3, #80	; 0x50
 8005b9e:	f383 8811 	msr	BASEPRI, r3
 8005ba2:	f3bf 8f6f 	isb	sy
 8005ba6:	f3bf 8f4f 	dsb	sy
 8005baa:	e7fe      	b.n	8005baa <vPortExitCritical+0x16>
 8005bac:	3b01      	subs	r3, #1
 8005bae:	6013      	str	r3, [r2, #0]
 8005bb0:	b90b      	cbnz	r3, 8005bb6 <vPortExitCritical+0x22>
 8005bb2:	f383 8811 	msr	BASEPRI, r3
 8005bb6:	4770      	bx	lr
 8005bb8:	24000010 	.word	0x24000010
 8005bbc:	00000000 	.word	0x00000000

08005bc0 <PendSV_Handler>:
 8005bc0:	f3ef 8009 	mrs	r0, PSP
 8005bc4:	f3bf 8f6f 	isb	sy
 8005bc8:	4b15      	ldr	r3, [pc, #84]	; (8005c20 <pxCurrentTCBConst>)
 8005bca:	681a      	ldr	r2, [r3, #0]
 8005bcc:	f01e 0f10 	tst.w	lr, #16
 8005bd0:	bf08      	it	eq
 8005bd2:	ed20 8a10 	vstmdbeq	r0!, {s16-s31}
 8005bd6:	e920 4ff0 	stmdb	r0!, {r4, r5, r6, r7, r8, r9, sl, fp, lr}
 8005bda:	6010      	str	r0, [r2, #0]
 8005bdc:	e92d 0009 	stmdb	sp!, {r0, r3}
 8005be0:	f04f 0050 	mov.w	r0, #80	; 0x50
 8005be4:	f380 8811 	msr	BASEPRI, r0
 8005be8:	f3bf 8f4f 	dsb	sy
 8005bec:	f3bf 8f6f 	isb	sy
 8005bf0:	f7ff fc08 	bl	8005404 <vTaskSwitchContext>
 8005bf4:	f04f 0000 	mov.w	r0, #0
 8005bf8:	f380 8811 	msr	BASEPRI, r0
 8005bfc:	bc09      	pop	{r0, r3}
 8005bfe:	6819      	ldr	r1, [r3, #0]
 8005c00:	6808      	ldr	r0, [r1, #0]
 8005c02:	e8b0 4ff0 	ldmia.w	r0!, {r4, r5, r6, r7, r8, r9, sl, fp, lr}
 8005c06:	f01e 0f10 	tst.w	lr, #16
 8005c0a:	bf08      	it	eq
 8005c0c:	ecb0 8a10 	vldmiaeq	r0!, {s16-s31}
 8005c10:	f380 8809 	msr	PSP, r0
 8005c14:	f3bf 8f6f 	isb	sy
 8005c18:	4770      	bx	lr
 8005c1a:	bf00      	nop
 8005c1c:	f3af 8000 	nop.w

08005c20 <pxCurrentTCBConst>:
 8005c20:	24000f50 	.word	0x24000f50

08005c24 <xPortSysTickHandler>:
 8005c24:	b508      	push	{r3, lr}
 8005c26:	f04f 0350 	mov.w	r3, #80	; 0x50
 8005c2a:	f383 8811 	msr	BASEPRI, r3
 8005c2e:	f3bf 8f6f 	isb	sy
 8005c32:	f3bf 8f4f 	dsb	sy
 8005c36:	f7ff fab7 	bl	80051a8 <xTaskIncrementTick>
 8005c3a:	b128      	cbz	r0, 8005c48 <xPortSysTickHandler+0x24>
 8005c3c:	f04f 23e0 	mov.w	r3, #3758153728	; 0xe000e000
 8005c40:	f04f 5280 	mov.w	r2, #268435456	; 0x10000000
 8005c44:	f8c3 2d04 	str.w	r2, [r3, #3332]	; 0xd04
 8005c48:	2300      	movs	r3, #0
 8005c4a:	f383 8811 	msr	BASEPRI, r3
 8005c4e:	bd08      	pop	{r3, pc}

08005c50 <vPortSetupTimerInterrupt>:
 8005c50:	f04f 22e0 	mov.w	r2, #3758153728	; 0xe000e000
 8005c54:	2300      	movs	r3, #0
 8005c56:	f44f 717a 	mov.w	r1, #1000	; 0x3e8
 8005c5a:	6113      	str	r3, [r2, #16]
 8005c5c:	6193      	str	r3, [r2, #24]
 8005c5e:	4b04      	ldr	r3, [pc, #16]	; (8005c70 <vPortSetupTimerInterrupt+0x20>)
 8005c60:	681b      	ldr	r3, [r3, #0]
 8005c62:	fbb3 f3f1 	udiv	r3, r3, r1
 8005c66:	3b01      	subs	r3, #1
 8005c68:	6153      	str	r3, [r2, #20]
 8005c6a:	2307      	movs	r3, #7
 8005c6c:	6113      	str	r3, [r2, #16]
 8005c6e:	4770      	bx	lr
 8005c70:	24000000 	.word	0x24000000

08005c74 <xPortStartScheduler>:
 8005c74:	f04f 23e0 	mov.w	r3, #3758153728	; 0xe000e000
 8005c78:	b537      	push	{r0, r1, r2, r4, r5, lr}
 8005c7a:	f8d3 1d00 	ldr.w	r1, [r3, #3328]	; 0xd00
 8005c7e:	4a3a      	ldr	r2, [pc, #232]	; (8005d68 <xPortStartScheduler+0xf4>)
 8005c80:	4291      	cmp	r1, r2
 8005c82:	d108      	bne.n	8005c96 <xPortStartScheduler+0x22>
 8005c84:	f04f 0350 	mov.w	r3, #80	; 0x50
 8005c88:	f383 8811 	msr	BASEPRI, r3
 8005c8c:	f3bf 8f6f 	isb	sy
 8005c90:	f3bf 8f4f 	dsb	sy
 8005c94:	e7fe      	b.n	8005c94 <xPortStartScheduler+0x20>
 8005c96:	f8d3 2d00 	ldr.w	r2, [r3, #3328]	; 0xd00
 8005c9a:	4b34      	ldr	r3, [pc, #208]	; (8005d6c <xPortStartScheduler+0xf8>)
 8005c9c:	429a      	cmp	r2, r3
 8005c9e:	d108      	bne.n	8005cb2 <xPortStartScheduler+0x3e>
 8005ca0:	f04f 0350 	mov.w	r3, #80	; 0x50
 8005ca4:	f383 8811 	msr	BASEPRI, r3
 8005ca8:	f3bf 8f6f 	isb	sy
 8005cac:	f3bf 8f4f 	dsb	sy
 8005cb0:	e7fe      	b.n	8005cb0 <xPortStartScheduler+0x3c>
 8005cb2:	4b2f      	ldr	r3, [pc, #188]	; (8005d70 <xPortStartScheduler+0xfc>)
 8005cb4:	2100      	movs	r1, #0
 8005cb6:	781a      	ldrb	r2, [r3, #0]
 8005cb8:	b2d2      	uxtb	r2, r2
 8005cba:	9201      	str	r2, [sp, #4]
 8005cbc:	22ff      	movs	r2, #255	; 0xff
 8005cbe:	701a      	strb	r2, [r3, #0]
 8005cc0:	781b      	ldrb	r3, [r3, #0]
 8005cc2:	4a2c      	ldr	r2, [pc, #176]	; (8005d74 <xPortStartScheduler+0x100>)
 8005cc4:	b2db      	uxtb	r3, r3
 8005cc6:	f88d 3003 	strb.w	r3, [sp, #3]
 8005cca:	f89d 3003 	ldrb.w	r3, [sp, #3]
 8005cce:	f003 0350 	and.w	r3, r3, #80	; 0x50
 8005cd2:	7013      	strb	r3, [r2, #0]
 8005cd4:	2307      	movs	r3, #7
 8005cd6:	4a28      	ldr	r2, [pc, #160]	; (8005d78 <xPortStartScheduler+0x104>)
 8005cd8:	6013      	str	r3, [r2, #0]
 8005cda:	f89d 0003 	ldrb.w	r0, [sp, #3]
 8005cde:	1e5c      	subs	r4, r3, #1
 8005ce0:	0600      	lsls	r0, r0, #24
 8005ce2:	d40c      	bmi.n	8005cfe <xPortStartScheduler+0x8a>
 8005ce4:	b111      	cbz	r1, 8005cec <xPortStartScheduler+0x78>
 8005ce6:	2b03      	cmp	r3, #3
 8005ce8:	6013      	str	r3, [r2, #0]
 8005cea:	d011      	beq.n	8005d10 <xPortStartScheduler+0x9c>
 8005cec:	f04f 0350 	mov.w	r3, #80	; 0x50
 8005cf0:	f383 8811 	msr	BASEPRI, r3
 8005cf4:	f3bf 8f6f 	isb	sy
 8005cf8:	f3bf 8f4f 	dsb	sy
 8005cfc:	e7fe      	b.n	8005cfc <xPortStartScheduler+0x88>
 8005cfe:	f89d 3003 	ldrb.w	r3, [sp, #3]
 8005d02:	2101      	movs	r1, #1
 8005d04:	005b      	lsls	r3, r3, #1
 8005d06:	b2db      	uxtb	r3, r3
 8005d08:	f88d 3003 	strb.w	r3, [sp, #3]
 8005d0c:	4623      	mov	r3, r4
 8005d0e:	e7e4      	b.n	8005cda <xPortStartScheduler+0x66>
 8005d10:	f44f 7340 	mov.w	r3, #768	; 0x300
 8005d14:	f04f 24e0 	mov.w	r4, #3758153728	; 0xe000e000
 8005d18:	2500      	movs	r5, #0
 8005d1a:	6013      	str	r3, [r2, #0]
 8005d1c:	9b01      	ldr	r3, [sp, #4]
 8005d1e:	4a14      	ldr	r2, [pc, #80]	; (8005d70 <xPortStartScheduler+0xfc>)
 8005d20:	b2db      	uxtb	r3, r3
 8005d22:	7013      	strb	r3, [r2, #0]
 8005d24:	f8d4 3d20 	ldr.w	r3, [r4, #3360]	; 0xd20
 8005d28:	f443 0370 	orr.w	r3, r3, #15728640	; 0xf00000
 8005d2c:	f8c4 3d20 	str.w	r3, [r4, #3360]	; 0xd20
 8005d30:	f8d4 3d20 	ldr.w	r3, [r4, #3360]	; 0xd20
 8005d34:	f043 4370 	orr.w	r3, r3, #4026531840	; 0xf0000000
 8005d38:	f8c4 3d20 	str.w	r3, [r4, #3360]	; 0xd20
 8005d3c:	f7ff ff88 	bl	8005c50 <vPortSetupTimerInterrupt>
 8005d40:	4b0e      	ldr	r3, [pc, #56]	; (8005d7c <xPortStartScheduler+0x108>)
 8005d42:	601d      	str	r5, [r3, #0]
 8005d44:	f7ff feb4 	bl	8005ab0 <vPortEnableVFP>
 8005d48:	f8d4 3f34 	ldr.w	r3, [r4, #3892]	; 0xf34
 8005d4c:	f043 4340 	orr.w	r3, r3, #3221225472	; 0xc0000000
 8005d50:	f8c4 3f34 	str.w	r3, [r4, #3892]	; 0xf34
 8005d54:	f7ff fe98 	bl	8005a88 <prvPortStartFirstTask>
 8005d58:	f7ff fb54 	bl	8005404 <vTaskSwitchContext>
 8005d5c:	4628      	mov	r0, r5
 8005d5e:	f7ff feb1 	bl	8005ac4 <prvTaskExitError>
 8005d62:	b003      	add	sp, #12
 8005d64:	bd30      	pop	{r4, r5, pc}
 8005d66:	bf00      	nop
 8005d68:	410fc271 	.word	0x410fc271
 8005d6c:	410fc270 	.word	0x410fc270
 8005d70:	e000e400 	.word	0xe000e400
 8005d74:	24001578 	.word	0x24001578
 8005d78:	2400157c 	.word	0x2400157c
 8005d7c:	24000010 	.word	0x24000010

08005d80 <vPortValidateInterruptPriority>:
 8005d80:	f3ef 8305 	mrs	r3, IPSR
 8005d84:	2b0f      	cmp	r3, #15
 8005d86:	d90e      	bls.n	8005da6 <vPortValidateInterruptPriority+0x26>
 8005d88:	4a11      	ldr	r2, [pc, #68]	; (8005dd0 <vPortValidateInterruptPriority+0x50>)
 8005d8a:	5c9b      	ldrb	r3, [r3, r2]
 8005d8c:	4a11      	ldr	r2, [pc, #68]	; (8005dd4 <vPortValidateInterruptPriority+0x54>)
 8005d8e:	7812      	ldrb	r2, [r2, #0]
 8005d90:	429a      	cmp	r2, r3
 8005d92:	d908      	bls.n	8005da6 <vPortValidateInterruptPriority+0x26>
 8005d94:	f04f 0350 	mov.w	r3, #80	; 0x50
 8005d98:	f383 8811 	msr	BASEPRI, r3
 8005d9c:	f3bf 8f6f 	isb	sy
 8005da0:	f3bf 8f4f 	dsb	sy
 8005da4:	e7fe      	b.n	8005da4 <vPortValidateInterruptPriority+0x24>
 8005da6:	f04f 23e0 	mov.w	r3, #3758153728	; 0xe000e000
 8005daa:	4a0b      	ldr	r2, [pc, #44]	; (8005dd8 <vPortValidateInterruptPriority+0x58>)
 8005dac:	f8d3 3d0c 	ldr.w	r3, [r3, #3340]	; 0xd0c
 8005db0:	6812      	ldr	r2, [r2, #0]
 8005db2:	f403 63e0 	and.w	r3, r3, #1792	; 0x700
 8005db6:	4293      	cmp	r3, r2
 8005db8:	d908      	bls.n	8005dcc <vPortValidateInterruptPriority+0x4c>
 8005dba:	f04f 0350 	mov.w	r3, #80	; 0x50
 8005dbe:	f383 8811 	msr	BASEPRI, r3
 8005dc2:	f3bf 8f6f 	isb	sy
 8005dc6:	f3bf 8f4f 	dsb	sy
 8005dca:	e7fe      	b.n	8005dca <vPortValidateInterruptPriority+0x4a>
 8005dcc:	4770      	bx	lr
 8005dce:	bf00      	nop
 8005dd0:	e000e3f0 	.word	0xe000e3f0
 8005dd4:	24001578 	.word	0x24001578
 8005dd8:	2400157c 	.word	0x2400157c

08005ddc <prvInsertBlockIntoFreeList>:
 8005ddc:	4b10      	ldr	r3, [pc, #64]	; (8005e20 <prvInsertBlockIntoFreeList+0x44>)
 8005dde:	b510      	push	{r4, lr}
 8005de0:	461a      	mov	r2, r3
 8005de2:	681b      	ldr	r3, [r3, #0]
 8005de4:	4283      	cmp	r3, r0
 8005de6:	d3fb      	bcc.n	8005de0 <prvInsertBlockIntoFreeList+0x4>
 8005de8:	6854      	ldr	r4, [r2, #4]
 8005dea:	1911      	adds	r1, r2, r4
 8005dec:	4288      	cmp	r0, r1
 8005dee:	bf01      	itttt	eq
 8005df0:	6841      	ldreq	r1, [r0, #4]
 8005df2:	4610      	moveq	r0, r2
 8005df4:	1909      	addeq	r1, r1, r4
 8005df6:	6051      	streq	r1, [r2, #4]
 8005df8:	6844      	ldr	r4, [r0, #4]
 8005dfa:	1901      	adds	r1, r0, r4
 8005dfc:	428b      	cmp	r3, r1
 8005dfe:	d10c      	bne.n	8005e1a <prvInsertBlockIntoFreeList+0x3e>
 8005e00:	4908      	ldr	r1, [pc, #32]	; (8005e24 <prvInsertBlockIntoFreeList+0x48>)
 8005e02:	6809      	ldr	r1, [r1, #0]
 8005e04:	428b      	cmp	r3, r1
 8005e06:	d003      	beq.n	8005e10 <prvInsertBlockIntoFreeList+0x34>
 8005e08:	6859      	ldr	r1, [r3, #4]
 8005e0a:	4421      	add	r1, r4
 8005e0c:	6041      	str	r1, [r0, #4]
 8005e0e:	6819      	ldr	r1, [r3, #0]
 8005e10:	4290      	cmp	r0, r2
 8005e12:	6001      	str	r1, [r0, #0]
 8005e14:	bf18      	it	ne
 8005e16:	6010      	strne	r0, [r2, #0]
 8005e18:	bd10      	pop	{r4, pc}
 8005e1a:	4619      	mov	r1, r3
 8005e1c:	e7f8      	b.n	8005e10 <prvInsertBlockIntoFreeList+0x34>
 8005e1e:	bf00      	nop
 8005e20:	24005198 	.word	0x24005198
 8005e24:	24001580 	.word	0x24001580

08005e28 <pvPortMalloc>:
 8005e28:	e92d 41f0 	stmdb	sp!, {r4, r5, r6, r7, r8, lr}
 8005e2c:	4604      	mov	r4, r0
 8005e2e:	f7ff f9ad 	bl	800518c <vTaskSuspendAll>
 8005e32:	4942      	ldr	r1, [pc, #264]	; (8005f3c <pvPortMalloc+0x114>)
 8005e34:	4d42      	ldr	r5, [pc, #264]	; (8005f40 <pvPortMalloc+0x118>)
 8005e36:	680b      	ldr	r3, [r1, #0]
 8005e38:	bb0b      	cbnz	r3, 8005e7e <pvPortMalloc+0x56>
 8005e3a:	4a42      	ldr	r2, [pc, #264]	; (8005f44 <pvPortMalloc+0x11c>)
 8005e3c:	0756      	lsls	r6, r2, #29
 8005e3e:	4e42      	ldr	r6, [pc, #264]	; (8005f48 <pvPortMalloc+0x120>)
 8005e40:	bf1b      	ittet	ne
 8005e42:	1dd0      	addne	r0, r2, #7
 8005e44:	f502 5270 	addne.w	r2, r2, #15360	; 0x3c00
 8005e48:	f44f 5370 	moveq.w	r3, #15360	; 0x3c00
 8005e4c:	f020 0007 	bicne.w	r0, r0, #7
 8005e50:	bf1c      	itt	ne
 8005e52:	1a13      	subne	r3, r2, r0
 8005e54:	4602      	movne	r2, r0
 8005e56:	2000      	movs	r0, #0
 8005e58:	4413      	add	r3, r2
 8005e5a:	6032      	str	r2, [r6, #0]
 8005e5c:	6070      	str	r0, [r6, #4]
 8005e5e:	3b08      	subs	r3, #8
 8005e60:	f023 0307 	bic.w	r3, r3, #7
 8005e64:	e9c3 0000 	strd	r0, r0, [r3]
 8005e68:	1a98      	subs	r0, r3, r2
 8005e6a:	600b      	str	r3, [r1, #0]
 8005e6c:	e9c2 3000 	strd	r3, r0, [r2]
 8005e70:	4b36      	ldr	r3, [pc, #216]	; (8005f4c <pvPortMalloc+0x124>)
 8005e72:	6018      	str	r0, [r3, #0]
 8005e74:	4b36      	ldr	r3, [pc, #216]	; (8005f50 <pvPortMalloc+0x128>)
 8005e76:	6018      	str	r0, [r3, #0]
 8005e78:	f04f 4300 	mov.w	r3, #2147483648	; 0x80000000
 8005e7c:	602b      	str	r3, [r5, #0]
 8005e7e:	682e      	ldr	r6, [r5, #0]
 8005e80:	4226      	tst	r6, r4
 8005e82:	d155      	bne.n	8005f30 <pvPortMalloc+0x108>
 8005e84:	2c00      	cmp	r4, #0
 8005e86:	d046      	beq.n	8005f16 <pvPortMalloc+0xee>
 8005e88:	f104 0308 	add.w	r3, r4, #8
 8005e8c:	0760      	lsls	r0, r4, #29
 8005e8e:	bf1c      	itt	ne
 8005e90:	f023 0307 	bicne.w	r3, r3, #7
 8005e94:	3308      	addne	r3, #8
 8005e96:	2b00      	cmp	r3, #0
 8005e98:	d04a      	beq.n	8005f30 <pvPortMalloc+0x108>
 8005e9a:	4f2d      	ldr	r7, [pc, #180]	; (8005f50 <pvPortMalloc+0x128>)
 8005e9c:	683c      	ldr	r4, [r7, #0]
 8005e9e:	429c      	cmp	r4, r3
 8005ea0:	d346      	bcc.n	8005f30 <pvPortMalloc+0x108>
 8005ea2:	4a29      	ldr	r2, [pc, #164]	; (8005f48 <pvPortMalloc+0x120>)
 8005ea4:	6815      	ldr	r5, [r2, #0]
 8005ea6:	6868      	ldr	r0, [r5, #4]
 8005ea8:	4298      	cmp	r0, r3
 8005eaa:	d204      	bcs.n	8005eb6 <pvPortMalloc+0x8e>
 8005eac:	f8d5 c000 	ldr.w	ip, [r5]
 8005eb0:	f1bc 0f00 	cmp.w	ip, #0
 8005eb4:	d115      	bne.n	8005ee2 <pvPortMalloc+0xba>
 8005eb6:	6809      	ldr	r1, [r1, #0]
 8005eb8:	42a9      	cmp	r1, r5
 8005eba:	d039      	beq.n	8005f30 <pvPortMalloc+0x108>
 8005ebc:	6829      	ldr	r1, [r5, #0]
 8005ebe:	f8d2 8000 	ldr.w	r8, [r2]
 8005ec2:	6011      	str	r1, [r2, #0]
 8005ec4:	1ac2      	subs	r2, r0, r3
 8005ec6:	2a10      	cmp	r2, #16
 8005ec8:	d912      	bls.n	8005ef0 <pvPortMalloc+0xc8>
 8005eca:	18e8      	adds	r0, r5, r3
 8005ecc:	0741      	lsls	r1, r0, #29
 8005ece:	d00b      	beq.n	8005ee8 <pvPortMalloc+0xc0>
 8005ed0:	f04f 0350 	mov.w	r3, #80	; 0x50
 8005ed4:	f383 8811 	msr	BASEPRI, r3
 8005ed8:	f3bf 8f6f 	isb	sy
 8005edc:	f3bf 8f4f 	dsb	sy
 8005ee0:	e7fe      	b.n	8005ee0 <pvPortMalloc+0xb8>
 8005ee2:	462a      	mov	r2, r5
 8005ee4:	4665      	mov	r5, ip
 8005ee6:	e7de      	b.n	8005ea6 <pvPortMalloc+0x7e>
 8005ee8:	6042      	str	r2, [r0, #4]
 8005eea:	606b      	str	r3, [r5, #4]
 8005eec:	f7ff ff76 	bl	8005ddc <prvInsertBlockIntoFreeList>
 8005ef0:	686a      	ldr	r2, [r5, #4]
 8005ef2:	2300      	movs	r3, #0
 8005ef4:	4915      	ldr	r1, [pc, #84]	; (8005f4c <pvPortMalloc+0x124>)
 8005ef6:	1aa4      	subs	r4, r4, r2
 8005ef8:	4316      	orrs	r6, r2
 8005efa:	6808      	ldr	r0, [r1, #0]
 8005efc:	4a15      	ldr	r2, [pc, #84]	; (8005f54 <pvPortMalloc+0x12c>)
 8005efe:	4284      	cmp	r4, r0
 8005f00:	602b      	str	r3, [r5, #0]
 8005f02:	6813      	ldr	r3, [r2, #0]
 8005f04:	603c      	str	r4, [r7, #0]
 8005f06:	f103 0301 	add.w	r3, r3, #1
 8005f0a:	bf38      	it	cc
 8005f0c:	600c      	strcc	r4, [r1, #0]
 8005f0e:	f108 0408 	add.w	r4, r8, #8
 8005f12:	606e      	str	r6, [r5, #4]
 8005f14:	6013      	str	r3, [r2, #0]
 8005f16:	f7ff f9dd 	bl	80052d4 <xTaskResumeAll>
 8005f1a:	0763      	lsls	r3, r4, #29
 8005f1c:	d00a      	beq.n	8005f34 <pvPortMalloc+0x10c>
 8005f1e:	f04f 0350 	mov.w	r3, #80	; 0x50
 8005f22:	f383 8811 	msr	BASEPRI, r3
 8005f26:	f3bf 8f6f 	isb	sy
 8005f2a:	f3bf 8f4f 	dsb	sy
 8005f2e:	e7fe      	b.n	8005f2e <pvPortMalloc+0x106>
 8005f30:	2400      	movs	r4, #0
 8005f32:	e7f0      	b.n	8005f16 <pvPortMalloc+0xee>
 8005f34:	4620      	mov	r0, r4
 8005f36:	e8bd 81f0 	ldmia.w	sp!, {r4, r5, r6, r7, r8, pc}
 8005f3a:	bf00      	nop
 8005f3c:	24001580 	.word	0x24001580
 8005f40:	24005184 	.word	0x24005184
 8005f44:	24001584 	.word	0x24001584
 8005f48:	24005198 	.word	0x24005198
 8005f4c:	2400518c 	.word	0x2400518c
 8005f50:	24005188 	.word	0x24005188
 8005f54:	24005190 	.word	0x24005190

08005f58 <vPortFree>:
 8005f58:	b510      	push	{r4, lr}
 8005f5a:	4604      	mov	r4, r0
 8005f5c:	b390      	cbz	r0, 8005fc4 <vPortFree+0x6c>
 8005f5e:	4a1a      	ldr	r2, [pc, #104]	; (8005fc8 <vPortFree+0x70>)
 8005f60:	f850 3c04 	ldr.w	r3, [r0, #-4]
 8005f64:	6812      	ldr	r2, [r2, #0]
 8005f66:	4213      	tst	r3, r2
 8005f68:	d108      	bne.n	8005f7c <vPortFree+0x24>
 8005f6a:	f04f 0350 	mov.w	r3, #80	; 0x50
 8005f6e:	f383 8811 	msr	BASEPRI, r3
 8005f72:	f3bf 8f6f 	isb	sy
 8005f76:	f3bf 8f4f 	dsb	sy
 8005f7a:	e7fe      	b.n	8005f7a <vPortFree+0x22>
 8005f7c:	f850 1c08 	ldr.w	r1, [r0, #-8]
 8005f80:	b141      	cbz	r1, 8005f94 <vPortFree+0x3c>
 8005f82:	f04f 0350 	mov.w	r3, #80	; 0x50
 8005f86:	f383 8811 	msr	BASEPRI, r3
 8005f8a:	f3bf 8f6f 	isb	sy
 8005f8e:	f3bf 8f4f 	dsb	sy
 8005f92:	e7fe      	b.n	8005f92 <vPortFree+0x3a>
 8005f94:	ea23 0302 	bic.w	r3, r3, r2
 8005f98:	f840 3c04 	str.w	r3, [r0, #-4]
 8005f9c:	f7ff f8f6 	bl	800518c <vTaskSuspendAll>
 8005fa0:	4a0a      	ldr	r2, [pc, #40]	; (8005fcc <vPortFree+0x74>)
 8005fa2:	f854 3c04 	ldr.w	r3, [r4, #-4]
 8005fa6:	f1a4 0008 	sub.w	r0, r4, #8
 8005faa:	6811      	ldr	r1, [r2, #0]
 8005fac:	440b      	add	r3, r1
 8005fae:	6013      	str	r3, [r2, #0]
 8005fb0:	f7ff ff14 	bl	8005ddc <prvInsertBlockIntoFreeList>
 8005fb4:	4a06      	ldr	r2, [pc, #24]	; (8005fd0 <vPortFree+0x78>)
 8005fb6:	6813      	ldr	r3, [r2, #0]
 8005fb8:	3301      	adds	r3, #1
 8005fba:	e8bd 4010 	ldmia.w	sp!, {r4, lr}
 8005fbe:	6013      	str	r3, [r2, #0]
 8005fc0:	f7ff b988 	b.w	80052d4 <xTaskResumeAll>
 8005fc4:	bd10      	pop	{r4, pc}
 8005fc6:	bf00      	nop
 8005fc8:	24005184 	.word	0x24005184
 8005fcc:	24005188 	.word	0x24005188
 8005fd0:	24005194 	.word	0x24005194

08005fd4 <null_ptr_check>:
 8005fd4:	b148      	cbz	r0, 8005fea <null_ptr_check+0x16>
 8005fd6:	69c3      	ldr	r3, [r0, #28]
 8005fd8:	b13b      	cbz	r3, 8005fea <null_ptr_check+0x16>
 8005fda:	6a03      	ldr	r3, [r0, #32]
 8005fdc:	b12b      	cbz	r3, 8005fea <null_ptr_check+0x16>
 8005fde:	6a40      	ldr	r0, [r0, #36]	; 0x24
 8005fe0:	fab0 f080 	clz	r0, r0
 8005fe4:	0940      	lsrs	r0, r0, #5
 8005fe6:	4240      	negs	r0, r0
 8005fe8:	4770      	bx	lr
 8005fea:	f04f 30ff 	mov.w	r0, #4294967295
 8005fee:	4770      	bx	lr

08005ff0 <bmi160_get_regs>:
 8005ff0:	b430      	push	{r4, r5}
 8005ff2:	461c      	mov	r4, r3
 8005ff4:	b173      	cbz	r3, 8006014 <bmi160_get_regs+0x24>
 8005ff6:	69dd      	ldr	r5, [r3, #28]
 8005ff8:	b165      	cbz	r5, 8006014 <bmi160_get_regs+0x24>
 8005ffa:	b17a      	cbz	r2, 800601c <bmi160_get_regs+0x2c>
 8005ffc:	789b      	ldrb	r3, [r3, #2]
 8005ffe:	46ac      	mov	ip, r5
 8006000:	2b01      	cmp	r3, #1
 8006002:	4613      	mov	r3, r2
 8006004:	460a      	mov	r2, r1
 8006006:	bf08      	it	eq
 8006008:	f040 0080 	orreq.w	r0, r0, #128	; 0x80
 800600c:	4601      	mov	r1, r0
 800600e:	7860      	ldrb	r0, [r4, #1]
 8006010:	bc30      	pop	{r4, r5}
 8006012:	4760      	bx	ip
 8006014:	f04f 30ff 	mov.w	r0, #4294967295
 8006018:	bc30      	pop	{r4, r5}
 800601a:	4770      	bx	lr
 800601c:	f06f 000b 	mvn.w	r0, #11
 8006020:	e7fa      	b.n	8006018 <bmi160_get_regs+0x28>

08006022 <get_foc_status>:
 8006022:	b513      	push	{r0, r1, r4, lr}
 8006024:	460b      	mov	r3, r1
 8006026:	4604      	mov	r4, r0
 8006028:	2201      	movs	r2, #1
 800602a:	f10d 0107 	add.w	r1, sp, #7
 800602e:	201b      	movs	r0, #27
 8006030:	f7ff ffde 	bl	8005ff0 <bmi160_get_regs>
 8006034:	b920      	cbnz	r0, 8006040 <get_foc_status+0x1e>
 8006036:	f89d 3007 	ldrb.w	r3, [sp, #7]
 800603a:	f3c3 03c0 	ubfx	r3, r3, #3, #1
 800603e:	7023      	strb	r3, [r4, #0]
 8006040:	b002      	add	sp, #8
 8006042:	bd10      	pop	{r4, pc}

08006044 <bmi160_set_regs>:
 8006044:	e92d 43f8 	stmdb	sp!, {r3, r4, r5, r6, r7, r8, r9, lr}
 8006048:	4606      	mov	r6, r0
 800604a:	4689      	mov	r9, r1
 800604c:	4617      	mov	r7, r2
 800604e:	461d      	mov	r5, r3
 8006050:	2b00      	cmp	r3, #0
 8006052:	d035      	beq.n	80060c0 <bmi160_set_regs+0x7c>
 8006054:	6a1c      	ldr	r4, [r3, #32]
 8006056:	2c00      	cmp	r4, #0
 8006058:	d032      	beq.n	80060c0 <bmi160_set_regs+0x7c>
 800605a:	2a00      	cmp	r2, #0
 800605c:	d033      	beq.n	80060c6 <bmi160_set_regs+0x82>
 800605e:	789b      	ldrb	r3, [r3, #2]
 8006060:	2b01      	cmp	r3, #1
 8006062:	7a2b      	ldrb	r3, [r5, #8]
 8006064:	bf08      	it	eq
 8006066:	f000 067f 	andeq.w	r6, r0, #127	; 0x7f
 800606a:	2b11      	cmp	r3, #17
 800606c:	d002      	beq.n	8006074 <bmi160_set_regs+0x30>
 800606e:	7c2b      	ldrb	r3, [r5, #16]
 8006070:	2b15      	cmp	r3, #21
 8006072:	d10f      	bne.n	8006094 <bmi160_set_regs+0x50>
 8006074:	463b      	mov	r3, r7
 8006076:	464a      	mov	r2, r9
 8006078:	4631      	mov	r1, r6
 800607a:	7868      	ldrb	r0, [r5, #1]
 800607c:	47a0      	blx	r4
 800607e:	6a6b      	ldr	r3, [r5, #36]	; 0x24
 8006080:	4604      	mov	r4, r0
 8006082:	2001      	movs	r0, #1
 8006084:	4798      	blx	r3
 8006086:	2c00      	cmp	r4, #0
 8006088:	bf18      	it	ne
 800608a:	f06f 0401 	mvnne.w	r4, #1
 800608e:	4620      	mov	r0, r4
 8006090:	e8bd 83f8 	ldmia.w	sp!, {r3, r4, r5, r6, r7, r8, r9, pc}
 8006094:	f04f 0800 	mov.w	r8, #0
 8006098:	eb06 0108 	add.w	r1, r6, r8
 800609c:	eb09 0208 	add.w	r2, r9, r8
 80060a0:	6a2c      	ldr	r4, [r5, #32]
 80060a2:	2301      	movs	r3, #1
 80060a4:	b2c9      	uxtb	r1, r1
 80060a6:	7868      	ldrb	r0, [r5, #1]
 80060a8:	47a0      	blx	r4
 80060aa:	6a6b      	ldr	r3, [r5, #36]	; 0x24
 80060ac:	4604      	mov	r4, r0
 80060ae:	2001      	movs	r0, #1
 80060b0:	4798      	blx	r3
 80060b2:	f108 0301 	add.w	r3, r8, #1
 80060b6:	fa5f f883 	uxtb.w	r8, r3
 80060ba:	45b8      	cmp	r8, r7
 80060bc:	d3ec      	bcc.n	8006098 <bmi160_set_regs+0x54>
 80060be:	e7e2      	b.n	8006086 <bmi160_set_regs+0x42>
 80060c0:	f04f 34ff 	mov.w	r4, #4294967295
 80060c4:	e7e3      	b.n	800608e <bmi160_set_regs+0x4a>
 80060c6:	f06f 040b 	mvn.w	r4, #11
 80060ca:	e7e0      	b.n	800608e <bmi160_set_regs+0x4a>

080060cc <map_feature_interrupt>:
 80060cc:	4a21      	ldr	r2, [pc, #132]	; (8006154 <map_feature_interrupt+0x88>)
 80060ce:	460b      	mov	r3, r1
 80060d0:	b530      	push	{r4, r5, lr}
 80060d2:	8811      	ldrh	r1, [r2, #0]
 80060d4:	b085      	sub	sp, #20
 80060d6:	7892      	ldrb	r2, [r2, #2]
 80060d8:	4605      	mov	r5, r0
 80060da:	f8ad 100c 	strh.w	r1, [sp, #12]
 80060de:	2055      	movs	r0, #85	; 0x55
 80060e0:	f88d 200e 	strb.w	r2, [sp, #14]
 80060e4:	a903      	add	r1, sp, #12
 80060e6:	2203      	movs	r2, #3
 80060e8:	9301      	str	r3, [sp, #4]
 80060ea:	f7ff ff81 	bl	8005ff0 <bmi160_get_regs>
 80060ee:	b9d8      	cbnz	r0, 8006128 <map_feature_interrupt+0x5c>
 80060f0:	4919      	ldr	r1, [pc, #100]	; (8006158 <map_feature_interrupt+0x8c>)
 80060f2:	786a      	ldrb	r2, [r5, #1]
 80060f4:	f89d 400c 	ldrb.w	r4, [sp, #12]
 80060f8:	5c8a      	ldrb	r2, [r1, r2]
 80060fa:	7828      	ldrb	r0, [r5, #0]
 80060fc:	f89d 100e 	ldrb.w	r1, [sp, #14]
 8006100:	ea24 0402 	bic.w	r4, r4, r2
 8006104:	9b01      	ldr	r3, [sp, #4]
 8006106:	ea21 0102 	bic.w	r1, r1, r2
 800610a:	2803      	cmp	r0, #3
 800610c:	d81f      	bhi.n	800614e <map_feature_interrupt+0x82>
 800610e:	e8df f000 	tbb	[pc, r0]
 8006112:	0d02      	.short	0x0d02
 8006114:	1711      	.short	0x1711
 8006116:	f88d 400c 	strb.w	r4, [sp, #12]
 800611a:	f88d 100e 	strb.w	r1, [sp, #14]
 800611e:	2203      	movs	r2, #3
 8006120:	a903      	add	r1, sp, #12
 8006122:	2055      	movs	r0, #85	; 0x55
 8006124:	f7ff ff8e 	bl	8006044 <bmi160_set_regs>
 8006128:	b005      	add	sp, #20
 800612a:	bd30      	pop	{r4, r5, pc}
 800612c:	4322      	orrs	r2, r4
 800612e:	f88d 200c 	strb.w	r2, [sp, #12]
 8006132:	e7f2      	b.n	800611a <map_feature_interrupt+0x4e>
 8006134:	430a      	orrs	r2, r1
 8006136:	f88d 400c 	strb.w	r4, [sp, #12]
 800613a:	f88d 200e 	strb.w	r2, [sp, #14]
 800613e:	e7ee      	b.n	800611e <map_feature_interrupt+0x52>
 8006140:	4314      	orrs	r4, r2
 8006142:	430a      	orrs	r2, r1
 8006144:	f88d 400c 	strb.w	r4, [sp, #12]
 8006148:	f88d 200e 	strb.w	r2, [sp, #14]
 800614c:	e7e7      	b.n	800611e <map_feature_interrupt+0x52>
 800614e:	f06f 0003 	mvn.w	r0, #3
 8006152:	e7e9      	b.n	8006128 <map_feature_interrupt+0x5c>
 8006154:	080076b4 	.word	0x080076b4
 8006158:	08007798 	.word	0x08007798

0800615c <map_hardware_interrupt>:
 800615c:	b530      	push	{r4, r5, lr}
 800615e:	2200      	movs	r2, #0
 8006160:	b085      	sub	sp, #20
 8006162:	4605      	mov	r5, r0
 8006164:	460b      	mov	r3, r1
 8006166:	f88d 200f 	strb.w	r2, [sp, #15]
 800616a:	2056      	movs	r0, #86	; 0x56
 800616c:	9101      	str	r1, [sp, #4]
 800616e:	2201      	movs	r2, #1
 8006170:	f10d 010f 	add.w	r1, sp, #15
 8006174:	f7ff ff3c 	bl	8005ff0 <bmi160_get_regs>
 8006178:	b9d8      	cbnz	r0, 80061b2 <map_hardware_interrupt+0x56>
 800617a:	786a      	ldrb	r2, [r5, #1]
 800617c:	4911      	ldr	r1, [pc, #68]	; (80061c4 <map_hardware_interrupt+0x68>)
 800617e:	7828      	ldrb	r0, [r5, #0]
 8006180:	5c8c      	ldrb	r4, [r1, r2]
 8006182:	f89d 200f 	ldrb.w	r2, [sp, #15]
 8006186:	0121      	lsls	r1, r4, #4
 8006188:	9b01      	ldr	r3, [sp, #4]
 800618a:	ea22 0204 	bic.w	r2, r2, r4
 800618e:	b2c9      	uxtb	r1, r1
 8006190:	ea22 0201 	bic.w	r2, r2, r1
 8006194:	2803      	cmp	r0, #3
 8006196:	d811      	bhi.n	80061bc <map_hardware_interrupt+0x60>
 8006198:	e8df f000 	tbb	[pc, r0]
 800619c:	0d0e0203 	.word	0x0d0e0203
 80061a0:	430a      	orrs	r2, r1
 80061a2:	f88d 200f 	strb.w	r2, [sp, #15]
 80061a6:	f10d 010f 	add.w	r1, sp, #15
 80061aa:	2201      	movs	r2, #1
 80061ac:	2056      	movs	r0, #86	; 0x56
 80061ae:	f7ff ff49 	bl	8006044 <bmi160_set_regs>
 80061b2:	b005      	add	sp, #20
 80061b4:	bd30      	pop	{r4, r5, pc}
 80061b6:	430c      	orrs	r4, r1
 80061b8:	4322      	orrs	r2, r4
 80061ba:	e7f2      	b.n	80061a2 <map_hardware_interrupt+0x46>
 80061bc:	f06f 0003 	mvn.w	r0, #3
 80061c0:	e7f7      	b.n	80061b2 <map_hardware_interrupt+0x56>
 80061c2:	bf00      	nop
 80061c4:	08007798 	.word	0x08007798

080061c8 <set_intr_pin_config>:
 80061c8:	b5f0      	push	{r4, r5, r6, r7, lr}
 80061ca:	2200      	movs	r2, #0
 80061cc:	b085      	sub	sp, #20
 80061ce:	4604      	mov	r4, r0
 80061d0:	460b      	mov	r3, r1
 80061d2:	f88d 200f 	strb.w	r2, [sp, #15]
 80061d6:	2053      	movs	r0, #83	; 0x53
 80061d8:	9101      	str	r1, [sp, #4]
 80061da:	2201      	movs	r2, #1
 80061dc:	f10d 010f 	add.w	r1, sp, #15
 80061e0:	f7ff ff06 	bl	8005ff0 <bmi160_get_regs>
 80061e4:	2800      	cmp	r0, #0
 80061e6:	d151      	bne.n	800628c <set_intr_pin_config+0xc4>
 80061e8:	7827      	ldrb	r7, [r4, #0]
 80061ea:	78a1      	ldrb	r1, [r4, #2]
 80061ec:	2f01      	cmp	r7, #1
 80061ee:	f89d 200f 	ldrb.w	r2, [sp, #15]
 80061f2:	f001 0601 	and.w	r6, r1, #1
 80061f6:	f3c1 0540 	ubfx	r5, r1, #1, #1
 80061fa:	f3c1 0080 	ubfx	r0, r1, #2, #1
 80061fe:	9b01      	ldr	r3, [sp, #4]
 8006200:	f3c1 01c0 	ubfx	r1, r1, #3, #1
 8006204:	d144      	bne.n	8006290 <set_intr_pin_config+0xc8>
 8006206:	f022 0208 	bic.w	r2, r2, #8
 800620a:	ea42 02c6 	orr.w	r2, r2, r6, lsl #3
 800620e:	f022 0204 	bic.w	r2, r2, #4
 8006212:	ea42 0285 	orr.w	r2, r2, r5, lsl #2
 8006216:	f022 0202 	bic.w	r2, r2, #2
 800621a:	ea42 0240 	orr.w	r2, r2, r0, lsl #1
 800621e:	f022 0201 	bic.w	r2, r2, #1
 8006222:	4311      	orrs	r1, r2
 8006224:	f88d 100f 	strb.w	r1, [sp, #15]
 8006228:	2201      	movs	r2, #1
 800622a:	f10d 010f 	add.w	r1, sp, #15
 800622e:	2053      	movs	r0, #83	; 0x53
 8006230:	9301      	str	r3, [sp, #4]
 8006232:	f7ff ff07 	bl	8006044 <bmi160_set_regs>
 8006236:	bb48      	cbnz	r0, 800628c <set_intr_pin_config+0xc4>
 8006238:	f88d 000f 	strb.w	r0, [sp, #15]
 800623c:	2201      	movs	r2, #1
 800623e:	9b01      	ldr	r3, [sp, #4]
 8006240:	f10d 010f 	add.w	r1, sp, #15
 8006244:	2054      	movs	r0, #84	; 0x54
 8006246:	f7ff fed3 	bl	8005ff0 <bmi160_get_regs>
 800624a:	b9f8      	cbnz	r0, 800628c <set_intr_pin_config+0xc4>
 800624c:	7820      	ldrb	r0, [r4, #0]
 800624e:	f89d 100f 	ldrb.w	r1, [sp, #15]
 8006252:	2801      	cmp	r0, #1
 8006254:	78a2      	ldrb	r2, [r4, #2]
 8006256:	9b01      	ldr	r3, [sp, #4]
 8006258:	f04f 0054 	mov.w	r0, #84	; 0x54
 800625c:	f3c2 1200 	ubfx	r2, r2, #4, #1
 8006260:	bf0b      	itete	eq
 8006262:	f021 0110 	biceq.w	r1, r1, #16
 8006266:	f021 0120 	bicne.w	r1, r1, #32
 800626a:	ea41 1202 	orreq.w	r2, r1, r2, lsl #4
 800626e:	ea41 1242 	orrne.w	r2, r1, r2, lsl #5
 8006272:	8861      	ldrh	r1, [r4, #2]
 8006274:	f022 020f 	bic.w	r2, r2, #15
 8006278:	f3c1 1143 	ubfx	r1, r1, #5, #4
 800627c:	430a      	orrs	r2, r1
 800627e:	f10d 010f 	add.w	r1, sp, #15
 8006282:	f88d 200f 	strb.w	r2, [sp, #15]
 8006286:	2201      	movs	r2, #1
 8006288:	f7ff fedc 	bl	8006044 <bmi160_set_regs>
 800628c:	b005      	add	sp, #20
 800628e:	bdf0      	pop	{r4, r5, r6, r7, pc}
 8006290:	f002 027f 	and.w	r2, r2, #127	; 0x7f
 8006294:	ea42 12c6 	orr.w	r2, r2, r6, lsl #7
 8006298:	f022 0240 	bic.w	r2, r2, #64	; 0x40
 800629c:	ea42 1285 	orr.w	r2, r2, r5, lsl #6
 80062a0:	f022 0220 	bic.w	r2, r2, #32
 80062a4:	ea42 1240 	orr.w	r2, r2, r0, lsl #5
 80062a8:	f022 0210 	bic.w	r2, r2, #16
 80062ac:	ea42 1101 	orr.w	r1, r2, r1, lsl #4
 80062b0:	e7b8      	b.n	8006224 <set_intr_pin_config+0x5c>
	...

080062b4 <bmi160_soft_reset>:
 80062b4:	23b6      	movs	r3, #182	; 0xb6
 80062b6:	b537      	push	{r0, r1, r2, r4, r5, lr}
 80062b8:	4604      	mov	r4, r0
 80062ba:	f88d 3007 	strb.w	r3, [sp, #7]
 80062be:	b318      	cbz	r0, 8006308 <bmi160_soft_reset+0x54>
 80062c0:	6a43      	ldr	r3, [r0, #36]	; 0x24
 80062c2:	b30b      	cbz	r3, 8006308 <bmi160_soft_reset+0x54>
 80062c4:	4603      	mov	r3, r0
 80062c6:	2201      	movs	r2, #1
 80062c8:	f10d 0107 	add.w	r1, sp, #7
 80062cc:	207e      	movs	r0, #126	; 0x7e
 80062ce:	f7ff feb9 	bl	8006044 <bmi160_set_regs>
 80062d2:	4605      	mov	r5, r0
 80062d4:	6a63      	ldr	r3, [r4, #36]	; 0x24
 80062d6:	2001      	movs	r0, #1
 80062d8:	4798      	blx	r3
 80062da:	b945      	cbnz	r5, 80062ee <bmi160_soft_reset+0x3a>
 80062dc:	78a2      	ldrb	r2, [r4, #2]
 80062de:	2a01      	cmp	r2, #1
 80062e0:	d008      	beq.n	80062f4 <bmi160_soft_reset+0x40>
 80062e2:	4a0b      	ldr	r2, [pc, #44]	; (8006310 <bmi160_soft_reset+0x5c>)
 80062e4:	4b0b      	ldr	r3, [pc, #44]	; (8006314 <bmi160_soft_reset+0x60>)
 80062e6:	6062      	str	r2, [r4, #4]
 80062e8:	6123      	str	r3, [r4, #16]
 80062ea:	e9c4 2302 	strd	r2, r3, [r4, #8]
 80062ee:	4628      	mov	r0, r5
 80062f0:	b003      	add	sp, #12
 80062f2:	bd30      	pop	{r4, r5, pc}
 80062f4:	4623      	mov	r3, r4
 80062f6:	f10d 0107 	add.w	r1, sp, #7
 80062fa:	207f      	movs	r0, #127	; 0x7f
 80062fc:	f7ff fe78 	bl	8005ff0 <bmi160_get_regs>
 8006300:	2800      	cmp	r0, #0
 8006302:	d0ee      	beq.n	80062e2 <bmi160_soft_reset+0x2e>
 8006304:	4605      	mov	r5, r0
 8006306:	e7f2      	b.n	80062ee <bmi160_soft_reset+0x3a>
 8006308:	f04f 35ff 	mov.w	r5, #4294967295
 800630c:	e7ef      	b.n	80062ee <bmi160_soft_reset+0x3a>
 800630e:	bf00      	nop
 8006310:	02030810 	.word	0x02030810
 8006314:	02000814 	.word	0x02000814

08006318 <bmi160_init>:
 8006318:	b573      	push	{r0, r1, r4, r5, r6, lr}
 800631a:	4606      	mov	r6, r0
 800631c:	f7ff fe5a 	bl	8005fd4 <null_ptr_check>
 8006320:	4604      	mov	r4, r0
 8006322:	b9c8      	cbnz	r0, 8006358 <bmi160_init+0x40>
 8006324:	78b2      	ldrb	r2, [r6, #2]
 8006326:	2a01      	cmp	r2, #1
 8006328:	d00d      	beq.n	8006346 <bmi160_init+0x2e>
 800632a:	2300      	movs	r3, #0
 800632c:	2504      	movs	r5, #4
 800632e:	7033      	strb	r3, [r6, #0]
 8006330:	3d01      	subs	r5, #1
 8006332:	f015 05ff 	ands.w	r5, r5, #255	; 0xff
 8006336:	d01a      	beq.n	800636e <bmi160_init+0x56>
 8006338:	7833      	ldrb	r3, [r6, #0]
 800633a:	2bd1      	cmp	r3, #209	; 0xd1
 800633c:	d10f      	bne.n	800635e <bmi160_init+0x46>
 800633e:	b1dc      	cbz	r4, 8006378 <bmi160_init+0x60>
 8006340:	f06f 0402 	mvn.w	r4, #2
 8006344:	e008      	b.n	8006358 <bmi160_init+0x40>
 8006346:	4633      	mov	r3, r6
 8006348:	f10d 0107 	add.w	r1, sp, #7
 800634c:	207f      	movs	r0, #127	; 0x7f
 800634e:	f7ff fe4f 	bl	8005ff0 <bmi160_get_regs>
 8006352:	2800      	cmp	r0, #0
 8006354:	d0e9      	beq.n	800632a <bmi160_init+0x12>
 8006356:	4604      	mov	r4, r0
 8006358:	4620      	mov	r0, r4
 800635a:	b002      	add	sp, #8
 800635c:	bd70      	pop	{r4, r5, r6, pc}
 800635e:	4633      	mov	r3, r6
 8006360:	2201      	movs	r2, #1
 8006362:	4631      	mov	r1, r6
 8006364:	2000      	movs	r0, #0
 8006366:	f7ff fe43 	bl	8005ff0 <bmi160_get_regs>
 800636a:	4604      	mov	r4, r0
 800636c:	e7e0      	b.n	8006330 <bmi160_init+0x18>
 800636e:	2c00      	cmp	r4, #0
 8006370:	d1e6      	bne.n	8006340 <bmi160_init+0x28>
 8006372:	7833      	ldrb	r3, [r6, #0]
 8006374:	2bd1      	cmp	r3, #209	; 0xd1
 8006376:	d1e3      	bne.n	8006340 <bmi160_init+0x28>
 8006378:	23ff      	movs	r3, #255	; 0xff
 800637a:	4630      	mov	r0, r6
 800637c:	70f3      	strb	r3, [r6, #3]
 800637e:	f7ff ff99 	bl	80062b4 <bmi160_soft_reset>
 8006382:	e7e8      	b.n	8006356 <bmi160_init+0x3e>

08006384 <bmi160_set_power_mode>:
 8006384:	b537      	push	{r0, r1, r2, r4, r5, lr}
 8006386:	4605      	mov	r5, r0
 8006388:	2800      	cmp	r0, #0
 800638a:	d077      	beq.n	800647c <bmi160_set_power_mode+0xf8>
 800638c:	6a43      	ldr	r3, [r0, #36]	; 0x24
 800638e:	2b00      	cmp	r3, #0
 8006390:	d074      	beq.n	800647c <bmi160_set_power_mode+0xf8>
 8006392:	7902      	ldrb	r2, [r0, #4]
 8006394:	2300      	movs	r3, #0
 8006396:	f1a2 0110 	sub.w	r1, r2, #16
 800639a:	f88d 3003 	strb.w	r3, [sp, #3]
 800639e:	2902      	cmp	r1, #2
 80063a0:	d902      	bls.n	80063a8 <bmi160_set_power_mode+0x24>
 80063a2:	f06f 040c 	mvn.w	r4, #12
 80063a6:	e052      	b.n	800644e <bmi160_set_power_mode+0xca>
 80063a8:	7a01      	ldrb	r1, [r0, #8]
 80063aa:	4291      	cmp	r1, r2
 80063ac:	d035      	beq.n	800641a <bmi160_set_power_mode+0x96>
 80063ae:	f8ad 3004 	strh.w	r3, [sp, #4]
 80063b2:	2201      	movs	r2, #1
 80063b4:	4603      	mov	r3, r0
 80063b6:	f10d 0103 	add.w	r1, sp, #3
 80063ba:	2040      	movs	r0, #64	; 0x40
 80063bc:	f7ff fe18 	bl	8005ff0 <bmi160_get_regs>
 80063c0:	4604      	mov	r4, r0
 80063c2:	2800      	cmp	r0, #0
 80063c4:	d143      	bne.n	800644e <bmi160_set_power_mode+0xca>
 80063c6:	792a      	ldrb	r2, [r5, #4]
 80063c8:	f89d 3003 	ldrb.w	r3, [sp, #3]
 80063cc:	2a12      	cmp	r2, #18
 80063ce:	d141      	bne.n	8006454 <bmi160_set_power_mode+0xd0>
 80063d0:	f063 037f 	orn	r3, r3, #127	; 0x7f
 80063d4:	2201      	movs	r2, #1
 80063d6:	f10d 0103 	add.w	r1, sp, #3
 80063da:	2040      	movs	r0, #64	; 0x40
 80063dc:	f88d 3003 	strb.w	r3, [sp, #3]
 80063e0:	462b      	mov	r3, r5
 80063e2:	f7ff fe2f 	bl	8006044 <bmi160_set_regs>
 80063e6:	4604      	mov	r4, r0
 80063e8:	bb88      	cbnz	r0, 800644e <bmi160_set_power_mode+0xca>
 80063ea:	462b      	mov	r3, r5
 80063ec:	2202      	movs	r2, #2
 80063ee:	a901      	add	r1, sp, #4
 80063f0:	2058      	movs	r0, #88	; 0x58
 80063f2:	f7ff fe27 	bl	8006044 <bmi160_set_regs>
 80063f6:	4604      	mov	r4, r0
 80063f8:	bb48      	cbnz	r0, 800644e <bmi160_set_power_mode+0xca>
 80063fa:	462b      	mov	r3, r5
 80063fc:	2201      	movs	r2, #1
 80063fe:	1d29      	adds	r1, r5, #4
 8006400:	207e      	movs	r0, #126	; 0x7e
 8006402:	f7ff fe1f 	bl	8006044 <bmi160_set_regs>
 8006406:	7a2b      	ldrb	r3, [r5, #8]
 8006408:	4604      	mov	r4, r0
 800640a:	2b10      	cmp	r3, #16
 800640c:	d102      	bne.n	8006414 <bmi160_set_power_mode+0x90>
 800640e:	6a6b      	ldr	r3, [r5, #36]	; 0x24
 8006410:	2005      	movs	r0, #5
 8006412:	4798      	blx	r3
 8006414:	792b      	ldrb	r3, [r5, #4]
 8006416:	722b      	strb	r3, [r5, #8]
 8006418:	b9cc      	cbnz	r4, 800644e <bmi160_set_power_mode+0xca>
 800641a:	7b2b      	ldrb	r3, [r5, #12]
 800641c:	f1a3 0214 	sub.w	r2, r3, #20
 8006420:	2a01      	cmp	r2, #1
 8006422:	d901      	bls.n	8006428 <bmi160_set_power_mode+0xa4>
 8006424:	2b17      	cmp	r3, #23
 8006426:	d1bc      	bne.n	80063a2 <bmi160_set_power_mode+0x1e>
 8006428:	7c2a      	ldrb	r2, [r5, #16]
 800642a:	429a      	cmp	r2, r3
 800642c:	d029      	beq.n	8006482 <bmi160_set_power_mode+0xfe>
 800642e:	462b      	mov	r3, r5
 8006430:	2201      	movs	r2, #1
 8006432:	f105 010c 	add.w	r1, r5, #12
 8006436:	207e      	movs	r0, #126	; 0x7e
 8006438:	f7ff fe04 	bl	8006044 <bmi160_set_regs>
 800643c:	7c2b      	ldrb	r3, [r5, #16]
 800643e:	4604      	mov	r4, r0
 8006440:	2b14      	cmp	r3, #20
 8006442:	d113      	bne.n	800646c <bmi160_set_power_mode+0xe8>
 8006444:	6a6b      	ldr	r3, [r5, #36]	; 0x24
 8006446:	2050      	movs	r0, #80	; 0x50
 8006448:	4798      	blx	r3
 800644a:	7b2b      	ldrb	r3, [r5, #12]
 800644c:	742b      	strb	r3, [r5, #16]
 800644e:	4620      	mov	r0, r4
 8006450:	b003      	add	sp, #12
 8006452:	bd30      	pop	{r4, r5, pc}
 8006454:	061a      	lsls	r2, r3, #24
 8006456:	d5d0      	bpl.n	80063fa <bmi160_set_power_mode+0x76>
 8006458:	f003 037f 	and.w	r3, r3, #127	; 0x7f
 800645c:	2201      	movs	r2, #1
 800645e:	f10d 0103 	add.w	r1, sp, #3
 8006462:	2040      	movs	r0, #64	; 0x40
 8006464:	f88d 3003 	strb.w	r3, [sp, #3]
 8006468:	462b      	mov	r3, r5
 800646a:	e7c2      	b.n	80063f2 <bmi160_set_power_mode+0x6e>
 800646c:	2b17      	cmp	r3, #23
 800646e:	d1ec      	bne.n	800644a <bmi160_set_power_mode+0xc6>
 8006470:	7b2b      	ldrb	r3, [r5, #12]
 8006472:	2b15      	cmp	r3, #21
 8006474:	d1e9      	bne.n	800644a <bmi160_set_power_mode+0xc6>
 8006476:	6a6b      	ldr	r3, [r5, #36]	; 0x24
 8006478:	200a      	movs	r0, #10
 800647a:	e7e5      	b.n	8006448 <bmi160_set_power_mode+0xc4>
 800647c:	f04f 34ff 	mov.w	r4, #4294967295
 8006480:	e7e5      	b.n	800644e <bmi160_set_power_mode+0xca>
 8006482:	2400      	movs	r4, #0
 8006484:	e7e3      	b.n	800644e <bmi160_set_power_mode+0xca>

08006486 <bmi160_set_sens_conf>:
 8006486:	b513      	push	{r0, r1, r4, lr}
 8006488:	4604      	mov	r4, r0
 800648a:	2800      	cmp	r0, #0
 800648c:	f000 80c4 	beq.w	8006618 <bmi160_set_sens_conf+0x192>
 8006490:	6a43      	ldr	r3, [r0, #36]	; 0x24
 8006492:	2b00      	cmp	r3, #0
 8006494:	f000 80c0 	beq.w	8006618 <bmi160_set_sens_conf+0x192>
 8006498:	2300      	movs	r3, #0
 800649a:	2202      	movs	r2, #2
 800649c:	a901      	add	r1, sp, #4
 800649e:	f8ad 3004 	strh.w	r3, [sp, #4]
 80064a2:	4603      	mov	r3, r0
 80064a4:	2040      	movs	r0, #64	; 0x40
 80064a6:	f7ff fda3 	bl	8005ff0 <bmi160_get_regs>
 80064aa:	b920      	cbnz	r0, 80064b6 <bmi160_set_sens_conf+0x30>
 80064ac:	7963      	ldrb	r3, [r4, #5]
 80064ae:	2b0c      	cmp	r3, #12
 80064b0:	d903      	bls.n	80064ba <bmi160_set_sens_conf+0x34>
 80064b2:	f06f 0003 	mvn.w	r0, #3
 80064b6:	b002      	add	sp, #8
 80064b8:	bd10      	pop	{r4, pc}
 80064ba:	7a62      	ldrb	r2, [r4, #9]
 80064bc:	429a      	cmp	r2, r3
 80064be:	bf1e      	ittt	ne
 80064c0:	f89d 2004 	ldrbne.w	r2, [sp, #4]
 80064c4:	f022 020f 	bicne.w	r2, r2, #15
 80064c8:	4313      	orrne	r3, r2
 80064ca:	79e2      	ldrb	r2, [r4, #7]
 80064cc:	bf18      	it	ne
 80064ce:	f88d 3004 	strbne.w	r3, [sp, #4]
 80064d2:	2a07      	cmp	r2, #7
 80064d4:	d8ed      	bhi.n	80064b2 <bmi160_set_sens_conf+0x2c>
 80064d6:	7ae3      	ldrb	r3, [r4, #11]
 80064d8:	4293      	cmp	r3, r2
 80064da:	bf1f      	itttt	ne
 80064dc:	f89d 3004 	ldrbne.w	r3, [sp, #4]
 80064e0:	f023 0370 	bicne.w	r3, r3, #112	; 0x70
 80064e4:	ea43 1302 	orrne.w	r3, r3, r2, lsl #4
 80064e8:	f88d 3004 	strbne.w	r3, [sp, #4]
 80064ec:	79a3      	ldrb	r3, [r4, #6]
 80064ee:	2b0c      	cmp	r3, #12
 80064f0:	d8df      	bhi.n	80064b2 <bmi160_set_sens_conf+0x2c>
 80064f2:	7aa2      	ldrb	r2, [r4, #10]
 80064f4:	a901      	add	r1, sp, #4
 80064f6:	2040      	movs	r0, #64	; 0x40
 80064f8:	429a      	cmp	r2, r3
 80064fa:	bf1e      	ittt	ne
 80064fc:	f89d 2005 	ldrbne.w	r2, [sp, #5]
 8006500:	f022 020f 	bicne.w	r2, r2, #15
 8006504:	4313      	orrne	r3, r2
 8006506:	f04f 0201 	mov.w	r2, #1
 800650a:	bf18      	it	ne
 800650c:	f88d 3005 	strbne.w	r3, [sp, #5]
 8006510:	4623      	mov	r3, r4
 8006512:	f7ff fd97 	bl	8006044 <bmi160_set_regs>
 8006516:	2800      	cmp	r0, #0
 8006518:	d1cd      	bne.n	80064b6 <bmi160_set_sens_conf+0x30>
 800651a:	7963      	ldrb	r3, [r4, #5]
 800651c:	2201      	movs	r2, #1
 800651e:	f10d 0105 	add.w	r1, sp, #5
 8006522:	2041      	movs	r0, #65	; 0x41
 8006524:	7263      	strb	r3, [r4, #9]
 8006526:	79e3      	ldrb	r3, [r4, #7]
 8006528:	72e3      	strb	r3, [r4, #11]
 800652a:	4623      	mov	r3, r4
 800652c:	f7ff fd8a 	bl	8006044 <bmi160_set_regs>
 8006530:	2800      	cmp	r0, #0
 8006532:	d1c0      	bne.n	80064b6 <bmi160_set_sens_conf+0x30>
 8006534:	79a2      	ldrb	r2, [r4, #6]
 8006536:	4623      	mov	r3, r4
 8006538:	f8ad 0004 	strh.w	r0, [sp, #4]
 800653c:	a901      	add	r1, sp, #4
 800653e:	72a2      	strb	r2, [r4, #10]
 8006540:	2042      	movs	r0, #66	; 0x42
 8006542:	2202      	movs	r2, #2
 8006544:	f7ff fd54 	bl	8005ff0 <bmi160_get_regs>
 8006548:	2800      	cmp	r0, #0
 800654a:	d1b4      	bne.n	80064b6 <bmi160_set_sens_conf+0x30>
 800654c:	7b63      	ldrb	r3, [r4, #13]
 800654e:	2b0d      	cmp	r3, #13
 8006550:	d8af      	bhi.n	80064b2 <bmi160_set_sens_conf+0x2c>
 8006552:	7c62      	ldrb	r2, [r4, #17]
 8006554:	429a      	cmp	r2, r3
 8006556:	bf1e      	ittt	ne
 8006558:	f89d 2004 	ldrbne.w	r2, [sp, #4]
 800655c:	f022 020f 	bicne.w	r2, r2, #15
 8006560:	4313      	orrne	r3, r2
 8006562:	7be2      	ldrb	r2, [r4, #15]
 8006564:	bf18      	it	ne
 8006566:	f88d 3004 	strbne.w	r3, [sp, #4]
 800656a:	2a02      	cmp	r2, #2
 800656c:	d8a1      	bhi.n	80064b2 <bmi160_set_sens_conf+0x2c>
 800656e:	f89d 3004 	ldrb.w	r3, [sp, #4]
 8006572:	f023 0330 	bic.w	r3, r3, #48	; 0x30
 8006576:	ea43 1302 	orr.w	r3, r3, r2, lsl #4
 800657a:	f88d 3004 	strb.w	r3, [sp, #4]
 800657e:	7ba3      	ldrb	r3, [r4, #14]
 8006580:	2b04      	cmp	r3, #4
 8006582:	d896      	bhi.n	80064b2 <bmi160_set_sens_conf+0x2c>
 8006584:	7ca2      	ldrb	r2, [r4, #18]
 8006586:	a901      	add	r1, sp, #4
 8006588:	2042      	movs	r0, #66	; 0x42
 800658a:	429a      	cmp	r2, r3
 800658c:	bf1e      	ittt	ne
 800658e:	f89d 2005 	ldrbne.w	r2, [sp, #5]
 8006592:	f022 0207 	bicne.w	r2, r2, #7
 8006596:	4313      	orrne	r3, r2
 8006598:	f04f 0201 	mov.w	r2, #1
 800659c:	bf18      	it	ne
 800659e:	f88d 3005 	strbne.w	r3, [sp, #5]
 80065a2:	4623      	mov	r3, r4
 80065a4:	f7ff fd4e 	bl	8006044 <bmi160_set_regs>
 80065a8:	2800      	cmp	r0, #0
 80065aa:	d184      	bne.n	80064b6 <bmi160_set_sens_conf+0x30>
 80065ac:	7b63      	ldrb	r3, [r4, #13]
 80065ae:	2201      	movs	r2, #1
 80065b0:	f10d 0105 	add.w	r1, sp, #5
 80065b4:	2043      	movs	r0, #67	; 0x43
 80065b6:	7463      	strb	r3, [r4, #17]
 80065b8:	7be3      	ldrb	r3, [r4, #15]
 80065ba:	74e3      	strb	r3, [r4, #19]
 80065bc:	4623      	mov	r3, r4
 80065be:	f7ff fd41 	bl	8006044 <bmi160_set_regs>
 80065c2:	2800      	cmp	r0, #0
 80065c4:	f47f af77 	bne.w	80064b6 <bmi160_set_sens_conf+0x30>
 80065c8:	7ba3      	ldrb	r3, [r4, #14]
 80065ca:	4620      	mov	r0, r4
 80065cc:	74a3      	strb	r3, [r4, #18]
 80065ce:	f7ff fed9 	bl	8006384 <bmi160_set_power_mode>
 80065d2:	2800      	cmp	r0, #0
 80065d4:	f47f af6f 	bne.w	80064b6 <bmi160_set_sens_conf+0x30>
 80065d8:	4623      	mov	r3, r4
 80065da:	f88d 0004 	strb.w	r0, [sp, #4]
 80065de:	2201      	movs	r2, #1
 80065e0:	a901      	add	r1, sp, #4
 80065e2:	2002      	movs	r0, #2
 80065e4:	f7ff fd04 	bl	8005ff0 <bmi160_get_regs>
 80065e8:	f89d 3004 	ldrb.w	r3, [sp, #4]
 80065ec:	f3c3 0343 	ubfx	r3, r3, #1, #4
 80065f0:	2b01      	cmp	r3, #1
 80065f2:	d008      	beq.n	8006606 <bmi160_set_sens_conf+0x180>
 80065f4:	2b02      	cmp	r3, #2
 80065f6:	d009      	beq.n	800660c <bmi160_set_sens_conf+0x186>
 80065f8:	2b03      	cmp	r3, #3
 80065fa:	d00a      	beq.n	8006612 <bmi160_set_sens_conf+0x18c>
 80065fc:	2b07      	cmp	r3, #7
 80065fe:	bf08      	it	eq
 8006600:	f06f 0008 	mvneq.w	r0, #8
 8006604:	e757      	b.n	80064b6 <bmi160_set_sens_conf+0x30>
 8006606:	f06f 0005 	mvn.w	r0, #5
 800660a:	e754      	b.n	80064b6 <bmi160_set_sens_conf+0x30>
 800660c:	f06f 0006 	mvn.w	r0, #6
 8006610:	e751      	b.n	80064b6 <bmi160_set_sens_conf+0x30>
 8006612:	f06f 0007 	mvn.w	r0, #7
 8006616:	e74e      	b.n	80064b6 <bmi160_set_sens_conf+0x30>
 8006618:	f04f 30ff 	mov.w	r0, #4294967295
 800661c:	e74b      	b.n	80064b6 <bmi160_set_sens_conf+0x30>

0800661e <bmi160_get_sensor_data>:
 800661e:	f010 0f04 	tst.w	r0, #4
 8006622:	b57f      	push	{r0, r1, r2, r3, r4, r5, r6, lr}
 8006624:	4614      	mov	r4, r2
 8006626:	460d      	mov	r5, r1
 8006628:	f000 0203 	and.w	r2, r0, #3
 800662c:	bf0c      	ite	eq
 800662e:	2600      	moveq	r6, #0
 8006630:	2603      	movne	r6, #3
 8006632:	2b00      	cmp	r3, #0
 8006634:	f000 808f 	beq.w	8006756 <bmi160_get_sensor_data+0x138>
 8006638:	2a02      	cmp	r2, #2
 800663a:	d029      	beq.n	8006690 <bmi160_get_sensor_data+0x72>
 800663c:	2a03      	cmp	r2, #3
 800663e:	d059      	beq.n	80066f4 <bmi160_get_sensor_data+0xd6>
 8006640:	2a01      	cmp	r2, #1
 8006642:	f040 8085 	bne.w	8006750 <bmi160_get_sensor_data+0x132>
 8006646:	2900      	cmp	r1, #0
 8006648:	f000 8085 	beq.w	8006756 <bmi160_get_sensor_data+0x138>
 800664c:	2200      	movs	r2, #0
 800664e:	4669      	mov	r1, sp
 8006650:	2012      	movs	r0, #18
 8006652:	f88d 2008 	strb.w	r2, [sp, #8]
 8006656:	e9cd 2200 	strd	r2, r2, [sp]
 800665a:	1db2      	adds	r2, r6, #6
 800665c:	f7ff fcc8 	bl	8005ff0 <bmi160_get_regs>
 8006660:	bb28      	cbnz	r0, 80066ae <bmi160_get_sensor_data+0x90>
 8006662:	9b00      	ldr	r3, [sp, #0]
 8006664:	2e03      	cmp	r6, #3
 8006666:	602b      	str	r3, [r5, #0]
 8006668:	f8bd 3004 	ldrh.w	r3, [sp, #4]
 800666c:	bf08      	it	eq
 800666e:	f89d 2008 	ldrbeq.w	r2, [sp, #8]
 8006672:	80ab      	strh	r3, [r5, #4]
 8006674:	bf09      	itett	eq
 8006676:	f89d 3007 	ldrbeq.w	r3, [sp, #7]
 800667a:	60a8      	strne	r0, [r5, #8]
 800667c:	021b      	lsleq	r3, r3, #8
 800667e:	ea43 4302 	orreq.w	r3, r3, r2, lsl #16
 8006682:	bf02      	ittt	eq
 8006684:	f89d 2006 	ldrbeq.w	r2, [sp, #6]
 8006688:	4313      	orreq	r3, r2
 800668a:	60ab      	streq	r3, [r5, #8]
 800668c:	b004      	add	sp, #16
 800668e:	bd70      	pop	{r4, r5, r6, pc}
 8006690:	2c00      	cmp	r4, #0
 8006692:	d060      	beq.n	8006756 <bmi160_get_sensor_data+0x138>
 8006694:	2200      	movs	r2, #0
 8006696:	9202      	str	r2, [sp, #8]
 8006698:	f8cd 200b 	str.w	r2, [sp, #11]
 800669c:	e9cd 2200 	strd	r2, r2, [sp]
 80066a0:	b97e      	cbnz	r6, 80066c2 <bmi160_get_sensor_data+0xa4>
 80066a2:	2206      	movs	r2, #6
 80066a4:	4669      	mov	r1, sp
 80066a6:	200c      	movs	r0, #12
 80066a8:	f7ff fca2 	bl	8005ff0 <bmi160_get_regs>
 80066ac:	b110      	cbz	r0, 80066b4 <bmi160_get_sensor_data+0x96>
 80066ae:	f06f 0001 	mvn.w	r0, #1
 80066b2:	e7eb      	b.n	800668c <bmi160_get_sensor_data+0x6e>
 80066b4:	9b00      	ldr	r3, [sp, #0]
 80066b6:	6023      	str	r3, [r4, #0]
 80066b8:	f8bd 3004 	ldrh.w	r3, [sp, #4]
 80066bc:	80a3      	strh	r3, [r4, #4]
 80066be:	60a0      	str	r0, [r4, #8]
 80066c0:	e7e4      	b.n	800668c <bmi160_get_sensor_data+0x6e>
 80066c2:	f106 020c 	add.w	r2, r6, #12
 80066c6:	4669      	mov	r1, sp
 80066c8:	200c      	movs	r0, #12
 80066ca:	f7ff fc91 	bl	8005ff0 <bmi160_get_regs>
 80066ce:	2800      	cmp	r0, #0
 80066d0:	d1ed      	bne.n	80066ae <bmi160_get_sensor_data+0x90>
 80066d2:	9b00      	ldr	r3, [sp, #0]
 80066d4:	f89d 200e 	ldrb.w	r2, [sp, #14]
 80066d8:	6023      	str	r3, [r4, #0]
 80066da:	f8bd 3004 	ldrh.w	r3, [sp, #4]
 80066de:	80a3      	strh	r3, [r4, #4]
 80066e0:	f89d 300d 	ldrb.w	r3, [sp, #13]
 80066e4:	021b      	lsls	r3, r3, #8
 80066e6:	ea43 4302 	orr.w	r3, r3, r2, lsl #16
 80066ea:	f89d 200c 	ldrb.w	r2, [sp, #12]
 80066ee:	4313      	orrs	r3, r2
 80066f0:	60a3      	str	r3, [r4, #8]
 80066f2:	e7cb      	b.n	800668c <bmi160_get_sensor_data+0x6e>
 80066f4:	b37c      	cbz	r4, 8006756 <bmi160_get_sensor_data+0x138>
 80066f6:	b371      	cbz	r1, 8006756 <bmi160_get_sensor_data+0x138>
 80066f8:	2200      	movs	r2, #0
 80066fa:	4669      	mov	r1, sp
 80066fc:	200c      	movs	r0, #12
 80066fe:	9202      	str	r2, [sp, #8]
 8006700:	f8cd 200b 	str.w	r2, [sp, #11]
 8006704:	e9cd 2200 	strd	r2, r2, [sp]
 8006708:	f106 020c 	add.w	r2, r6, #12
 800670c:	f7ff fc70 	bl	8005ff0 <bmi160_get_regs>
 8006710:	2800      	cmp	r0, #0
 8006712:	d1cc      	bne.n	80066ae <bmi160_get_sensor_data+0x90>
 8006714:	9b00      	ldr	r3, [sp, #0]
 8006716:	2e03      	cmp	r6, #3
 8006718:	6023      	str	r3, [r4, #0]
 800671a:	f8bd 3004 	ldrh.w	r3, [sp, #4]
 800671e:	80a3      	strh	r3, [r4, #4]
 8006720:	f8bd 3006 	ldrh.w	r3, [sp, #6]
 8006724:	802b      	strh	r3, [r5, #0]
 8006726:	f8bd 3008 	ldrh.w	r3, [sp, #8]
 800672a:	806b      	strh	r3, [r5, #2]
 800672c:	f8bd 300a 	ldrh.w	r3, [sp, #10]
 8006730:	80ab      	strh	r3, [r5, #4]
 8006732:	d10b      	bne.n	800674c <bmi160_get_sensor_data+0x12e>
 8006734:	f89d 300d 	ldrb.w	r3, [sp, #13]
 8006738:	f89d 200e 	ldrb.w	r2, [sp, #14]
 800673c:	021b      	lsls	r3, r3, #8
 800673e:	ea43 4302 	orr.w	r3, r3, r2, lsl #16
 8006742:	f89d 200c 	ldrb.w	r2, [sp, #12]
 8006746:	4313      	orrs	r3, r2
 8006748:	60ab      	str	r3, [r5, #8]
 800674a:	e7d1      	b.n	80066f0 <bmi160_get_sensor_data+0xd2>
 800674c:	60a8      	str	r0, [r5, #8]
 800674e:	e7b6      	b.n	80066be <bmi160_get_sensor_data+0xa0>
 8006750:	f06f 0004 	mvn.w	r0, #4
 8006754:	e79a      	b.n	800668c <bmi160_get_sensor_data+0x6e>
 8006756:	f04f 30ff 	mov.w	r0, #4294967295
 800675a:	e797      	b.n	800668c <bmi160_get_sensor_data+0x6e>

0800675c <bmi160_set_int_config>:
 800675c:	b573      	push	{r0, r1, r4, r5, r6, lr}
 800675e:	7843      	ldrb	r3, [r0, #1]
 8006760:	4605      	mov	r5, r0
 8006762:	460c      	mov	r4, r1
 8006764:	2b0d      	cmp	r3, #13
 8006766:	f200 84ce 	bhi.w	8007106 <bmi160_set_int_config+0x9aa>
 800676a:	e8df f013 	tbh	[pc, r3, lsl #1]
 800676e:	000e      	.short	0x000e
 8006770:	025d00a2 	.word	0x025d00a2
 8006774:	01ca01ca 	.word	0x01ca01ca
 8006778:	031802cf 	.word	0x031802cf
 800677c:	037603ee 	.word	0x037603ee
 8006780:	04650121 	.word	0x04650121
 8006784:	04ae0494 	.word	0x04ae0494
 8006788:	04c7      	.short	0x04c7
 800678a:	4608      	mov	r0, r1
 800678c:	f7ff fc22 	bl	8005fd4 <null_ptr_check>
 8006790:	2800      	cmp	r0, #0
 8006792:	f040 84bb 	bne.w	800710c <bmi160_set_int_config+0x9b0>
 8006796:	460b      	mov	r3, r1
 8006798:	f88d 0004 	strb.w	r0, [sp, #4]
 800679c:	2201      	movs	r2, #1
 800679e:	a901      	add	r1, sp, #4
 80067a0:	2050      	movs	r0, #80	; 0x50
 80067a2:	f7ff fc25 	bl	8005ff0 <bmi160_get_regs>
 80067a6:	2800      	cmp	r0, #0
 80067a8:	d17c      	bne.n	80068a4 <bmi160_set_int_config+0x148>
 80067aa:	792a      	ldrb	r2, [r5, #4]
 80067ac:	f89d 3004 	ldrb.w	r3, [sp, #4]
 80067b0:	07d1      	lsls	r1, r2, #31
 80067b2:	d579      	bpl.n	80068a8 <bmi160_set_int_config+0x14c>
 80067b4:	f3c2 0640 	ubfx	r6, r2, #1, #1
 80067b8:	f003 03fc 	and.w	r3, r3, #252	; 0xfc
 80067bc:	f3c2 0180 	ubfx	r1, r2, #2, #1
 80067c0:	f3c2 02c0 	ubfx	r2, r2, #3, #1
 80067c4:	4333      	orrs	r3, r6
 80067c6:	ea43 0341 	orr.w	r3, r3, r1, lsl #1
 80067ca:	f023 0304 	bic.w	r3, r3, #4
 80067ce:	ea43 0382 	orr.w	r3, r3, r2, lsl #2
 80067d2:	b2db      	uxtb	r3, r3
 80067d4:	f88d 3004 	strb.w	r3, [sp, #4]
 80067d8:	2201      	movs	r2, #1
 80067da:	70e0      	strb	r0, [r4, #3]
 80067dc:	4623      	mov	r3, r4
 80067de:	a901      	add	r1, sp, #4
 80067e0:	2050      	movs	r0, #80	; 0x50
 80067e2:	f7ff fc2f 	bl	8006044 <bmi160_set_regs>
 80067e6:	2800      	cmp	r0, #0
 80067e8:	d15c      	bne.n	80068a4 <bmi160_set_int_config+0x148>
 80067ea:	4621      	mov	r1, r4
 80067ec:	4628      	mov	r0, r5
 80067ee:	f7ff fceb 	bl	80061c8 <set_intr_pin_config>
 80067f2:	2800      	cmp	r0, #0
 80067f4:	d156      	bne.n	80068a4 <bmi160_set_int_config+0x148>
 80067f6:	f88d 0004 	strb.w	r0, [sp, #4]
 80067fa:	4623      	mov	r3, r4
 80067fc:	2201      	movs	r2, #1
 80067fe:	a901      	add	r1, sp, #4
 8006800:	2062      	movs	r0, #98	; 0x62
 8006802:	f7ff fbf5 	bl	8005ff0 <bmi160_get_regs>
 8006806:	2800      	cmp	r0, #0
 8006808:	d14c      	bne.n	80068a4 <bmi160_set_int_config+0x148>
 800680a:	f89d 3004 	ldrb.w	r3, [sp, #4]
 800680e:	079a      	lsls	r2, r3, #30
 8006810:	d50b      	bpl.n	800682a <bmi160_set_int_config+0xce>
 8006812:	f023 0302 	bic.w	r3, r3, #2
 8006816:	2201      	movs	r2, #1
 8006818:	a901      	add	r1, sp, #4
 800681a:	2062      	movs	r0, #98	; 0x62
 800681c:	f88d 3004 	strb.w	r3, [sp, #4]
 8006820:	4623      	mov	r3, r4
 8006822:	f7ff fc0f 	bl	8006044 <bmi160_set_regs>
 8006826:	2800      	cmp	r0, #0
 8006828:	d13c      	bne.n	80068a4 <bmi160_set_int_config+0x148>
 800682a:	4621      	mov	r1, r4
 800682c:	4628      	mov	r0, r5
 800682e:	f7ff fc4d 	bl	80060cc <map_feature_interrupt>
 8006832:	bbb8      	cbnz	r0, 80068a4 <bmi160_set_int_config+0x148>
 8006834:	f88d 0004 	strb.w	r0, [sp, #4]
 8006838:	4623      	mov	r3, r4
 800683a:	2201      	movs	r2, #1
 800683c:	a901      	add	r1, sp, #4
 800683e:	2059      	movs	r0, #89	; 0x59
 8006840:	f7ff fbd6 	bl	8005ff0 <bmi160_get_regs>
 8006844:	bb70      	cbnz	r0, 80068a4 <bmi160_set_int_config+0x148>
 8006846:	f89d 3004 	ldrb.w	r3, [sp, #4]
 800684a:	a901      	add	r1, sp, #4
 800684c:	792a      	ldrb	r2, [r5, #4]
 800684e:	2059      	movs	r0, #89	; 0x59
 8006850:	f003 037f 	and.w	r3, r3, #127	; 0x7f
 8006854:	f3c2 1280 	ubfx	r2, r2, #6, #1
 8006858:	ea43 13c2 	orr.w	r3, r3, r2, lsl #7
 800685c:	2201      	movs	r2, #1
 800685e:	f88d 3004 	strb.w	r3, [sp, #4]
 8006862:	4623      	mov	r3, r4
 8006864:	f7ff fbee 	bl	8006044 <bmi160_set_regs>
 8006868:	b9e0      	cbnz	r0, 80068a4 <bmi160_set_int_config+0x148>
 800686a:	f88d 0003 	strb.w	r0, [sp, #3]
 800686e:	4623      	mov	r3, r4
 8006870:	f8ad 0004 	strh.w	r0, [sp, #4]
 8006874:	2201      	movs	r2, #1
 8006876:	f10d 0103 	add.w	r1, sp, #3
 800687a:	205f      	movs	r0, #95	; 0x5f
 800687c:	f7ff fbb8 	bl	8005ff0 <bmi160_get_regs>
 8006880:	b980      	cbnz	r0, 80068a4 <bmi160_set_int_config+0x148>
 8006882:	f89d 3003 	ldrb.w	r3, [sp, #3]
 8006886:	2202      	movs	r2, #2
 8006888:	a901      	add	r1, sp, #4
 800688a:	205f      	movs	r0, #95	; 0x5f
 800688c:	f003 03fc 	and.w	r3, r3, #252	; 0xfc
 8006890:	f88d 3003 	strb.w	r3, [sp, #3]
 8006894:	f88d 3004 	strb.w	r3, [sp, #4]
 8006898:	796b      	ldrb	r3, [r5, #5]
 800689a:	f88d 3005 	strb.w	r3, [sp, #5]
 800689e:	4623      	mov	r3, r4
 80068a0:	f7ff fbd0 	bl	8006044 <bmi160_set_regs>
 80068a4:	b002      	add	sp, #8
 80068a6:	bd70      	pop	{r4, r5, r6, pc}
 80068a8:	f003 03f8 	and.w	r3, r3, #248	; 0xf8
 80068ac:	f04f 30ff 	mov.w	r0, #4294967295
 80068b0:	e790      	b.n	80067d4 <bmi160_set_int_config+0x78>
 80068b2:	4608      	mov	r0, r1
 80068b4:	f7ff fb8e 	bl	8005fd4 <null_ptr_check>
 80068b8:	2800      	cmp	r0, #0
 80068ba:	f040 8427 	bne.w	800710c <bmi160_set_int_config+0x9b0>
 80068be:	460b      	mov	r3, r1
 80068c0:	f88d 0004 	strb.w	r0, [sp, #4]
 80068c4:	2201      	movs	r2, #1
 80068c6:	a901      	add	r1, sp, #4
 80068c8:	2050      	movs	r0, #80	; 0x50
 80068ca:	f7ff fb91 	bl	8005ff0 <bmi160_get_regs>
 80068ce:	2800      	cmp	r0, #0
 80068d0:	d1e8      	bne.n	80068a4 <bmi160_set_int_config+0x148>
 80068d2:	792a      	ldrb	r2, [r5, #4]
 80068d4:	a901      	add	r1, sp, #4
 80068d6:	f89d 3004 	ldrb.w	r3, [sp, #4]
 80068da:	2050      	movs	r0, #80	; 0x50
 80068dc:	0696      	lsls	r6, r2, #26
 80068de:	f003 03f8 	and.w	r3, r3, #248	; 0xf8
 80068e2:	bf4a      	itet	mi
 80068e4:	2201      	movmi	r2, #1
 80068e6:	f04f 32ff 	movpl.w	r2, #4294967295
 80068ea:	f043 0307 	orrmi.w	r3, r3, #7
 80068ee:	70e2      	strb	r2, [r4, #3]
 80068f0:	2201      	movs	r2, #1
 80068f2:	f88d 3004 	strb.w	r3, [sp, #4]
 80068f6:	4623      	mov	r3, r4
 80068f8:	f7ff fba4 	bl	8006044 <bmi160_set_regs>
 80068fc:	2800      	cmp	r0, #0
 80068fe:	d1d1      	bne.n	80068a4 <bmi160_set_int_config+0x148>
 8006900:	4621      	mov	r1, r4
 8006902:	4628      	mov	r0, r5
 8006904:	f7ff fc60 	bl	80061c8 <set_intr_pin_config>
 8006908:	2800      	cmp	r0, #0
 800690a:	d1cb      	bne.n	80068a4 <bmi160_set_int_config+0x148>
 800690c:	4621      	mov	r1, r4
 800690e:	4628      	mov	r0, r5
 8006910:	f7ff fbdc 	bl	80060cc <map_feature_interrupt>
 8006914:	2800      	cmp	r0, #0
 8006916:	d1c5      	bne.n	80068a4 <bmi160_set_int_config+0x148>
 8006918:	f88d 0004 	strb.w	r0, [sp, #4]
 800691c:	4623      	mov	r3, r4
 800691e:	2201      	movs	r2, #1
 8006920:	a901      	add	r1, sp, #4
 8006922:	2059      	movs	r0, #89	; 0x59
 8006924:	f7ff fb64 	bl	8005ff0 <bmi160_get_regs>
 8006928:	2800      	cmp	r0, #0
 800692a:	d1bb      	bne.n	80068a4 <bmi160_set_int_config+0x148>
 800692c:	f89d 3004 	ldrb.w	r3, [sp, #4]
 8006930:	a901      	add	r1, sp, #4
 8006932:	792a      	ldrb	r2, [r5, #4]
 8006934:	2059      	movs	r0, #89	; 0x59
 8006936:	f003 037f 	and.w	r3, r3, #127	; 0x7f
 800693a:	f3c2 1200 	ubfx	r2, r2, #4, #1
 800693e:	ea43 13c2 	orr.w	r3, r3, r2, lsl #7
 8006942:	2201      	movs	r2, #1
 8006944:	f88d 3004 	strb.w	r3, [sp, #4]
 8006948:	4623      	mov	r3, r4
 800694a:	f7ff fb7b 	bl	8006044 <bmi160_set_regs>
 800694e:	2800      	cmp	r0, #0
 8006950:	d1a8      	bne.n	80068a4 <bmi160_set_int_config+0x148>
 8006952:	796b      	ldrb	r3, [r5, #5]
 8006954:	2201      	movs	r2, #1
 8006956:	a901      	add	r1, sp, #4
 8006958:	2060      	movs	r0, #96	; 0x60
 800695a:	f88d 3004 	strb.w	r3, [sp, #4]
 800695e:	4623      	mov	r3, r4
 8006960:	f7ff fb70 	bl	8006044 <bmi160_set_regs>
 8006964:	2800      	cmp	r0, #0
 8006966:	d19d      	bne.n	80068a4 <bmi160_set_int_config+0x148>
 8006968:	4623      	mov	r3, r4
 800696a:	2201      	movs	r2, #1
 800696c:	a901      	add	r1, sp, #4
 800696e:	2062      	movs	r0, #98	; 0x62
 8006970:	f7ff fb3e 	bl	8005ff0 <bmi160_get_regs>
 8006974:	2800      	cmp	r0, #0
 8006976:	d195      	bne.n	80068a4 <bmi160_set_int_config+0x148>
 8006978:	792a      	ldrb	r2, [r5, #4]
 800697a:	2062      	movs	r0, #98	; 0x62
 800697c:	f89d 3004 	ldrb.w	r3, [sp, #4]
 8006980:	f002 0103 	and.w	r1, r2, #3
 8006984:	f023 030c 	bic.w	r3, r3, #12
 8006988:	ea43 0381 	orr.w	r3, r3, r1, lsl #2
 800698c:	f3c2 0181 	ubfx	r1, r2, #2, #2
 8006990:	f3c2 1240 	ubfx	r2, r2, #5, #1
 8006994:	f023 0330 	bic.w	r3, r3, #48	; 0x30
 8006998:	ea43 1301 	orr.w	r3, r3, r1, lsl #4
 800699c:	a901      	add	r1, sp, #4
 800699e:	f023 0302 	bic.w	r3, r3, #2
 80069a2:	ea43 0342 	orr.w	r3, r3, r2, lsl #1
 80069a6:	2201      	movs	r2, #1
 80069a8:	f88d 3004 	strb.w	r3, [sp, #4]
 80069ac:	4623      	mov	r3, r4
 80069ae:	e777      	b.n	80068a0 <bmi160_set_int_config+0x144>
 80069b0:	4608      	mov	r0, r1
 80069b2:	f7ff fb0f 	bl	8005fd4 <null_ptr_check>
 80069b6:	2800      	cmp	r0, #0
 80069b8:	f040 83a8 	bne.w	800710c <bmi160_set_int_config+0x9b0>
 80069bc:	460b      	mov	r3, r1
 80069be:	f88d 0004 	strb.w	r0, [sp, #4]
 80069c2:	2201      	movs	r2, #1
 80069c4:	a901      	add	r1, sp, #4
 80069c6:	2052      	movs	r0, #82	; 0x52
 80069c8:	f7ff fb12 	bl	8005ff0 <bmi160_get_regs>
 80069cc:	2800      	cmp	r0, #0
 80069ce:	f47f af69 	bne.w	80068a4 <bmi160_set_int_config+0x148>
 80069d2:	792a      	ldrb	r2, [r5, #4]
 80069d4:	07d0      	lsls	r0, r2, #31
 80069d6:	f04f 0052 	mov.w	r0, #82	; 0x52
 80069da:	bf41      	itttt	mi
 80069dc:	f89d 3004 	ldrbmi.w	r3, [sp, #4]
 80069e0:	f023 0301 	bicmi.w	r3, r3, #1
 80069e4:	f043 0301 	orrmi.w	r3, r3, #1
 80069e8:	f88d 3004 	strbmi.w	r3, [sp, #4]
 80069ec:	0791      	lsls	r1, r2, #30
 80069ee:	a901      	add	r1, sp, #4
 80069f0:	bf41      	itttt	mi
 80069f2:	f89d 3004 	ldrbmi.w	r3, [sp, #4]
 80069f6:	f023 0302 	bicmi.w	r3, r3, #2
 80069fa:	f043 0302 	orrmi.w	r3, r3, #2
 80069fe:	f88d 3004 	strbmi.w	r3, [sp, #4]
 8006a02:	0753      	lsls	r3, r2, #29
 8006a04:	f04f 0201 	mov.w	r2, #1
 8006a08:	bf41      	itttt	mi
 8006a0a:	f89d 3004 	ldrbmi.w	r3, [sp, #4]
 8006a0e:	f023 0304 	bicmi.w	r3, r3, #4
 8006a12:	f043 0304 	orrmi.w	r3, r3, #4
 8006a16:	f88d 3004 	strbmi.w	r3, [sp, #4]
 8006a1a:	4623      	mov	r3, r4
 8006a1c:	f7ff fb12 	bl	8006044 <bmi160_set_regs>
 8006a20:	2800      	cmp	r0, #0
 8006a22:	f47f af3f 	bne.w	80068a4 <bmi160_set_int_config+0x148>
 8006a26:	4621      	mov	r1, r4
 8006a28:	4628      	mov	r0, r5
 8006a2a:	f7ff fbcd 	bl	80061c8 <set_intr_pin_config>
 8006a2e:	2800      	cmp	r0, #0
 8006a30:	f47f af38 	bne.w	80068a4 <bmi160_set_int_config+0x148>
 8006a34:	4621      	mov	r1, r4
 8006a36:	4628      	mov	r0, r5
 8006a38:	f7ff fb48 	bl	80060cc <map_feature_interrupt>
 8006a3c:	2800      	cmp	r0, #0
 8006a3e:	f47f af31 	bne.w	80068a4 <bmi160_set_int_config+0x148>
 8006a42:	f88d 0004 	strb.w	r0, [sp, #4]
 8006a46:	4623      	mov	r3, r4
 8006a48:	2201      	movs	r2, #1
 8006a4a:	a901      	add	r1, sp, #4
 8006a4c:	2059      	movs	r0, #89	; 0x59
 8006a4e:	f7ff facf 	bl	8005ff0 <bmi160_get_regs>
 8006a52:	2800      	cmp	r0, #0
 8006a54:	f47f af26 	bne.w	80068a4 <bmi160_set_int_config+0x148>
 8006a58:	f89d 3004 	ldrb.w	r3, [sp, #4]
 8006a5c:	a901      	add	r1, sp, #4
 8006a5e:	796a      	ldrb	r2, [r5, #5]
 8006a60:	2059      	movs	r0, #89	; 0x59
 8006a62:	f003 037f 	and.w	r3, r3, #127	; 0x7f
 8006a66:	f3c2 0280 	ubfx	r2, r2, #2, #1
 8006a6a:	ea43 13c2 	orr.w	r3, r3, r2, lsl #7
 8006a6e:	2201      	movs	r2, #1
 8006a70:	f88d 3004 	strb.w	r3, [sp, #4]
 8006a74:	4623      	mov	r3, r4
 8006a76:	f7ff fae5 	bl	8006044 <bmi160_set_regs>
 8006a7a:	2800      	cmp	r0, #0
 8006a7c:	f47f af12 	bne.w	80068a4 <bmi160_set_int_config+0x148>
 8006a80:	f88d 0003 	strb.w	r0, [sp, #3]
 8006a84:	4623      	mov	r3, r4
 8006a86:	f8ad 0004 	strh.w	r0, [sp, #4]
 8006a8a:	2201      	movs	r2, #1
 8006a8c:	f10d 0103 	add.w	r1, sp, #3
 8006a90:	205f      	movs	r0, #95	; 0x5f
 8006a92:	f7ff faad 	bl	8005ff0 <bmi160_get_regs>
 8006a96:	2800      	cmp	r0, #0
 8006a98:	f47f af04 	bne.w	80068a4 <bmi160_set_int_config+0x148>
 8006a9c:	f89d 3003 	ldrb.w	r3, [sp, #3]
 8006aa0:	f10d 0103 	add.w	r1, sp, #3
 8006aa4:	88aa      	ldrh	r2, [r5, #4]
 8006aa6:	205f      	movs	r0, #95	; 0x5f
 8006aa8:	f003 0303 	and.w	r3, r3, #3
 8006aac:	f3c2 02c5 	ubfx	r2, r2, #3, #6
 8006ab0:	ea43 0382 	orr.w	r3, r3, r2, lsl #2
 8006ab4:	2201      	movs	r2, #1
 8006ab6:	f88d 3003 	strb.w	r3, [sp, #3]
 8006aba:	4623      	mov	r3, r4
 8006abc:	f7ff fac2 	bl	8006044 <bmi160_set_regs>
 8006ac0:	2800      	cmp	r0, #0
 8006ac2:	f47f aeef 	bne.w	80068a4 <bmi160_set_int_config+0x148>
 8006ac6:	4623      	mov	r3, r4
 8006ac8:	2201      	movs	r2, #1
 8006aca:	f10d 0103 	add.w	r1, sp, #3
 8006ace:	2062      	movs	r0, #98	; 0x62
 8006ad0:	f7ff fa8e 	bl	8005ff0 <bmi160_get_regs>
 8006ad4:	2800      	cmp	r0, #0
 8006ad6:	f47f aee5 	bne.w	80068a4 <bmi160_set_int_config+0x148>
 8006ada:	f89d 2003 	ldrb.w	r2, [sp, #3]
 8006ade:	a901      	add	r1, sp, #4
 8006ae0:	796b      	ldrb	r3, [r5, #5]
 8006ae2:	2061      	movs	r0, #97	; 0x61
 8006ae4:	f022 0201 	bic.w	r2, r2, #1
 8006ae8:	f3c3 0340 	ubfx	r3, r3, #1, #1
 8006aec:	4313      	orrs	r3, r2
 8006aee:	2202      	movs	r2, #2
 8006af0:	f88d 3003 	strb.w	r3, [sp, #3]
 8006af4:	f88d 3005 	strb.w	r3, [sp, #5]
 8006af8:	79ab      	ldrb	r3, [r5, #6]
 8006afa:	f88d 3004 	strb.w	r3, [sp, #4]
 8006afe:	4623      	mov	r3, r4
 8006b00:	e6ce      	b.n	80068a0 <bmi160_set_int_config+0x144>
 8006b02:	4608      	mov	r0, r1
 8006b04:	f7ff fa66 	bl	8005fd4 <null_ptr_check>
 8006b08:	2800      	cmp	r0, #0
 8006b0a:	f040 82ff 	bne.w	800710c <bmi160_set_int_config+0x9b0>
 8006b0e:	460b      	mov	r3, r1
 8006b10:	f88d 0004 	strb.w	r0, [sp, #4]
 8006b14:	2201      	movs	r2, #1
 8006b16:	a901      	add	r1, sp, #4
 8006b18:	2050      	movs	r0, #80	; 0x50
 8006b1a:	f7ff fa69 	bl	8005ff0 <bmi160_get_regs>
 8006b1e:	2800      	cmp	r0, #0
 8006b20:	f47f aec0 	bne.w	80068a4 <bmi160_set_int_config+0x148>
 8006b24:	7869      	ldrb	r1, [r5, #1]
 8006b26:	2050      	movs	r0, #80	; 0x50
 8006b28:	f89d 2004 	ldrb.w	r2, [sp, #4]
 8006b2c:	2904      	cmp	r1, #4
 8006b2e:	796b      	ldrb	r3, [r5, #5]
 8006b30:	a901      	add	r1, sp, #4
 8006b32:	f3c3 03c0 	ubfx	r3, r3, #3, #1
 8006b36:	bf0b      	itete	eq
 8006b38:	f022 0220 	biceq.w	r2, r2, #32
 8006b3c:	f022 0210 	bicne.w	r2, r2, #16
 8006b40:	ea42 1343 	orreq.w	r3, r2, r3, lsl #5
 8006b44:	ea42 1303 	orrne.w	r3, r2, r3, lsl #4
 8006b48:	2201      	movs	r2, #1
 8006b4a:	f88d 3004 	strb.w	r3, [sp, #4]
 8006b4e:	4623      	mov	r3, r4
 8006b50:	f7ff fa78 	bl	8006044 <bmi160_set_regs>
 8006b54:	2800      	cmp	r0, #0
 8006b56:	f47f aea5 	bne.w	80068a4 <bmi160_set_int_config+0x148>
 8006b5a:	4621      	mov	r1, r4
 8006b5c:	4628      	mov	r0, r5
 8006b5e:	f7ff fb33 	bl	80061c8 <set_intr_pin_config>
 8006b62:	2800      	cmp	r0, #0
 8006b64:	f47f ae9e 	bne.w	80068a4 <bmi160_set_int_config+0x148>
 8006b68:	4621      	mov	r1, r4
 8006b6a:	4628      	mov	r0, r5
 8006b6c:	f7ff fb2c 	bl	80061c8 <set_intr_pin_config>
 8006b70:	2800      	cmp	r0, #0
 8006b72:	f47f ae97 	bne.w	80068a4 <bmi160_set_int_config+0x148>
 8006b76:	4621      	mov	r1, r4
 8006b78:	4628      	mov	r0, r5
 8006b7a:	f7ff faa7 	bl	80060cc <map_feature_interrupt>
 8006b7e:	2800      	cmp	r0, #0
 8006b80:	f47f ae90 	bne.w	80068a4 <bmi160_set_int_config+0x148>
 8006b84:	f88d 0004 	strb.w	r0, [sp, #4]
 8006b88:	4623      	mov	r3, r4
 8006b8a:	2201      	movs	r2, #1
 8006b8c:	a901      	add	r1, sp, #4
 8006b8e:	2058      	movs	r0, #88	; 0x58
 8006b90:	f7ff fa2e 	bl	8005ff0 <bmi160_get_regs>
 8006b94:	2800      	cmp	r0, #0
 8006b96:	f47f ae85 	bne.w	80068a4 <bmi160_set_int_config+0x148>
 8006b9a:	f89d 3004 	ldrb.w	r3, [sp, #4]
 8006b9e:	a901      	add	r1, sp, #4
 8006ba0:	796a      	ldrb	r2, [r5, #5]
 8006ba2:	2058      	movs	r0, #88	; 0x58
 8006ba4:	f023 0308 	bic.w	r3, r3, #8
 8006ba8:	f3c2 0280 	ubfx	r2, r2, #2, #1
 8006bac:	ea43 03c2 	orr.w	r3, r3, r2, lsl #3
 8006bb0:	2201      	movs	r2, #1
 8006bb2:	f88d 3004 	strb.w	r3, [sp, #4]
 8006bb6:	4623      	mov	r3, r4
 8006bb8:	f7ff fa44 	bl	8006044 <bmi160_set_regs>
 8006bbc:	2800      	cmp	r0, #0
 8006bbe:	f47f ae71 	bne.w	80068a4 <bmi160_set_int_config+0x148>
 8006bc2:	f8ad 0004 	strh.w	r0, [sp, #4]
 8006bc6:	4623      	mov	r3, r4
 8006bc8:	2202      	movs	r2, #2
 8006bca:	a901      	add	r1, sp, #4
 8006bcc:	2063      	movs	r0, #99	; 0x63
 8006bce:	f7ff fa0f 	bl	8005ff0 <bmi160_get_regs>
 8006bd2:	2800      	cmp	r0, #0
 8006bd4:	f47f ae66 	bne.w	80068a4 <bmi160_set_int_config+0x148>
 8006bd8:	786a      	ldrb	r2, [r5, #1]
 8006bda:	2063      	movs	r0, #99	; 0x63
 8006bdc:	f89d 3004 	ldrb.w	r3, [sp, #4]
 8006be0:	2a03      	cmp	r2, #3
 8006be2:	bf01      	itttt	eq
 8006be4:	88aa      	ldrheq	r2, [r5, #4]
 8006be6:	f003 03f8 	andeq.w	r3, r3, #248	; 0xf8
 8006bea:	f3c2 12c2 	ubfxeq	r2, r2, #7, #3
 8006bee:	4313      	orreq	r3, r2
 8006bf0:	792a      	ldrb	r2, [r5, #4]
 8006bf2:	f003 03bf 	and.w	r3, r3, #191	; 0xbf
 8006bf6:	f3c2 1140 	ubfx	r1, r2, #5, #1
 8006bfa:	ea43 1381 	orr.w	r3, r3, r1, lsl #6
 8006bfe:	f3c2 1180 	ubfx	r1, r2, #6, #1
 8006c02:	f3c2 0204 	ubfx	r2, r2, #0, #5
 8006c06:	f003 037f 	and.w	r3, r3, #127	; 0x7f
 8006c0a:	ea43 13c1 	orr.w	r3, r3, r1, lsl #7
 8006c0e:	a901      	add	r1, sp, #4
 8006c10:	f88d 3004 	strb.w	r3, [sp, #4]
 8006c14:	f89d 3005 	ldrb.w	r3, [sp, #5]
 8006c18:	f003 03e0 	and.w	r3, r3, #224	; 0xe0
 8006c1c:	4313      	orrs	r3, r2
 8006c1e:	2202      	movs	r2, #2
 8006c20:	f88d 3005 	strb.w	r3, [sp, #5]
 8006c24:	4623      	mov	r3, r4
 8006c26:	e63b      	b.n	80068a0 <bmi160_set_int_config+0x144>
 8006c28:	4608      	mov	r0, r1
 8006c2a:	f7ff f9d3 	bl	8005fd4 <null_ptr_check>
 8006c2e:	2800      	cmp	r0, #0
 8006c30:	f040 826c 	bne.w	800710c <bmi160_set_int_config+0x9b0>
 8006c34:	460b      	mov	r3, r1
 8006c36:	f88d 0004 	strb.w	r0, [sp, #4]
 8006c3a:	2201      	movs	r2, #1
 8006c3c:	a901      	add	r1, sp, #4
 8006c3e:	2052      	movs	r0, #82	; 0x52
 8006c40:	f7ff f9d6 	bl	8005ff0 <bmi160_get_regs>
 8006c44:	2800      	cmp	r0, #0
 8006c46:	f47f ae2d 	bne.w	80068a4 <bmi160_set_int_config+0x148>
 8006c4a:	f89d 3004 	ldrb.w	r3, [sp, #4]
 8006c4e:	a901      	add	r1, sp, #4
 8006c50:	792a      	ldrb	r2, [r5, #4]
 8006c52:	2052      	movs	r0, #82	; 0x52
 8006c54:	f023 0308 	bic.w	r3, r3, #8
 8006c58:	f002 0201 	and.w	r2, r2, #1
 8006c5c:	ea43 03c2 	orr.w	r3, r3, r2, lsl #3
 8006c60:	2201      	movs	r2, #1
 8006c62:	f88d 3004 	strb.w	r3, [sp, #4]
 8006c66:	4623      	mov	r3, r4
 8006c68:	f7ff f9ec 	bl	8006044 <bmi160_set_regs>
 8006c6c:	2800      	cmp	r0, #0
 8006c6e:	f47f ae19 	bne.w	80068a4 <bmi160_set_int_config+0x148>
 8006c72:	4621      	mov	r1, r4
 8006c74:	4628      	mov	r0, r5
 8006c76:	f7ff faa7 	bl	80061c8 <set_intr_pin_config>
 8006c7a:	2800      	cmp	r0, #0
 8006c7c:	f47f ae12 	bne.w	80068a4 <bmi160_set_int_config+0x148>
 8006c80:	4621      	mov	r1, r4
 8006c82:	4628      	mov	r0, r5
 8006c84:	f7ff fa22 	bl	80060cc <map_feature_interrupt>
 8006c88:	2800      	cmp	r0, #0
 8006c8a:	f47f ae0b 	bne.w	80068a4 <bmi160_set_int_config+0x148>
 8006c8e:	792b      	ldrb	r3, [r5, #4]
 8006c90:	f8ad 0004 	strh.w	r0, [sp, #4]
 8006c94:	f013 03c0 	ands.w	r3, r3, #192	; 0xc0
 8006c98:	d104      	bne.n	8006ca4 <bmi160_set_int_config+0x548>
 8006c9a:	f240 3315 	movw	r3, #789	; 0x315
 8006c9e:	f8ad 3004 	strh.w	r3, [sp, #4]
 8006ca2:	e004      	b.n	8006cae <bmi160_set_int_config+0x552>
 8006ca4:	2b40      	cmp	r3, #64	; 0x40
 8006ca6:	d107      	bne.n	8006cb8 <bmi160_set_int_config+0x55c>
 8006ca8:	232d      	movs	r3, #45	; 0x2d
 8006caa:	f88d 3004 	strb.w	r3, [sp, #4]
 8006cae:	4623      	mov	r3, r4
 8006cb0:	2202      	movs	r2, #2
 8006cb2:	a901      	add	r1, sp, #4
 8006cb4:	207a      	movs	r0, #122	; 0x7a
 8006cb6:	e5f3      	b.n	80068a0 <bmi160_set_int_config+0x144>
 8006cb8:	2b80      	cmp	r3, #128	; 0x80
 8006cba:	d102      	bne.n	8006cc2 <bmi160_set_int_config+0x566>
 8006cbc:	f240 731d 	movw	r3, #1821	; 0x71d
 8006cc0:	e7ed      	b.n	8006c9e <bmi160_set_int_config+0x542>
 8006cc2:	2bc0      	cmp	r3, #192	; 0xc0
 8006cc4:	d1f3      	bne.n	8006cae <bmi160_set_int_config+0x552>
 8006cc6:	4623      	mov	r3, r4
 8006cc8:	2202      	movs	r2, #2
 8006cca:	a901      	add	r1, sp, #4
 8006ccc:	207a      	movs	r0, #122	; 0x7a
 8006cce:	f7ff f98f 	bl	8005ff0 <bmi160_get_regs>
 8006cd2:	2800      	cmp	r0, #0
 8006cd4:	d1eb      	bne.n	8006cae <bmi160_set_int_config+0x552>
 8006cd6:	f89d 3004 	ldrb.w	r3, [sp, #4]
 8006cda:	792a      	ldrb	r2, [r5, #4]
 8006cdc:	f023 0318 	bic.w	r3, r3, #24
 8006ce0:	f3c2 0141 	ubfx	r1, r2, #1, #2
 8006ce4:	f3c2 02c2 	ubfx	r2, r2, #3, #3
 8006ce8:	ea43 03c1 	orr.w	r3, r3, r1, lsl #3
 8006cec:	f023 0307 	bic.w	r3, r3, #7
 8006cf0:	4313      	orrs	r3, r2
 8006cf2:	796a      	ldrb	r2, [r5, #5]
 8006cf4:	f88d 3004 	strb.w	r3, [sp, #4]
 8006cf8:	f3c2 0202 	ubfx	r2, r2, #0, #3
 8006cfc:	f89d 3005 	ldrb.w	r3, [sp, #5]
 8006d00:	f023 0307 	bic.w	r3, r3, #7
 8006d04:	4313      	orrs	r3, r2
 8006d06:	f88d 3005 	strb.w	r3, [sp, #5]
 8006d0a:	e7d0      	b.n	8006cae <bmi160_set_int_config+0x552>
 8006d0c:	4608      	mov	r0, r1
 8006d0e:	f7ff f961 	bl	8005fd4 <null_ptr_check>
 8006d12:	2800      	cmp	r0, #0
 8006d14:	f040 81fa 	bne.w	800710c <bmi160_set_int_config+0x9b0>
 8006d18:	460b      	mov	r3, r1
 8006d1a:	f88d 0004 	strb.w	r0, [sp, #4]
 8006d1e:	2201      	movs	r2, #1
 8006d20:	a901      	add	r1, sp, #4
 8006d22:	2050      	movs	r0, #80	; 0x50
 8006d24:	f7ff f964 	bl	8005ff0 <bmi160_get_regs>
 8006d28:	2800      	cmp	r0, #0
 8006d2a:	f47f adbb 	bne.w	80068a4 <bmi160_set_int_config+0x148>
 8006d2e:	f89d 3004 	ldrb.w	r3, [sp, #4]
 8006d32:	a901      	add	r1, sp, #4
 8006d34:	79aa      	ldrb	r2, [r5, #6]
 8006d36:	2050      	movs	r0, #80	; 0x50
 8006d38:	f023 0340 	bic.w	r3, r3, #64	; 0x40
 8006d3c:	f002 0201 	and.w	r2, r2, #1
 8006d40:	ea43 1382 	orr.w	r3, r3, r2, lsl #6
 8006d44:	2201      	movs	r2, #1
 8006d46:	f88d 3004 	strb.w	r3, [sp, #4]
 8006d4a:	4623      	mov	r3, r4
 8006d4c:	f7ff f97a 	bl	8006044 <bmi160_set_regs>
 8006d50:	2800      	cmp	r0, #0
 8006d52:	f47f ada7 	bne.w	80068a4 <bmi160_set_int_config+0x148>
 8006d56:	4621      	mov	r1, r4
 8006d58:	4628      	mov	r0, r5
 8006d5a:	f7ff fa35 	bl	80061c8 <set_intr_pin_config>
 8006d5e:	2800      	cmp	r0, #0
 8006d60:	f47f ada0 	bne.w	80068a4 <bmi160_set_int_config+0x148>
 8006d64:	4621      	mov	r1, r4
 8006d66:	4628      	mov	r0, r5
 8006d68:	f7ff f9b0 	bl	80060cc <map_feature_interrupt>
 8006d6c:	2800      	cmp	r0, #0
 8006d6e:	f47f ad99 	bne.w	80068a4 <bmi160_set_int_config+0x148>
 8006d72:	f8ad 0004 	strh.w	r0, [sp, #4]
 8006d76:	4623      	mov	r3, r4
 8006d78:	2202      	movs	r2, #2
 8006d7a:	a901      	add	r1, sp, #4
 8006d7c:	2065      	movs	r0, #101	; 0x65
 8006d7e:	f7ff f937 	bl	8005ff0 <bmi160_get_regs>
 8006d82:	2800      	cmp	r0, #0
 8006d84:	f47f ad8e 	bne.w	80068a4 <bmi160_set_int_config+0x148>
 8006d88:	792b      	ldrb	r3, [r5, #4]
 8006d8a:	2202      	movs	r2, #2
 8006d8c:	a901      	add	r1, sp, #4
 8006d8e:	2065      	movs	r0, #101	; 0x65
 8006d90:	f88d 3004 	strb.w	r3, [sp, #4]
 8006d94:	796b      	ldrb	r3, [r5, #5]
 8006d96:	f88d 3005 	strb.w	r3, [sp, #5]
 8006d9a:	4623      	mov	r3, r4
 8006d9c:	e580      	b.n	80068a0 <bmi160_set_int_config+0x144>
 8006d9e:	4608      	mov	r0, r1
 8006da0:	f7ff f918 	bl	8005fd4 <null_ptr_check>
 8006da4:	2800      	cmp	r0, #0
 8006da6:	f040 81b1 	bne.w	800710c <bmi160_set_int_config+0x9b0>
 8006daa:	460b      	mov	r3, r1
 8006dac:	f88d 0004 	strb.w	r0, [sp, #4]
 8006db0:	2201      	movs	r2, #1
 8006db2:	a901      	add	r1, sp, #4
 8006db4:	2050      	movs	r0, #80	; 0x50
 8006db6:	f7ff f91b 	bl	8005ff0 <bmi160_get_regs>
 8006dba:	2800      	cmp	r0, #0
 8006dbc:	f47f ad72 	bne.w	80068a4 <bmi160_set_int_config+0x148>
 8006dc0:	f89d 3004 	ldrb.w	r3, [sp, #4]
 8006dc4:	a901      	add	r1, sp, #4
 8006dc6:	796a      	ldrb	r2, [r5, #5]
 8006dc8:	2050      	movs	r0, #80	; 0x50
 8006dca:	f003 037f 	and.w	r3, r3, #127	; 0x7f
 8006dce:	f3c2 02c0 	ubfx	r2, r2, #3, #1
 8006dd2:	ea43 13c2 	orr.w	r3, r3, r2, lsl #7
 8006dd6:	2201      	movs	r2, #1
 8006dd8:	f88d 3004 	strb.w	r3, [sp, #4]
 8006ddc:	4623      	mov	r3, r4
 8006dde:	f7ff f931 	bl	8006044 <bmi160_set_regs>
 8006de2:	2800      	cmp	r0, #0
 8006de4:	f47f ad5e 	bne.w	80068a4 <bmi160_set_int_config+0x148>
 8006de8:	4621      	mov	r1, r4
 8006dea:	4628      	mov	r0, r5
 8006dec:	f7ff f9ec 	bl	80061c8 <set_intr_pin_config>
 8006df0:	2800      	cmp	r0, #0
 8006df2:	f47f ad57 	bne.w	80068a4 <bmi160_set_int_config+0x148>
 8006df6:	4621      	mov	r1, r4
 8006df8:	4628      	mov	r0, r5
 8006dfa:	f7ff f967 	bl	80060cc <map_feature_interrupt>
 8006dfe:	2800      	cmp	r0, #0
 8006e00:	f47f ad50 	bne.w	80068a4 <bmi160_set_int_config+0x148>
 8006e04:	f8ad 0004 	strh.w	r0, [sp, #4]
 8006e08:	4623      	mov	r3, r4
 8006e0a:	2202      	movs	r2, #2
 8006e0c:	a901      	add	r1, sp, #4
 8006e0e:	2067      	movs	r0, #103	; 0x67
 8006e10:	f7ff f8ee 	bl	8005ff0 <bmi160_get_regs>
 8006e14:	2800      	cmp	r0, #0
 8006e16:	f47f ad45 	bne.w	80068a4 <bmi160_set_int_config+0x148>
 8006e1a:	f89d 3004 	ldrb.w	r3, [sp, #4]
 8006e1e:	a901      	add	r1, sp, #4
 8006e20:	792a      	ldrb	r2, [r5, #4]
 8006e22:	2067      	movs	r0, #103	; 0x67
 8006e24:	f003 03c0 	and.w	r3, r3, #192	; 0xc0
 8006e28:	f3c2 0205 	ubfx	r2, r2, #0, #6
 8006e2c:	4313      	orrs	r3, r2
 8006e2e:	796a      	ldrb	r2, [r5, #5]
 8006e30:	f88d 3004 	strb.w	r3, [sp, #4]
 8006e34:	f3c2 0241 	ubfx	r2, r2, #1, #2
 8006e38:	f89d 3005 	ldrb.w	r3, [sp, #5]
 8006e3c:	f003 03cf 	and.w	r3, r3, #207	; 0xcf
 8006e40:	ea43 1302 	orr.w	r3, r3, r2, lsl #4
 8006e44:	88aa      	ldrh	r2, [r5, #4]
 8006e46:	f003 03f8 	and.w	r3, r3, #248	; 0xf8
 8006e4a:	f3c2 1282 	ubfx	r2, r2, #6, #3
 8006e4e:	4313      	orrs	r3, r2
 8006e50:	2202      	movs	r2, #2
 8006e52:	f88d 3005 	strb.w	r3, [sp, #5]
 8006e56:	4623      	mov	r3, r4
 8006e58:	e522      	b.n	80068a0 <bmi160_set_int_config+0x144>
 8006e5a:	4608      	mov	r0, r1
 8006e5c:	f7ff f8ba 	bl	8005fd4 <null_ptr_check>
 8006e60:	2800      	cmp	r0, #0
 8006e62:	f040 8153 	bne.w	800710c <bmi160_set_int_config+0x9b0>
 8006e66:	460b      	mov	r3, r1
 8006e68:	f88d 0004 	strb.w	r0, [sp, #4]
 8006e6c:	2201      	movs	r2, #1
 8006e6e:	a901      	add	r1, sp, #4
 8006e70:	2051      	movs	r0, #81	; 0x51
 8006e72:	f7ff f8bd 	bl	8005ff0 <bmi160_get_regs>
 8006e76:	2800      	cmp	r0, #0
 8006e78:	f47f ad14 	bne.w	80068a4 <bmi160_set_int_config+0x148>
 8006e7c:	f89d 3004 	ldrb.w	r3, [sp, #4]
 8006e80:	a901      	add	r1, sp, #4
 8006e82:	79aa      	ldrb	r2, [r5, #6]
 8006e84:	2051      	movs	r0, #81	; 0x51
 8006e86:	f023 0308 	bic.w	r3, r3, #8
 8006e8a:	f3c2 1200 	ubfx	r2, r2, #4, #1
 8006e8e:	ea43 03c2 	orr.w	r3, r3, r2, lsl #3
 8006e92:	2201      	movs	r2, #1
 8006e94:	f88d 3004 	strb.w	r3, [sp, #4]
 8006e98:	4623      	mov	r3, r4
 8006e9a:	f7ff f8d3 	bl	8006044 <bmi160_set_regs>
 8006e9e:	2800      	cmp	r0, #0
 8006ea0:	f47f ad00 	bne.w	80068a4 <bmi160_set_int_config+0x148>
 8006ea4:	4621      	mov	r1, r4
 8006ea6:	4628      	mov	r0, r5
 8006ea8:	f7ff f98e 	bl	80061c8 <set_intr_pin_config>
 8006eac:	2800      	cmp	r0, #0
 8006eae:	f47f acf9 	bne.w	80068a4 <bmi160_set_int_config+0x148>
 8006eb2:	4621      	mov	r1, r4
 8006eb4:	4628      	mov	r0, r5
 8006eb6:	f7ff f909 	bl	80060cc <map_feature_interrupt>
 8006eba:	2800      	cmp	r0, #0
 8006ebc:	f47f acf2 	bne.w	80068a4 <bmi160_set_int_config+0x148>
 8006ec0:	f88d 0004 	strb.w	r0, [sp, #4]
 8006ec4:	4623      	mov	r3, r4
 8006ec6:	2201      	movs	r2, #1
 8006ec8:	a901      	add	r1, sp, #4
 8006eca:	2058      	movs	r0, #88	; 0x58
 8006ecc:	f7ff f890 	bl	8005ff0 <bmi160_get_regs>
 8006ed0:	2800      	cmp	r0, #0
 8006ed2:	f47f ace7 	bne.w	80068a4 <bmi160_set_int_config+0x148>
 8006ed6:	f89d 3004 	ldrb.w	r3, [sp, #4]
 8006eda:	a901      	add	r1, sp, #4
 8006edc:	79aa      	ldrb	r2, [r5, #6]
 8006ede:	2058      	movs	r0, #88	; 0x58
 8006ee0:	f003 037f 	and.w	r3, r3, #127	; 0x7f
 8006ee4:	f3c2 02c0 	ubfx	r2, r2, #3, #1
 8006ee8:	ea43 13c2 	orr.w	r3, r3, r2, lsl #7
 8006eec:	2201      	movs	r2, #1
 8006eee:	f88d 3004 	strb.w	r3, [sp, #4]
 8006ef2:	4623      	mov	r3, r4
 8006ef4:	f7ff f8a6 	bl	8006044 <bmi160_set_regs>
 8006ef8:	2800      	cmp	r0, #0
 8006efa:	f47f acd3 	bne.w	80068a4 <bmi160_set_int_config+0x148>
 8006efe:	4b85      	ldr	r3, [pc, #532]	; (8007114 <bmi160_set_int_config+0x9b8>)
 8006f00:	f10d 0106 	add.w	r1, sp, #6
 8006f04:	205c      	movs	r0, #92	; 0x5c
 8006f06:	881a      	ldrh	r2, [r3, #0]
 8006f08:	789b      	ldrb	r3, [r3, #2]
 8006f0a:	f8ad 2004 	strh.w	r2, [sp, #4]
 8006f0e:	2201      	movs	r2, #1
 8006f10:	f88d 3006 	strb.w	r3, [sp, #6]
 8006f14:	4623      	mov	r3, r4
 8006f16:	f7ff f86b 	bl	8005ff0 <bmi160_get_regs>
 8006f1a:	2800      	cmp	r0, #0
 8006f1c:	f47f acc2 	bne.w	80068a4 <bmi160_set_int_config+0x148>
 8006f20:	f89d 2006 	ldrb.w	r2, [sp, #6]
 8006f24:	a901      	add	r1, sp, #4
 8006f26:	79ab      	ldrb	r3, [r5, #6]
 8006f28:	205a      	movs	r0, #90	; 0x5a
 8006f2a:	f002 02f8 	and.w	r2, r2, #248	; 0xf8
 8006f2e:	f003 0307 	and.w	r3, r3, #7
 8006f32:	4313      	orrs	r3, r2
 8006f34:	2203      	movs	r2, #3
 8006f36:	f88d 3006 	strb.w	r3, [sp, #6]
 8006f3a:	796b      	ldrb	r3, [r5, #5]
 8006f3c:	f88d 3005 	strb.w	r3, [sp, #5]
 8006f40:	792b      	ldrb	r3, [r5, #4]
 8006f42:	f88d 3004 	strb.w	r3, [sp, #4]
 8006f46:	4623      	mov	r3, r4
 8006f48:	e4aa      	b.n	80068a0 <bmi160_set_int_config+0x144>
 8006f4a:	4608      	mov	r0, r1
 8006f4c:	f7ff f842 	bl	8005fd4 <null_ptr_check>
 8006f50:	2800      	cmp	r0, #0
 8006f52:	f040 80db 	bne.w	800710c <bmi160_set_int_config+0x9b0>
 8006f56:	460b      	mov	r3, r1
 8006f58:	f88d 0004 	strb.w	r0, [sp, #4]
 8006f5c:	2201      	movs	r2, #1
 8006f5e:	a901      	add	r1, sp, #4
 8006f60:	2051      	movs	r0, #81	; 0x51
 8006f62:	f7ff f845 	bl	8005ff0 <bmi160_get_regs>
 8006f66:	2800      	cmp	r0, #0
 8006f68:	f47f ac9c 	bne.w	80068a4 <bmi160_set_int_config+0x148>
 8006f6c:	f89d 2004 	ldrb.w	r2, [sp, #4]
 8006f70:	a901      	add	r1, sp, #4
 8006f72:	792b      	ldrb	r3, [r5, #4]
 8006f74:	2051      	movs	r0, #81	; 0x51
 8006f76:	f002 02f8 	and.w	r2, r2, #248	; 0xf8
 8006f7a:	f003 0307 	and.w	r3, r3, #7
 8006f7e:	4313      	orrs	r3, r2
 8006f80:	2201      	movs	r2, #1
 8006f82:	f88d 3004 	strb.w	r3, [sp, #4]
 8006f86:	4623      	mov	r3, r4
 8006f88:	f7ff f85c 	bl	8006044 <bmi160_set_regs>
 8006f8c:	2800      	cmp	r0, #0
 8006f8e:	f47f ac89 	bne.w	80068a4 <bmi160_set_int_config+0x148>
 8006f92:	4621      	mov	r1, r4
 8006f94:	4628      	mov	r0, r5
 8006f96:	f7ff f917 	bl	80061c8 <set_intr_pin_config>
 8006f9a:	2800      	cmp	r0, #0
 8006f9c:	f47f ac82 	bne.w	80068a4 <bmi160_set_int_config+0x148>
 8006fa0:	4621      	mov	r1, r4
 8006fa2:	4628      	mov	r0, r5
 8006fa4:	f7ff f892 	bl	80060cc <map_feature_interrupt>
 8006fa8:	2800      	cmp	r0, #0
 8006faa:	f47f ac7b 	bne.w	80068a4 <bmi160_set_int_config+0x148>
 8006fae:	f88d 0004 	strb.w	r0, [sp, #4]
 8006fb2:	4623      	mov	r3, r4
 8006fb4:	2201      	movs	r2, #1
 8006fb6:	a901      	add	r1, sp, #4
 8006fb8:	2058      	movs	r0, #88	; 0x58
 8006fba:	f7ff f819 	bl	8005ff0 <bmi160_get_regs>
 8006fbe:	2800      	cmp	r0, #0
 8006fc0:	f47f ac70 	bne.w	80068a4 <bmi160_set_int_config+0x148>
 8006fc4:	f89d 3004 	ldrb.w	r3, [sp, #4]
 8006fc8:	a901      	add	r1, sp, #4
 8006fca:	792a      	ldrb	r2, [r5, #4]
 8006fcc:	2058      	movs	r0, #88	; 0x58
 8006fce:	f003 037f 	and.w	r3, r3, #127	; 0x7f
 8006fd2:	f3c2 1240 	ubfx	r2, r2, #5, #1
 8006fd6:	ea43 13c2 	orr.w	r3, r3, r2, lsl #7
 8006fda:	2201      	movs	r2, #1
 8006fdc:	f88d 3004 	strb.w	r3, [sp, #4]
 8006fe0:	4623      	mov	r3, r4
 8006fe2:	f7ff f82f 	bl	8006044 <bmi160_set_regs>
 8006fe6:	2800      	cmp	r0, #0
 8006fe8:	f47f ac5c 	bne.w	80068a4 <bmi160_set_int_config+0x148>
 8006fec:	4b49      	ldr	r3, [pc, #292]	; (8007114 <bmi160_set_int_config+0x9b8>)
 8006fee:	a901      	add	r1, sp, #4
 8006ff0:	205c      	movs	r0, #92	; 0x5c
 8006ff2:	881a      	ldrh	r2, [r3, #0]
 8006ff4:	789b      	ldrb	r3, [r3, #2]
 8006ff6:	f8ad 2004 	strh.w	r2, [sp, #4]
 8006ffa:	2201      	movs	r2, #1
 8006ffc:	f88d 3006 	strb.w	r3, [sp, #6]
 8007000:	4623      	mov	r3, r4
 8007002:	f7fe fff5 	bl	8005ff0 <bmi160_get_regs>
 8007006:	2800      	cmp	r0, #0
 8007008:	f47f ac4c 	bne.w	80068a4 <bmi160_set_int_config+0x148>
 800700c:	f89d 3004 	ldrb.w	r3, [sp, #4]
 8007010:	a901      	add	r1, sp, #4
 8007012:	792a      	ldrb	r2, [r5, #4]
 8007014:	205c      	movs	r0, #92	; 0x5c
 8007016:	f003 033f 	and.w	r3, r3, #63	; 0x3f
 800701a:	f3c2 02c1 	ubfx	r2, r2, #3, #2
 800701e:	ea43 1382 	orr.w	r3, r3, r2, lsl #6
 8007022:	2203      	movs	r2, #3
 8007024:	f88d 3004 	strb.w	r3, [sp, #4]
 8007028:	79ab      	ldrb	r3, [r5, #6]
 800702a:	f88d 3005 	strb.w	r3, [sp, #5]
 800702e:	796b      	ldrb	r3, [r5, #5]
 8007030:	f88d 3006 	strb.w	r3, [sp, #6]
 8007034:	4623      	mov	r3, r4
 8007036:	e433      	b.n	80068a0 <bmi160_set_int_config+0x144>
 8007038:	4608      	mov	r0, r1
 800703a:	f7fe ffcb 	bl	8005fd4 <null_ptr_check>
 800703e:	2800      	cmp	r0, #0
 8007040:	d164      	bne.n	800710c <bmi160_set_int_config+0x9b0>
 8007042:	460b      	mov	r3, r1
 8007044:	f88d 0004 	strb.w	r0, [sp, #4]
 8007048:	2201      	movs	r2, #1
 800704a:	a901      	add	r1, sp, #4
 800704c:	2051      	movs	r0, #81	; 0x51
 800704e:	f7fe ffcf 	bl	8005ff0 <bmi160_get_regs>
 8007052:	2800      	cmp	r0, #0
 8007054:	f47f ac26 	bne.w	80068a4 <bmi160_set_int_config+0x148>
 8007058:	f89d 3004 	ldrb.w	r3, [sp, #4]
 800705c:	f023 0310 	bic.w	r3, r3, #16
 8007060:	f043 0310 	orr.w	r3, r3, #16
 8007064:	f88d 3004 	strb.w	r3, [sp, #4]
 8007068:	2201      	movs	r2, #1
 800706a:	4623      	mov	r3, r4
 800706c:	a901      	add	r1, sp, #4
 800706e:	2051      	movs	r0, #81	; 0x51
 8007070:	f7fe ffe8 	bl	8006044 <bmi160_set_regs>
 8007074:	2800      	cmp	r0, #0
 8007076:	f47f ac15 	bne.w	80068a4 <bmi160_set_int_config+0x148>
 800707a:	4621      	mov	r1, r4
 800707c:	4628      	mov	r0, r5
 800707e:	f7ff f8a3 	bl	80061c8 <set_intr_pin_config>
 8007082:	2800      	cmp	r0, #0
 8007084:	f47f ac0e 	bne.w	80068a4 <bmi160_set_int_config+0x148>
 8007088:	4621      	mov	r1, r4
 800708a:	4628      	mov	r0, r5
 800708c:	b002      	add	sp, #8
 800708e:	e8bd 4070 	ldmia.w	sp!, {r4, r5, r6, lr}
 8007092:	f7ff b863 	b.w	800615c <map_hardware_interrupt>
 8007096:	2900      	cmp	r1, #0
 8007098:	d038      	beq.n	800710c <bmi160_set_int_config+0x9b0>
 800709a:	6a4b      	ldr	r3, [r1, #36]	; 0x24
 800709c:	b3b3      	cbz	r3, 800710c <bmi160_set_int_config+0x9b0>
 800709e:	2300      	movs	r3, #0
 80070a0:	2201      	movs	r2, #1
 80070a2:	2051      	movs	r0, #81	; 0x51
 80070a4:	f88d 3004 	strb.w	r3, [sp, #4]
 80070a8:	460b      	mov	r3, r1
 80070aa:	a901      	add	r1, sp, #4
 80070ac:	f7fe ffa0 	bl	8005ff0 <bmi160_get_regs>
 80070b0:	2800      	cmp	r0, #0
 80070b2:	f47f abf7 	bne.w	80068a4 <bmi160_set_int_config+0x148>
 80070b6:	f89d 3004 	ldrb.w	r3, [sp, #4]
 80070ba:	7a2a      	ldrb	r2, [r5, #8]
 80070bc:	f023 0320 	bic.w	r3, r3, #32
 80070c0:	f002 0201 	and.w	r2, r2, #1
 80070c4:	ea43 1342 	orr.w	r3, r3, r2, lsl #5
 80070c8:	e7cc      	b.n	8007064 <bmi160_set_int_config+0x908>
 80070ca:	b1f9      	cbz	r1, 800710c <bmi160_set_int_config+0x9b0>
 80070cc:	6a4b      	ldr	r3, [r1, #36]	; 0x24
 80070ce:	b1eb      	cbz	r3, 800710c <bmi160_set_int_config+0x9b0>
 80070d0:	2300      	movs	r3, #0
 80070d2:	2201      	movs	r2, #1
 80070d4:	2051      	movs	r0, #81	; 0x51
 80070d6:	f88d 3004 	strb.w	r3, [sp, #4]
 80070da:	460b      	mov	r3, r1
 80070dc:	a901      	add	r1, sp, #4
 80070de:	f7fe ff87 	bl	8005ff0 <bmi160_get_regs>
 80070e2:	2800      	cmp	r0, #0
 80070e4:	f47f abde 	bne.w	80068a4 <bmi160_set_int_config+0x148>
 80070e8:	f89d 3004 	ldrb.w	r3, [sp, #4]
 80070ec:	7a2a      	ldrb	r2, [r5, #8]
 80070ee:	f023 0340 	bic.w	r3, r3, #64	; 0x40
 80070f2:	f3c2 0240 	ubfx	r2, r2, #1, #1
 80070f6:	ea43 1382 	orr.w	r3, r3, r2, lsl #6
 80070fa:	e7b3      	b.n	8007064 <bmi160_set_int_config+0x908>
 80070fc:	b002      	add	sp, #8
 80070fe:	e8bd 4070 	ldmia.w	sp!, {r4, r5, r6, lr}
 8007102:	f7ff b861 	b.w	80061c8 <set_intr_pin_config>
 8007106:	2000      	movs	r0, #0
 8007108:	f7ff bbcc 	b.w	80068a4 <bmi160_set_int_config+0x148>
 800710c:	f04f 30ff 	mov.w	r0, #4294967295
 8007110:	f7ff bbc8 	b.w	80068a4 <bmi160_set_int_config+0x148>
 8007114:	080076b4 	.word	0x080076b4

08007118 <bmi160_get_offsets>:
 8007118:	b51f      	push	{r0, r1, r2, r3, r4, lr}
 800711a:	4604      	mov	r4, r0
 800711c:	4608      	mov	r0, r1
 800711e:	9101      	str	r1, [sp, #4]
 8007120:	f7fe ff58 	bl	8005fd4 <null_ptr_check>
 8007124:	2800      	cmp	r0, #0
 8007126:	d136      	bne.n	8007196 <bmi160_get_offsets+0x7e>
 8007128:	460b      	mov	r3, r1
 800712a:	2207      	movs	r2, #7
 800712c:	a902      	add	r1, sp, #8
 800712e:	2071      	movs	r0, #113	; 0x71
 8007130:	f7fe ff5e 	bl	8005ff0 <bmi160_get_regs>
 8007134:	f8bd 3008 	ldrh.w	r3, [sp, #8]
 8007138:	f89d 200e 	ldrb.w	r2, [sp, #14]
 800713c:	8023      	strh	r3, [r4, #0]
 800713e:	f89d 300a 	ldrb.w	r3, [sp, #10]
 8007142:	f002 0103 	and.w	r1, r2, #3
 8007146:	70a3      	strb	r3, [r4, #2]
 8007148:	f89d 300b 	ldrb.w	r3, [sp, #11]
 800714c:	019b      	lsls	r3, r3, #6
 800714e:	ea43 3381 	orr.w	r3, r3, r1, lsl #14
 8007152:	f3c2 0181 	ubfx	r1, r2, #2, #2
 8007156:	f3c2 1201 	ubfx	r2, r2, #4, #2
 800715a:	b21b      	sxth	r3, r3
 800715c:	2b00      	cmp	r3, #0
 800715e:	bfb8      	it	lt
 8007160:	333f      	addlt	r3, #63	; 0x3f
 8007162:	119b      	asrs	r3, r3, #6
 8007164:	80a3      	strh	r3, [r4, #4]
 8007166:	f89d 300c 	ldrb.w	r3, [sp, #12]
 800716a:	019b      	lsls	r3, r3, #6
 800716c:	ea43 3381 	orr.w	r3, r3, r1, lsl #14
 8007170:	b21b      	sxth	r3, r3
 8007172:	2b00      	cmp	r3, #0
 8007174:	bfb8      	it	lt
 8007176:	333f      	addlt	r3, #63	; 0x3f
 8007178:	119b      	asrs	r3, r3, #6
 800717a:	80e3      	strh	r3, [r4, #6]
 800717c:	f89d 300d 	ldrb.w	r3, [sp, #13]
 8007180:	019b      	lsls	r3, r3, #6
 8007182:	ea43 3382 	orr.w	r3, r3, r2, lsl #14
 8007186:	b21b      	sxth	r3, r3
 8007188:	2b00      	cmp	r3, #0
 800718a:	bfb8      	it	lt
 800718c:	333f      	addlt	r3, #63	; 0x3f
 800718e:	119b      	asrs	r3, r3, #6
 8007190:	8123      	strh	r3, [r4, #8]
 8007192:	b004      	add	sp, #16
 8007194:	bd10      	pop	{r4, pc}
 8007196:	f04f 30ff 	mov.w	r0, #4294967295
 800719a:	e7fa      	b.n	8007192 <bmi160_get_offsets+0x7a>

0800719c <bmi160_start_foc>:
 800719c:	b570      	push	{r4, r5, r6, lr}
 800719e:	4606      	mov	r6, r0
 80071a0:	b086      	sub	sp, #24
 80071a2:	4610      	mov	r0, r2
 80071a4:	460d      	mov	r5, r1
 80071a6:	4614      	mov	r4, r2
 80071a8:	f7fe ff14 	bl	8005fd4 <null_ptr_check>
 80071ac:	2800      	cmp	r0, #0
 80071ae:	d17e      	bne.n	80072ae <bmi160_start_foc+0x112>
 80071b0:	4613      	mov	r3, r2
 80071b2:	a901      	add	r1, sp, #4
 80071b4:	2201      	movs	r2, #1
 80071b6:	2077      	movs	r0, #119	; 0x77
 80071b8:	f7fe ff1a 	bl	8005ff0 <bmi160_get_regs>
 80071bc:	2800      	cmp	r0, #0
 80071be:	d15f      	bne.n	8007280 <bmi160_start_foc+0xe4>
 80071c0:	f89d 3004 	ldrb.w	r3, [sp, #4]
 80071c4:	a901      	add	r1, sp, #4
 80071c6:	7972      	ldrb	r2, [r6, #5]
 80071c8:	2077      	movs	r0, #119	; 0x77
 80071ca:	f003 037f 	and.w	r3, r3, #127	; 0x7f
 80071ce:	ea43 13c2 	orr.w	r3, r3, r2, lsl #7
 80071d2:	7932      	ldrb	r2, [r6, #4]
 80071d4:	0192      	lsls	r2, r2, #6
 80071d6:	f023 0340 	bic.w	r3, r3, #64	; 0x40
 80071da:	f002 0240 	and.w	r2, r2, #64	; 0x40
 80071de:	4313      	orrs	r3, r2
 80071e0:	2201      	movs	r2, #1
 80071e2:	f88d 3004 	strb.w	r3, [sp, #4]
 80071e6:	4623      	mov	r3, r4
 80071e8:	f7fe ff2c 	bl	8006044 <bmi160_set_regs>
 80071ec:	2800      	cmp	r0, #0
 80071ee:	d147      	bne.n	8007280 <bmi160_start_foc+0xe4>
 80071f0:	2201      	movs	r2, #1
 80071f2:	4623      	mov	r3, r4
 80071f4:	2069      	movs	r0, #105	; 0x69
 80071f6:	eb0d 0102 	add.w	r1, sp, r2
 80071fa:	f7fe fef9 	bl	8005ff0 <bmi160_get_regs>
 80071fe:	7832      	ldrb	r2, [r6, #0]
 8007200:	f89d 3001 	ldrb.w	r3, [sp, #1]
 8007204:	0192      	lsls	r2, r2, #6
 8007206:	f003 038f 	and.w	r3, r3, #143	; 0x8f
 800720a:	f002 0240 	and.w	r2, r2, #64	; 0x40
 800720e:	4313      	orrs	r3, r2
 8007210:	7872      	ldrb	r2, [r6, #1]
 8007212:	0112      	lsls	r2, r2, #4
 8007214:	f002 0230 	and.w	r2, r2, #48	; 0x30
 8007218:	4313      	orrs	r3, r2
 800721a:	78b2      	ldrb	r2, [r6, #2]
 800721c:	0092      	lsls	r2, r2, #2
 800721e:	f003 03f0 	and.w	r3, r3, #240	; 0xf0
 8007222:	f002 020c 	and.w	r2, r2, #12
 8007226:	4313      	orrs	r3, r2
 8007228:	78f2      	ldrb	r2, [r6, #3]
 800722a:	f002 0203 	and.w	r2, r2, #3
 800722e:	4313      	orrs	r3, r2
 8007230:	f88d 3001 	strb.w	r3, [sp, #1]
 8007234:	bb20      	cbnz	r0, 8007280 <bmi160_start_foc+0xe4>
 8007236:	2201      	movs	r2, #1
 8007238:	4623      	mov	r3, r4
 800723a:	2069      	movs	r0, #105	; 0x69
 800723c:	eb0d 0102 	add.w	r1, sp, r2
 8007240:	f7fe ff00 	bl	8006044 <bmi160_set_regs>
 8007244:	b9e0      	cbnz	r0, 8007280 <bmi160_start_foc+0xe4>
 8007246:	2303      	movs	r3, #3
 8007248:	2201      	movs	r2, #1
 800724a:	f10d 0103 	add.w	r1, sp, #3
 800724e:	207e      	movs	r0, #126	; 0x7e
 8007250:	f88d 3003 	strb.w	r3, [sp, #3]
 8007254:	4623      	mov	r3, r4
 8007256:	f88d 2002 	strb.w	r2, [sp, #2]
 800725a:	f7fe fef3 	bl	8006044 <bmi160_set_regs>
 800725e:	b978      	cbnz	r0, 8007280 <bmi160_start_foc+0xe4>
 8007260:	4621      	mov	r1, r4
 8007262:	f10d 0002 	add.w	r0, sp, #2
 8007266:	f7fe fedc 	bl	8006022 <get_foc_status>
 800726a:	b958      	cbnz	r0, 8007284 <bmi160_start_foc+0xe8>
 800726c:	f89d 3002 	ldrb.w	r3, [sp, #2]
 8007270:	2b01      	cmp	r3, #1
 8007272:	d107      	bne.n	8007284 <bmi160_start_foc+0xe8>
 8007274:	4623      	mov	r3, r4
 8007276:	2214      	movs	r2, #20
 8007278:	a901      	add	r1, sp, #4
 800727a:	200c      	movs	r0, #12
 800727c:	f7fe feb8 	bl	8005ff0 <bmi160_get_regs>
 8007280:	b006      	add	sp, #24
 8007282:	bd70      	pop	{r4, r5, r6, pc}
 8007284:	2621      	movs	r6, #33	; 0x21
 8007286:	f89d 3002 	ldrb.w	r3, [sp, #2]
 800728a:	2b01      	cmp	r3, #1
 800728c:	d012      	beq.n	80072b4 <bmi160_start_foc+0x118>
 800728e:	3e01      	subs	r6, #1
 8007290:	f016 06ff 	ands.w	r6, r6, #255	; 0xff
 8007294:	d102      	bne.n	800729c <bmi160_start_foc+0x100>
 8007296:	f06f 000a 	mvn.w	r0, #10
 800729a:	e7f1      	b.n	8007280 <bmi160_start_foc+0xe4>
 800729c:	6a63      	ldr	r3, [r4, #36]	; 0x24
 800729e:	2019      	movs	r0, #25
 80072a0:	4798      	blx	r3
 80072a2:	4621      	mov	r1, r4
 80072a4:	f10d 0002 	add.w	r0, sp, #2
 80072a8:	f7fe febb 	bl	8006022 <get_foc_status>
 80072ac:	e7eb      	b.n	8007286 <bmi160_start_foc+0xea>
 80072ae:	f04f 30ff 	mov.w	r0, #4294967295
 80072b2:	e7e5      	b.n	8007280 <bmi160_start_foc+0xe4>
 80072b4:	2800      	cmp	r0, #0
 80072b6:	d1ee      	bne.n	8007296 <bmi160_start_foc+0xfa>
 80072b8:	4621      	mov	r1, r4
 80072ba:	4628      	mov	r0, r5
 80072bc:	f7ff ff2c 	bl	8007118 <bmi160_get_offsets>
 80072c0:	2800      	cmp	r0, #0
 80072c2:	d1dd      	bne.n	8007280 <bmi160_start_foc+0xe4>
 80072c4:	e7d6      	b.n	8007274 <bmi160_start_foc+0xd8>
	...

080072c8 <start_foc>:
 80072c8:	b570      	push	{r4, r5, r6, lr}
 80072ca:	2303      	movs	r3, #3
 80072cc:	4c0a      	ldr	r4, [pc, #40]	; (80072f8 <start_foc+0x30>)
 80072ce:	2501      	movs	r5, #1
 80072d0:	4e0a      	ldr	r6, [pc, #40]	; (80072fc <start_foc+0x34>)
 80072d2:	7063      	strb	r3, [r4, #1]
 80072d4:	2064      	movs	r0, #100	; 0x64
 80072d6:	70a3      	strb	r3, [r4, #2]
 80072d8:	7125      	strb	r5, [r4, #4]
 80072da:	6a73      	ldr	r3, [r6, #36]	; 0x24
 80072dc:	70e5      	strb	r5, [r4, #3]
 80072de:	4798      	blx	r3
 80072e0:	6a73      	ldr	r3, [r6, #36]	; 0x24
 80072e2:	2064      	movs	r0, #100	; 0x64
 80072e4:	7025      	strb	r5, [r4, #0]
 80072e6:	7165      	strb	r5, [r4, #5]
 80072e8:	4798      	blx	r3
 80072ea:	4632      	mov	r2, r6
 80072ec:	4620      	mov	r0, r4
 80072ee:	4904      	ldr	r1, [pc, #16]	; (8007300 <start_foc+0x38>)
 80072f0:	e8bd 4070 	ldmia.w	sp!, {r4, r5, r6, lr}
 80072f4:	f7ff bf52 	b.w	800719c <bmi160_start_foc>
 80072f8:	240051b8 	.word	0x240051b8
 80072fc:	240051e0 	.word	0x240051e0
 8007300:	240051d6 	.word	0x240051d6

08007304 <bmi160ReadAccelGyro>:
 8007304:	b570      	push	{r4, r5, r6, lr}
 8007306:	4e28      	ldr	r6, [pc, #160]	; (80073a8 <bmi160ReadAccelGyro+0xa4>)
 8007308:	4604      	mov	r4, r0
 800730a:	4d28      	ldr	r5, [pc, #160]	; (80073ac <bmi160ReadAccelGyro+0xa8>)
 800730c:	2007      	movs	r0, #7
 800730e:	4632      	mov	r2, r6
 8007310:	4b27      	ldr	r3, [pc, #156]	; (80073b0 <bmi160ReadAccelGyro+0xac>)
 8007312:	4629      	mov	r1, r5
 8007314:	f7ff f983 	bl	800661e <bmi160_get_sensor_data>
 8007318:	4b26      	ldr	r3, [pc, #152]	; (80073b4 <bmi160ReadAccelGyro+0xb0>)
 800731a:	f9b5 1000 	ldrsh.w	r1, [r5]
 800731e:	edd3 7a00 	vldr	s15, [r3]
 8007322:	f9b5 3002 	ldrsh.w	r3, [r5, #2]
 8007326:	68aa      	ldr	r2, [r5, #8]
 8007328:	ee07 3a10 	vmov	s14, r3
 800732c:	f9b5 3004 	ldrsh.w	r3, [r5, #4]
 8007330:	61a2      	str	r2, [r4, #24]
 8007332:	eeb8 7ac7 	vcvt.f32.s32	s14, s14
 8007336:	ee87 4a27 	vdiv.f32	s8, s14, s15
 800733a:	ee07 3a10 	vmov	s14, r3
 800733e:	4b1e      	ldr	r3, [pc, #120]	; (80073b8 <bmi160ReadAccelGyro+0xb4>)
 8007340:	eeb8 7ac7 	vcvt.f32.s32	s14, s14
 8007344:	eec7 4a27 	vdiv.f32	s9, s14, s15
 8007348:	ed93 7a00 	vldr	s14, [r3]
 800734c:	f9b6 3000 	ldrsh.w	r3, [r6]
 8007350:	ee06 3a90 	vmov	s13, r3
 8007354:	f9b6 3002 	ldrsh.w	r3, [r6, #2]
 8007358:	eef8 6ae6 	vcvt.f32.s32	s13, s13
 800735c:	ee86 5a87 	vdiv.f32	s10, s13, s14
 8007360:	ee06 3a90 	vmov	s13, r3
 8007364:	f9b6 3004 	ldrsh.w	r3, [r6, #4]
 8007368:	eef8 6ae6 	vcvt.f32.s32	s13, s13
 800736c:	eec6 5a87 	vdiv.f32	s11, s13, s14
 8007370:	ee06 3a90 	vmov	s13, r3
 8007374:	68b3      	ldr	r3, [r6, #8]
 8007376:	ed84 4a01 	vstr	s8, [r4, #4]
 800737a:	edc4 4a02 	vstr	s9, [r4, #8]
 800737e:	61e3      	str	r3, [r4, #28]
 8007380:	eef8 6ae6 	vcvt.f32.s32	s13, s13
 8007384:	ee86 6a87 	vdiv.f32	s12, s13, s14
 8007388:	ee07 1a10 	vmov	s14, r1
 800738c:	ed84 5a03 	vstr	s10, [r4, #12]
 8007390:	eeb8 7ac7 	vcvt.f32.s32	s14, s14
 8007394:	eec7 6a27 	vdiv.f32	s13, s14, s15
 8007398:	edc4 5a04 	vstr	s11, [r4, #16]
 800739c:	ed84 6a05 	vstr	s12, [r4, #20]
 80073a0:	edc4 6a00 	vstr	s13, [r4]
 80073a4:	bd70      	pop	{r4, r5, r6, pc}
 80073a6:	bf00      	nop
 80073a8:	240051c0 	.word	0x240051c0
 80073ac:	240051a4 	.word	0x240051a4
 80073b0:	240051e0 	.word	0x240051e0
 80073b4:	240051b0 	.word	0x240051b0
 80073b8:	240051b4 	.word	0x240051b4

080073bc <set_bmi160_Ares>:
 80073bc:	4b0a      	ldr	r3, [pc, #40]	; (80073e8 <set_bmi160_Ares+0x2c>)
 80073be:	781b      	ldrb	r3, [r3, #0]
 80073c0:	3b01      	subs	r3, #1
 80073c2:	2b03      	cmp	r3, #3
 80073c4:	d806      	bhi.n	80073d4 <set_bmi160_Ares+0x18>
 80073c6:	e8df f003 	tbb	[pc, r3]
 80073ca:	0602      	.short	0x0602
 80073cc:	0c09      	.short	0x0c09
 80073ce:	4b07      	ldr	r3, [pc, #28]	; (80073ec <set_bmi160_Ares+0x30>)
 80073d0:	2203      	movs	r2, #3
 80073d2:	701a      	strb	r2, [r3, #0]
 80073d4:	4770      	bx	lr
 80073d6:	4b05      	ldr	r3, [pc, #20]	; (80073ec <set_bmi160_Ares+0x30>)
 80073d8:	2205      	movs	r2, #5
 80073da:	e7fa      	b.n	80073d2 <set_bmi160_Ares+0x16>
 80073dc:	4b03      	ldr	r3, [pc, #12]	; (80073ec <set_bmi160_Ares+0x30>)
 80073de:	2208      	movs	r2, #8
 80073e0:	e7f7      	b.n	80073d2 <set_bmi160_Ares+0x16>
 80073e2:	4b02      	ldr	r3, [pc, #8]	; (80073ec <set_bmi160_Ares+0x30>)
 80073e4:	220c      	movs	r2, #12
 80073e6:	e7f4      	b.n	80073d2 <set_bmi160_Ares+0x16>
 80073e8:	24000015 	.word	0x24000015
 80073ec:	240051a0 	.word	0x240051a0

080073f0 <set_bmi160_Gres>:
 80073f0:	4b0c      	ldr	r3, [pc, #48]	; (8007424 <set_bmi160_Gres+0x34>)
 80073f2:	781b      	ldrb	r3, [r3, #0]
 80073f4:	3b01      	subs	r3, #1
 80073f6:	2b04      	cmp	r3, #4
 80073f8:	d807      	bhi.n	800740a <set_bmi160_Gres+0x1a>
 80073fa:	e8df f003 	tbb	[pc, r3]
 80073fe:	0703      	.short	0x0703
 8007400:	0d0a      	.short	0x0d0a
 8007402:	10          	.byte	0x10
 8007403:	00          	.byte	0x00
 8007404:	4b08      	ldr	r3, [pc, #32]	; (8007428 <set_bmi160_Gres+0x38>)
 8007406:	2204      	movs	r2, #4
 8007408:	701a      	strb	r2, [r3, #0]
 800740a:	4770      	bx	lr
 800740c:	4b06      	ldr	r3, [pc, #24]	; (8007428 <set_bmi160_Gres+0x38>)
 800740e:	2203      	movs	r2, #3
 8007410:	e7fa      	b.n	8007408 <set_bmi160_Gres+0x18>
 8007412:	4b05      	ldr	r3, [pc, #20]	; (8007428 <set_bmi160_Gres+0x38>)
 8007414:	2202      	movs	r2, #2
 8007416:	e7f7      	b.n	8007408 <set_bmi160_Gres+0x18>
 8007418:	4b03      	ldr	r3, [pc, #12]	; (8007428 <set_bmi160_Gres+0x38>)
 800741a:	2201      	movs	r2, #1
 800741c:	e7f4      	b.n	8007408 <set_bmi160_Gres+0x18>
 800741e:	4b02      	ldr	r3, [pc, #8]	; (8007428 <set_bmi160_Gres+0x38>)
 8007420:	2200      	movs	r2, #0
 8007422:	e7f1      	b.n	8007408 <set_bmi160_Gres+0x18>
 8007424:	24000017 	.word	0x24000017
 8007428:	240051a1 	.word	0x240051a1

0800742c <get_bmi160_Ares>:
 800742c:	4b0e      	ldr	r3, [pc, #56]	; (8007468 <get_bmi160_Ares+0x3c>)
 800742e:	781b      	ldrb	r3, [r3, #0]
 8007430:	2b04      	cmp	r3, #4
 8007432:	d808      	bhi.n	8007446 <get_bmi160_Ares+0x1a>
 8007434:	e8df f003 	tbb	[pc, r3]
 8007438:	100c0803 	.word	0x100c0803
 800743c:	14          	.byte	0x14
 800743d:	00          	.byte	0x00
 800743e:	4b0b      	ldr	r3, [pc, #44]	; (800746c <get_bmi160_Ares+0x40>)
 8007440:	f04f 527e 	mov.w	r2, #1065353216	; 0x3f800000
 8007444:	601a      	str	r2, [r3, #0]
 8007446:	4770      	bx	lr
 8007448:	4b08      	ldr	r3, [pc, #32]	; (800746c <get_bmi160_Ares+0x40>)
 800744a:	f04f 428d 	mov.w	r2, #1182793728	; 0x46800000
 800744e:	e7f9      	b.n	8007444 <get_bmi160_Ares+0x18>
 8007450:	4b06      	ldr	r3, [pc, #24]	; (800746c <get_bmi160_Ares+0x40>)
 8007452:	f04f 428c 	mov.w	r2, #1174405120	; 0x46000000
 8007456:	e7f5      	b.n	8007444 <get_bmi160_Ares+0x18>
 8007458:	4b04      	ldr	r3, [pc, #16]	; (800746c <get_bmi160_Ares+0x40>)
 800745a:	f04f 428b 	mov.w	r2, #1166016512	; 0x45800000
 800745e:	e7f1      	b.n	8007444 <get_bmi160_Ares+0x18>
 8007460:	4b02      	ldr	r3, [pc, #8]	; (800746c <get_bmi160_Ares+0x40>)
 8007462:	f04f 428a 	mov.w	r2, #1157627904	; 0x45000000
 8007466:	e7ed      	b.n	8007444 <get_bmi160_Ares+0x18>
 8007468:	24000014 	.word	0x24000014
 800746c:	240051b0 	.word	0x240051b0

08007470 <get_bmi160_Gres>:
 8007470:	4b0e      	ldr	r3, [pc, #56]	; (80074ac <get_bmi160_Gres+0x3c>)
 8007472:	781b      	ldrb	r3, [r3, #0]
 8007474:	2b05      	cmp	r3, #5
 8007476:	d808      	bhi.n	800748a <get_bmi160_Gres+0x1a>
 8007478:	e8df f003 	tbb	[pc, r3]
 800747c:	0e0b0803 	.word	0x0e0b0803
 8007480:	1411      	.short	0x1411
 8007482:	4b0b      	ldr	r3, [pc, #44]	; (80074b0 <get_bmi160_Gres+0x40>)
 8007484:	f04f 527e 	mov.w	r2, #1065353216	; 0x3f800000
 8007488:	601a      	str	r2, [r3, #0]
 800748a:	4770      	bx	lr
 800748c:	4b09      	ldr	r3, [pc, #36]	; (80074b4 <get_bmi160_Gres+0x44>)
 800748e:	4a0a      	ldr	r2, [pc, #40]	; (80074b8 <get_bmi160_Gres+0x48>)
 8007490:	e7fa      	b.n	8007488 <get_bmi160_Gres+0x18>
 8007492:	4b08      	ldr	r3, [pc, #32]	; (80074b4 <get_bmi160_Gres+0x44>)
 8007494:	4a09      	ldr	r2, [pc, #36]	; (80074bc <get_bmi160_Gres+0x4c>)
 8007496:	e7f7      	b.n	8007488 <get_bmi160_Gres+0x18>
 8007498:	4b06      	ldr	r3, [pc, #24]	; (80074b4 <get_bmi160_Gres+0x44>)
 800749a:	4a09      	ldr	r2, [pc, #36]	; (80074c0 <get_bmi160_Gres+0x50>)
 800749c:	e7f4      	b.n	8007488 <get_bmi160_Gres+0x18>
 800749e:	4b05      	ldr	r3, [pc, #20]	; (80074b4 <get_bmi160_Gres+0x44>)
 80074a0:	4a08      	ldr	r2, [pc, #32]	; (80074c4 <get_bmi160_Gres+0x54>)
 80074a2:	e7f1      	b.n	8007488 <get_bmi160_Gres+0x18>
 80074a4:	4b03      	ldr	r3, [pc, #12]	; (80074b4 <get_bmi160_Gres+0x44>)
 80074a6:	4a08      	ldr	r2, [pc, #32]	; (80074c8 <get_bmi160_Gres+0x58>)
 80074a8:	e7ee      	b.n	8007488 <get_bmi160_Gres+0x18>
 80074aa:	bf00      	nop
 80074ac:	24000016 	.word	0x24000016
 80074b0:	240051b0 	.word	0x240051b0
 80074b4:	240051b4 	.word	0x240051b4
 80074b8:	43833333 	.word	0x43833333
 80074bc:	43033333 	.word	0x43033333
 80074c0:	42833333 	.word	0x42833333
 80074c4:	42033333 	.word	0x42033333
 80074c8:	41833333 	.word	0x41833333

080074cc <BMI160_init>:
 80074cc:	b5f7      	push	{r0, r1, r2, r4, r5, r6, r7, lr}
 80074ce:	f7ff ff75 	bl	80073bc <set_bmi160_Ares>
 80074d2:	4c32      	ldr	r4, [pc, #200]	; (800759c <BMI160_init+0xd0>)
 80074d4:	f7ff ff8c 	bl	80073f0 <set_bmi160_Gres>
 80074d8:	2500      	movs	r5, #0
 80074da:	f7ff ffa7 	bl	800742c <get_bmi160_Ares>
 80074de:	4606      	mov	r6, r0
 80074e0:	f7ff ffc6 	bl	8007470 <get_bmi160_Gres>
 80074e4:	4b2e      	ldr	r3, [pc, #184]	; (80075a0 <BMI160_init+0xd4>)
 80074e6:	4620      	mov	r0, r4
 80074e8:	7065      	strb	r5, [r4, #1]
 80074ea:	61e3      	str	r3, [r4, #28]
 80074ec:	270b      	movs	r7, #11
 80074ee:	4b2d      	ldr	r3, [pc, #180]	; (80075a4 <BMI160_init+0xd8>)
 80074f0:	70a5      	strb	r5, [r4, #2]
 80074f2:	6223      	str	r3, [r4, #32]
 80074f4:	4b2c      	ldr	r3, [pc, #176]	; (80075a8 <BMI160_init+0xdc>)
 80074f6:	6263      	str	r3, [r4, #36]	; 0x24
 80074f8:	2320      	movs	r3, #32
 80074fa:	8523      	strh	r3, [r4, #40]	; 0x28
 80074fc:	f7fe feda 	bl	80062b4 <bmi160_soft_reset>
 8007500:	6a63      	ldr	r3, [r4, #36]	; 0x24
 8007502:	20c8      	movs	r0, #200	; 0xc8
 8007504:	4798      	blx	r3
 8007506:	4620      	mov	r0, r4
 8007508:	f7fe ff06 	bl	8006318 <bmi160_init>
 800750c:	2201      	movs	r2, #1
 800750e:	f10d 0107 	add.w	r1, sp, #7
 8007512:	4623      	mov	r3, r4
 8007514:	4628      	mov	r0, r5
 8007516:	f88d 5007 	strb.w	r5, [sp, #7]
 800751a:	f7fe fd69 	bl	8005ff0 <bmi160_get_regs>
 800751e:	6a63      	ldr	r3, [r4, #36]	; 0x24
 8007520:	2064      	movs	r0, #100	; 0x64
 8007522:	7167      	strb	r7, [r4, #5]
 8007524:	4798      	blx	r3
 8007526:	4b21      	ldr	r3, [pc, #132]	; (80075ac <BMI160_init+0xe0>)
 8007528:	2064      	movs	r0, #100	; 0x64
 800752a:	2502      	movs	r5, #2
 800752c:	781b      	ldrb	r3, [r3, #0]
 800752e:	71a3      	strb	r3, [r4, #6]
 8007530:	6a63      	ldr	r3, [r4, #36]	; 0x24
 8007532:	4798      	blx	r3
 8007534:	2311      	movs	r3, #17
 8007536:	2064      	movs	r0, #100	; 0x64
 8007538:	7123      	strb	r3, [r4, #4]
 800753a:	6a63      	ldr	r3, [r4, #36]	; 0x24
 800753c:	4798      	blx	r3
 800753e:	6a63      	ldr	r3, [r4, #36]	; 0x24
 8007540:	2064      	movs	r0, #100	; 0x64
 8007542:	71e5      	strb	r5, [r4, #7]
 8007544:	4798      	blx	r3
 8007546:	6a63      	ldr	r3, [r4, #36]	; 0x24
 8007548:	2064      	movs	r0, #100	; 0x64
 800754a:	7367      	strb	r7, [r4, #13]
 800754c:	4798      	blx	r3
 800754e:	4b18      	ldr	r3, [pc, #96]	; (80075b0 <BMI160_init+0xe4>)
 8007550:	2064      	movs	r0, #100	; 0x64
 8007552:	781b      	ldrb	r3, [r3, #0]
 8007554:	73a3      	strb	r3, [r4, #14]
 8007556:	6a63      	ldr	r3, [r4, #36]	; 0x24
 8007558:	4798      	blx	r3
 800755a:	2315      	movs	r3, #21
 800755c:	2064      	movs	r0, #100	; 0x64
 800755e:	7323      	strb	r3, [r4, #12]
 8007560:	6a63      	ldr	r3, [r4, #36]	; 0x24
 8007562:	4798      	blx	r3
 8007564:	6a63      	ldr	r3, [r4, #36]	; 0x24
 8007566:	2064      	movs	r0, #100	; 0x64
 8007568:	73e5      	strb	r5, [r4, #15]
 800756a:	4798      	blx	r3
 800756c:	4620      	mov	r0, r4
 800756e:	f7fe ff8a 	bl	8006486 <bmi160_set_sens_conf>
 8007572:	f7ff fea9 	bl	80072c8 <start_foc>
 8007576:	480f      	ldr	r0, [pc, #60]	; (80075b4 <BMI160_init+0xe8>)
 8007578:	f640 2301 	movw	r3, #2561	; 0xa01
 800757c:	4621      	mov	r1, r4
 800757e:	8003      	strh	r3, [r0, #0]
 8007580:	8843      	ldrh	r3, [r0, #2]
 8007582:	f423 73ff 	bic.w	r3, r3, #510	; 0x1fe
 8007586:	f023 0301 	bic.w	r3, r3, #1
 800758a:	f043 0309 	orr.w	r3, r3, #9
 800758e:	8043      	strh	r3, [r0, #2]
 8007590:	f7ff f8e4 	bl	800675c <bmi160_set_int_config>
 8007594:	f886 0020 	strb.w	r0, [r6, #32]
 8007598:	b003      	add	sp, #12
 800759a:	bdf0      	pop	{r4, r5, r6, r7, pc}
 800759c:	240051e0 	.word	0x240051e0
 80075a0:	080075b9 	.word	0x080075b9
 80075a4:	080075f1 	.word	0x080075f1
 80075a8:	08000f89 	.word	0x08000f89
 80075ac:	240051a0 	.word	0x240051a0
 80075b0:	240051a1 	.word	0x240051a1
 80075b4:	240051cc 	.word	0x240051cc

080075b8 <SensorAPI_I2Cx_Read>:
 80075b8:	b5f0      	push	{r4, r5, r6, r7, lr}
 80075ba:	4e0c      	ldr	r6, [pc, #48]	; (80075ec <SensorAPI_I2Cx_Read+0x34>)
 80075bc:	b085      	sub	sp, #20
 80075be:	2764      	movs	r7, #100	; 0x64
 80075c0:	4614      	mov	r4, r2
 80075c2:	461d      	mov	r5, r3
 80075c4:	f10d 020f 	add.w	r2, sp, #15
 80075c8:	f88d 100f 	strb.w	r1, [sp, #15]
 80075cc:	2301      	movs	r3, #1
 80075ce:	21d2      	movs	r1, #210	; 0xd2
 80075d0:	4630      	mov	r0, r6
 80075d2:	9700      	str	r7, [sp, #0]
 80075d4:	f7fa fa5c 	bl	8001a90 <HAL_I2C_Master_Transmit>
 80075d8:	462b      	mov	r3, r5
 80075da:	4622      	mov	r2, r4
 80075dc:	21d2      	movs	r1, #210	; 0xd2
 80075de:	4630      	mov	r0, r6
 80075e0:	9700      	str	r7, [sp, #0]
 80075e2:	f7fa faeb 	bl	8001bbc <HAL_I2C_Master_Receive>
 80075e6:	2000      	movs	r0, #0
 80075e8:	b005      	add	sp, #20
 80075ea:	bdf0      	pop	{r4, r5, r6, r7, pc}
 80075ec:	24000210 	.word	0x24000210

080075f0 <SensorAPI_I2Cx_Write>:
 80075f0:	b573      	push	{r0, r1, r4, r5, r6, lr}
 80075f2:	4d0b      	ldr	r5, [pc, #44]	; (8007620 <SensorAPI_I2Cx_Write+0x30>)
 80075f4:	460e      	mov	r6, r1
 80075f6:	461c      	mov	r4, r3
 80075f8:	4611      	mov	r1, r2
 80075fa:	4628      	mov	r0, r5
 80075fc:	461a      	mov	r2, r3
 80075fe:	f800 6b01 	strb.w	r6, [r0], #1
 8007602:	f000 f83d 	bl	8007680 <memcpy>
 8007606:	1c63      	adds	r3, r4, #1
 8007608:	2264      	movs	r2, #100	; 0x64
 800760a:	21d2      	movs	r1, #210	; 0xd2
 800760c:	b29b      	uxth	r3, r3
 800760e:	4805      	ldr	r0, [pc, #20]	; (8007624 <SensorAPI_I2Cx_Write+0x34>)
 8007610:	9200      	str	r2, [sp, #0]
 8007612:	462a      	mov	r2, r5
 8007614:	f7fa fa3c 	bl	8001a90 <HAL_I2C_Master_Transmit>
 8007618:	2000      	movs	r0, #0
 800761a:	b002      	add	sp, #8
 800761c:	bd70      	pop	{r4, r5, r6, pc}
 800761e:	bf00      	nop
 8007620:	2400520c 	.word	0x2400520c
 8007624:	24000210 	.word	0x24000210

08007628 <memset>:
 8007628:	4402      	add	r2, r0
 800762a:	4603      	mov	r3, r0
 800762c:	4293      	cmp	r3, r2
 800762e:	d100      	bne.n	8007632 <memset+0xa>
 8007630:	4770      	bx	lr
 8007632:	f803 1b01 	strb.w	r1, [r3], #1
 8007636:	e7f9      	b.n	800762c <memset+0x4>

08007638 <__libc_init_array>:
 8007638:	b570      	push	{r4, r5, r6, lr}
 800763a:	4d0d      	ldr	r5, [pc, #52]	; (8007670 <__libc_init_array+0x38>)
 800763c:	4c0d      	ldr	r4, [pc, #52]	; (8007674 <__libc_init_array+0x3c>)
 800763e:	1b64      	subs	r4, r4, r5
 8007640:	10a4      	asrs	r4, r4, #2
 8007642:	2600      	movs	r6, #0
 8007644:	42a6      	cmp	r6, r4
 8007646:	d109      	bne.n	800765c <__libc_init_array+0x24>
 8007648:	4d0b      	ldr	r5, [pc, #44]	; (8007678 <__libc_init_array+0x40>)
 800764a:	4c0c      	ldr	r4, [pc, #48]	; (800767c <__libc_init_array+0x44>)
 800764c:	f000 f826 	bl	800769c <_init>
 8007650:	1b64      	subs	r4, r4, r5
 8007652:	10a4      	asrs	r4, r4, #2
 8007654:	2600      	movs	r6, #0
 8007656:	42a6      	cmp	r6, r4
 8007658:	d105      	bne.n	8007666 <__libc_init_array+0x2e>
 800765a:	bd70      	pop	{r4, r5, r6, pc}
 800765c:	f855 3b04 	ldr.w	r3, [r5], #4
 8007660:	4798      	blx	r3
 8007662:	3601      	adds	r6, #1
 8007664:	e7ee      	b.n	8007644 <__libc_init_array+0xc>
 8007666:	f855 3b04 	ldr.w	r3, [r5], #4
 800766a:	4798      	blx	r3
 800766c:	3601      	adds	r6, #1
 800766e:	e7f2      	b.n	8007656 <__libc_init_array+0x1e>
 8007670:	080077b0 	.word	0x080077b0
 8007674:	080077b0 	.word	0x080077b0
 8007678:	080077b0 	.word	0x080077b0
 800767c:	080077b4 	.word	0x080077b4

08007680 <memcpy>:
 8007680:	440a      	add	r2, r1
 8007682:	4291      	cmp	r1, r2
 8007684:	f100 33ff 	add.w	r3, r0, #4294967295
 8007688:	d100      	bne.n	800768c <memcpy+0xc>
 800768a:	4770      	bx	lr
 800768c:	b510      	push	{r4, lr}
 800768e:	f811 4b01 	ldrb.w	r4, [r1], #1
 8007692:	f803 4f01 	strb.w	r4, [r3, #1]!
 8007696:	4291      	cmp	r1, r2
 8007698:	d1f9      	bne.n	800768e <memcpy+0xe>
 800769a:	bd10      	pop	{r4, pc}

0800769c <_init>:
 800769c:	b5f8      	push	{r3, r4, r5, r6, r7, lr}
 800769e:	bf00      	nop
 80076a0:	bcf8      	pop	{r3, r4, r5, r6, r7}
 80076a2:	bc08      	pop	{r3}
 80076a4:	469e      	mov	lr, r3
 80076a6:	4770      	bx	lr

080076a8 <_fini>:
 80076a8:	b5f8      	push	{r3, r4, r5, r6, r7, lr}
 80076aa:	bf00      	nop
 80076ac:	bcf8      	pop	{r3, r4, r5, r6, r7}
 80076ae:	bc08      	pop	{r3}
 80076b0:	469e      	mov	lr, r3
 80076b2:	4770      	bx	lr
